ARM GAS  C:\Users\zdy\AppData\Local\Temp\cceX250h.s 			page 1


   1              		.cpu cortex-m7
   2              		.arch armv7e-m
   3              		.fpu fpv5-d16
   4              		.eabi_attribute 28, 1
   5              		.eabi_attribute 20, 1
   6              		.eabi_attribute 21, 1
   7              		.eabi_attribute 23, 3
   8              		.eabi_attribute 24, 1
   9              		.eabi_attribute 25, 1
  10              		.eabi_attribute 26, 1
  11              		.eabi_attribute 30, 1
  12              		.eabi_attribute 34, 1
  13              		.eabi_attribute 18, 4
  14              		.file	"sys_arch.c"
  15              		.text
  16              	.Ltext0:
  17              		.cfi_sections	.debug_frame
  18              		.section	.text.sys_mbox_new,"ax",%progbits
  19              		.align	1
  20              		.global	sys_mbox_new
  21              		.syntax unified
  22              		.thumb
  23              		.thumb_func
  25              	sys_mbox_new:
  26              	.LVL0:
  27              	.LFB364:
  28              		.file 1 "Middlewares/Third_Party/LwIP/system/OS/sys_arch.c"
   1:Middlewares/Third_Party/LwIP/system/OS/sys_arch.c **** /*
   2:Middlewares/Third_Party/LwIP/system/OS/sys_arch.c ****  * Copyright (c) 2001-2003 Swedish Institute of Computer Science.
   3:Middlewares/Third_Party/LwIP/system/OS/sys_arch.c ****  * All rights reserved.
   4:Middlewares/Third_Party/LwIP/system/OS/sys_arch.c ****  *
   5:Middlewares/Third_Party/LwIP/system/OS/sys_arch.c ****  * Redistribution and use in source and binary forms, with or without modification,
   6:Middlewares/Third_Party/LwIP/system/OS/sys_arch.c ****  * are permitted provided that the following conditions are met:
   7:Middlewares/Third_Party/LwIP/system/OS/sys_arch.c ****  *
   8:Middlewares/Third_Party/LwIP/system/OS/sys_arch.c ****  * 1. Redistributions of source code must retain the above copyright notice,
   9:Middlewares/Third_Party/LwIP/system/OS/sys_arch.c ****  *    this list of conditions and the following disclaimer.
  10:Middlewares/Third_Party/LwIP/system/OS/sys_arch.c ****  * 2. Redistributions in binary form must reproduce the above copyright notice,
  11:Middlewares/Third_Party/LwIP/system/OS/sys_arch.c ****  *    this list of conditions and the following disclaimer in the documentation
  12:Middlewares/Third_Party/LwIP/system/OS/sys_arch.c ****  *    and/or other materials provided with the distribution.
  13:Middlewares/Third_Party/LwIP/system/OS/sys_arch.c ****  * 3. The name of the author may not be used to endorse or promote products
  14:Middlewares/Third_Party/LwIP/system/OS/sys_arch.c ****  *    derived from this software without specific prior written permission.
  15:Middlewares/Third_Party/LwIP/system/OS/sys_arch.c ****  *
  16:Middlewares/Third_Party/LwIP/system/OS/sys_arch.c ****  * THIS SOFTWARE IS PROVIDED BY THE AUTHOR ``AS IS'' AND ANY EXPRESS OR IMPLIED
  17:Middlewares/Third_Party/LwIP/system/OS/sys_arch.c ****  * WARRANTIES, INCLUDING, BUT NOT LIMITED TO, THE IMPLIED WARRANTIES OF
  18:Middlewares/Third_Party/LwIP/system/OS/sys_arch.c ****  * MERCHANTABILITY AND FITNESS FOR A PARTICULAR PURPOSE ARE DISCLAIMED. IN NO EVENT
  19:Middlewares/Third_Party/LwIP/system/OS/sys_arch.c ****  * SHALL THE AUTHOR BE LIABLE FOR ANY DIRECT, INDIRECT, INCIDENTAL, SPECIAL,
  20:Middlewares/Third_Party/LwIP/system/OS/sys_arch.c ****  * EXEMPLARY, OR CONSEQUENTIAL DAMAGES (INCLUDING, BUT NOT LIMITED TO, PROCUREMENT
  21:Middlewares/Third_Party/LwIP/system/OS/sys_arch.c ****  * OF SUBSTITUTE GOODS OR SERVICES; LOSS OF USE, DATA, OR PROFITS; OR BUSINESS
  22:Middlewares/Third_Party/LwIP/system/OS/sys_arch.c ****  * INTERRUPTION) HOWEVER CAUSED AND ON ANY THEORY OF LIABILITY, WHETHER IN
  23:Middlewares/Third_Party/LwIP/system/OS/sys_arch.c ****  * CONTRACT, STRICT LIABILITY, OR TORT (INCLUDING NEGLIGENCE OR OTHERWISE) ARISING
  24:Middlewares/Third_Party/LwIP/system/OS/sys_arch.c ****  * IN ANY WAY OUT OF THE USE OF THIS SOFTWARE, EVEN IF ADVISED OF THE POSSIBILITY
  25:Middlewares/Third_Party/LwIP/system/OS/sys_arch.c ****  * OF SUCH DAMAGE.
  26:Middlewares/Third_Party/LwIP/system/OS/sys_arch.c ****  *
  27:Middlewares/Third_Party/LwIP/system/OS/sys_arch.c ****  * This file is part of the lwIP TCP/IP stack.
  28:Middlewares/Third_Party/LwIP/system/OS/sys_arch.c ****  *
  29:Middlewares/Third_Party/LwIP/system/OS/sys_arch.c ****  * Author: Adam Dunkels <adam@sics.se>
  30:Middlewares/Third_Party/LwIP/system/OS/sys_arch.c ****  *
ARM GAS  C:\Users\zdy\AppData\Local\Temp\cceX250h.s 			page 2


  31:Middlewares/Third_Party/LwIP/system/OS/sys_arch.c ****  */
  32:Middlewares/Third_Party/LwIP/system/OS/sys_arch.c **** 
  33:Middlewares/Third_Party/LwIP/system/OS/sys_arch.c **** /* lwIP includes. */
  34:Middlewares/Third_Party/LwIP/system/OS/sys_arch.c **** #include "lwip/debug.h"
  35:Middlewares/Third_Party/LwIP/system/OS/sys_arch.c **** #include "lwip/def.h"
  36:Middlewares/Third_Party/LwIP/system/OS/sys_arch.c **** #include "lwip/sys.h"
  37:Middlewares/Third_Party/LwIP/system/OS/sys_arch.c **** #include "lwip/mem.h"
  38:Middlewares/Third_Party/LwIP/system/OS/sys_arch.c **** #include "lwip/stats.h"
  39:Middlewares/Third_Party/LwIP/system/OS/sys_arch.c **** 
  40:Middlewares/Third_Party/LwIP/system/OS/sys_arch.c **** #if !NO_SYS
  41:Middlewares/Third_Party/LwIP/system/OS/sys_arch.c **** 
  42:Middlewares/Third_Party/LwIP/system/OS/sys_arch.c **** #include "cmsis_os.h"
  43:Middlewares/Third_Party/LwIP/system/OS/sys_arch.c **** 
  44:Middlewares/Third_Party/LwIP/system/OS/sys_arch.c **** #if defined(LWIP_PROVIDE_ERRNO)
  45:Middlewares/Third_Party/LwIP/system/OS/sys_arch.c **** int errno;
  46:Middlewares/Third_Party/LwIP/system/OS/sys_arch.c **** #endif
  47:Middlewares/Third_Party/LwIP/system/OS/sys_arch.c **** 
  48:Middlewares/Third_Party/LwIP/system/OS/sys_arch.c **** /*-----------------------------------------------------------------------------------*/
  49:Middlewares/Third_Party/LwIP/system/OS/sys_arch.c **** //  Creates an empty mailbox.
  50:Middlewares/Third_Party/LwIP/system/OS/sys_arch.c **** err_t sys_mbox_new(sys_mbox_t *mbox, int size)
  51:Middlewares/Third_Party/LwIP/system/OS/sys_arch.c **** {
  29              		.loc 1 51 1 view -0
  30              		.cfi_startproc
  31              		@ args = 0, pretend = 0, frame = 16
  32              		@ frame_needed = 0, uses_anonymous_args = 0
  33              		.loc 1 51 1 is_stmt 0 view .LVU1
  34 0000 10B5     		push	{r4, lr}
  35              	.LCFI0:
  36              		.cfi_def_cfa_offset 8
  37              		.cfi_offset 4, -8
  38              		.cfi_offset 14, -4
  39 0002 84B0     		sub	sp, sp, #16
  40              	.LCFI1:
  41              		.cfi_def_cfa_offset 24
  42 0004 0446     		mov	r4, r0
  52:Middlewares/Third_Party/LwIP/system/OS/sys_arch.c **** #if (osCMSIS < 0x20000U)
  53:Middlewares/Third_Party/LwIP/system/OS/sys_arch.c ****   osMessageQDef(QUEUE, size, void *);
  43              		.loc 1 53 3 is_stmt 1 view .LVU2
  44 0006 0091     		str	r1, [sp]
  45 0008 0423     		movs	r3, #4
  46 000a 0193     		str	r3, [sp, #4]
  47 000c 0021     		movs	r1, #0
  48              	.LVL1:
  49              		.loc 1 53 3 is_stmt 0 view .LVU3
  50 000e 0291     		str	r1, [sp, #8]
  51 0010 0391     		str	r1, [sp, #12]
  54:Middlewares/Third_Party/LwIP/system/OS/sys_arch.c ****   *mbox = osMessageCreate(osMessageQ(QUEUE), NULL);
  52              		.loc 1 54 3 is_stmt 1 view .LVU4
  53              		.loc 1 54 11 is_stmt 0 view .LVU5
  54 0012 6846     		mov	r0, sp
  55              	.LVL2:
  56              		.loc 1 54 11 view .LVU6
  57 0014 FFF7FEFF 		bl	osMessageCreate
  58              	.LVL3:
  59              		.loc 1 54 9 view .LVU7
  60 0018 2060     		str	r0, [r4]
  55:Middlewares/Third_Party/LwIP/system/OS/sys_arch.c **** #else
ARM GAS  C:\Users\zdy\AppData\Local\Temp\cceX250h.s 			page 3


  56:Middlewares/Third_Party/LwIP/system/OS/sys_arch.c ****   *mbox = osMessageQueueNew(size, sizeof(void *), NULL);
  57:Middlewares/Third_Party/LwIP/system/OS/sys_arch.c **** #endif
  58:Middlewares/Third_Party/LwIP/system/OS/sys_arch.c **** #if SYS_STATS
  59:Middlewares/Third_Party/LwIP/system/OS/sys_arch.c ****   ++lwip_stats.sys.mbox.used;
  60:Middlewares/Third_Party/LwIP/system/OS/sys_arch.c ****   if(lwip_stats.sys.mbox.max < lwip_stats.sys.mbox.used)
  61:Middlewares/Third_Party/LwIP/system/OS/sys_arch.c ****   {
  62:Middlewares/Third_Party/LwIP/system/OS/sys_arch.c ****     lwip_stats.sys.mbox.max = lwip_stats.sys.mbox.used;
  63:Middlewares/Third_Party/LwIP/system/OS/sys_arch.c ****   }
  64:Middlewares/Third_Party/LwIP/system/OS/sys_arch.c **** #endif /* SYS_STATS */
  65:Middlewares/Third_Party/LwIP/system/OS/sys_arch.c ****   if(*mbox == NULL)
  61              		.loc 1 65 3 is_stmt 1 view .LVU8
  62              		.loc 1 65 5 is_stmt 0 view .LVU9
  63 001a 10B1     		cbz	r0, .L3
  66:Middlewares/Third_Party/LwIP/system/OS/sys_arch.c ****     return ERR_MEM;
  67:Middlewares/Third_Party/LwIP/system/OS/sys_arch.c **** 
  68:Middlewares/Third_Party/LwIP/system/OS/sys_arch.c ****   return ERR_OK;
  64              		.loc 1 68 10 view .LVU10
  65 001c 0020     		movs	r0, #0
  66              	.L2:
  69:Middlewares/Third_Party/LwIP/system/OS/sys_arch.c **** }
  67              		.loc 1 69 1 view .LVU11
  68 001e 04B0     		add	sp, sp, #16
  69              	.LCFI2:
  70              		.cfi_remember_state
  71              		.cfi_def_cfa_offset 8
  72              		@ sp needed
  73 0020 10BD     		pop	{r4, pc}
  74              	.LVL4:
  75              	.L3:
  76              	.LCFI3:
  77              		.cfi_restore_state
  66:Middlewares/Third_Party/LwIP/system/OS/sys_arch.c ****     return ERR_MEM;
  78              		.loc 1 66 12 view .LVU12
  79 0022 4FF0FF30 		mov	r0, #-1
  80 0026 FAE7     		b	.L2
  81              		.cfi_endproc
  82              	.LFE364:
  84              		.section	.text.sys_mbox_free,"ax",%progbits
  85              		.align	1
  86              		.global	sys_mbox_free
  87              		.syntax unified
  88              		.thumb
  89              		.thumb_func
  91              	sys_mbox_free:
  92              	.LVL5:
  93              	.LFB365:
  70:Middlewares/Third_Party/LwIP/system/OS/sys_arch.c **** 
  71:Middlewares/Third_Party/LwIP/system/OS/sys_arch.c **** /*-----------------------------------------------------------------------------------*/
  72:Middlewares/Third_Party/LwIP/system/OS/sys_arch.c **** /*
  73:Middlewares/Third_Party/LwIP/system/OS/sys_arch.c ****   Deallocates a mailbox. If there are messages still present in the
  74:Middlewares/Third_Party/LwIP/system/OS/sys_arch.c ****   mailbox when the mailbox is deallocated, it is an indication of a
  75:Middlewares/Third_Party/LwIP/system/OS/sys_arch.c ****   programming error in lwIP and the developer should be notified.
  76:Middlewares/Third_Party/LwIP/system/OS/sys_arch.c **** */
  77:Middlewares/Third_Party/LwIP/system/OS/sys_arch.c **** void sys_mbox_free(sys_mbox_t *mbox)
  78:Middlewares/Third_Party/LwIP/system/OS/sys_arch.c **** {
  94              		.loc 1 78 1 is_stmt 1 view -0
  95              		.cfi_startproc
ARM GAS  C:\Users\zdy\AppData\Local\Temp\cceX250h.s 			page 4


  96              		@ args = 0, pretend = 0, frame = 0
  97              		@ frame_needed = 0, uses_anonymous_args = 0
  98              		.loc 1 78 1 is_stmt 0 view .LVU14
  99 0000 10B5     		push	{r4, lr}
 100              	.LCFI4:
 101              		.cfi_def_cfa_offset 8
 102              		.cfi_offset 4, -8
 103              		.cfi_offset 14, -4
 104 0002 0446     		mov	r4, r0
  79:Middlewares/Third_Party/LwIP/system/OS/sys_arch.c **** #if (osCMSIS < 0x20000U)
  80:Middlewares/Third_Party/LwIP/system/OS/sys_arch.c ****   if(osMessageWaiting(*mbox))
 105              		.loc 1 80 3 is_stmt 1 view .LVU15
 106              		.loc 1 80 6 is_stmt 0 view .LVU16
 107 0004 0068     		ldr	r0, [r0]
 108              	.LVL6:
 109              		.loc 1 80 6 view .LVU17
 110 0006 FFF7FEFF 		bl	osMessageWaiting
 111              	.LVL7:
  81:Middlewares/Third_Party/LwIP/system/OS/sys_arch.c **** #else
  82:Middlewares/Third_Party/LwIP/system/OS/sys_arch.c ****   if(osMessageQueueGetCount(*mbox))
  83:Middlewares/Third_Party/LwIP/system/OS/sys_arch.c **** #endif
  84:Middlewares/Third_Party/LwIP/system/OS/sys_arch.c ****   {
  85:Middlewares/Third_Party/LwIP/system/OS/sys_arch.c ****     /* Line for breakpoint.  Should never break here! */
  86:Middlewares/Third_Party/LwIP/system/OS/sys_arch.c ****     portNOP();
 112              		.loc 1 86 14 is_stmt 1 view .LVU18
  87:Middlewares/Third_Party/LwIP/system/OS/sys_arch.c **** #if SYS_STATS
  88:Middlewares/Third_Party/LwIP/system/OS/sys_arch.c ****     lwip_stats.sys.mbox.err++;
  89:Middlewares/Third_Party/LwIP/system/OS/sys_arch.c **** #endif /* SYS_STATS */
  90:Middlewares/Third_Party/LwIP/system/OS/sys_arch.c **** 
  91:Middlewares/Third_Party/LwIP/system/OS/sys_arch.c ****   }
  92:Middlewares/Third_Party/LwIP/system/OS/sys_arch.c **** #if (osCMSIS < 0x20000U)
  93:Middlewares/Third_Party/LwIP/system/OS/sys_arch.c ****   osMessageDelete(*mbox);
 113              		.loc 1 93 3 view .LVU19
 114 000a 2068     		ldr	r0, [r4]
 115 000c FFF7FEFF 		bl	osMessageDelete
 116              	.LVL8:
  94:Middlewares/Third_Party/LwIP/system/OS/sys_arch.c **** #else
  95:Middlewares/Third_Party/LwIP/system/OS/sys_arch.c ****   osMessageQueueDelete(*mbox);
  96:Middlewares/Third_Party/LwIP/system/OS/sys_arch.c **** #endif
  97:Middlewares/Third_Party/LwIP/system/OS/sys_arch.c **** #if SYS_STATS
  98:Middlewares/Third_Party/LwIP/system/OS/sys_arch.c ****   --lwip_stats.sys.mbox.used;
  99:Middlewares/Third_Party/LwIP/system/OS/sys_arch.c **** #endif /* SYS_STATS */
 100:Middlewares/Third_Party/LwIP/system/OS/sys_arch.c **** }
 117              		.loc 1 100 1 is_stmt 0 view .LVU20
 118 0010 10BD     		pop	{r4, pc}
 119              		.loc 1 100 1 view .LVU21
 120              		.cfi_endproc
 121              	.LFE365:
 123              		.section	.text.sys_mbox_post,"ax",%progbits
 124              		.align	1
 125              		.global	sys_mbox_post
 126              		.syntax unified
 127              		.thumb
 128              		.thumb_func
 130              	sys_mbox_post:
 131              	.LVL9:
 132              	.LFB366:
ARM GAS  C:\Users\zdy\AppData\Local\Temp\cceX250h.s 			page 5


 101:Middlewares/Third_Party/LwIP/system/OS/sys_arch.c **** 
 102:Middlewares/Third_Party/LwIP/system/OS/sys_arch.c **** /*-----------------------------------------------------------------------------------*/
 103:Middlewares/Third_Party/LwIP/system/OS/sys_arch.c **** //   Posts the "msg" to the mailbox.
 104:Middlewares/Third_Party/LwIP/system/OS/sys_arch.c **** void sys_mbox_post(sys_mbox_t *mbox, void *data)
 105:Middlewares/Third_Party/LwIP/system/OS/sys_arch.c **** {
 133              		.loc 1 105 1 is_stmt 1 view -0
 134              		.cfi_startproc
 135              		@ args = 0, pretend = 0, frame = 0
 136              		@ frame_needed = 0, uses_anonymous_args = 0
 137              		.loc 1 105 1 is_stmt 0 view .LVU23
 138 0000 38B5     		push	{r3, r4, r5, lr}
 139              	.LCFI5:
 140              		.cfi_def_cfa_offset 16
 141              		.cfi_offset 3, -16
 142              		.cfi_offset 4, -12
 143              		.cfi_offset 5, -8
 144              		.cfi_offset 14, -4
 145 0002 0546     		mov	r5, r0
 146 0004 0C46     		mov	r4, r1
 106:Middlewares/Third_Party/LwIP/system/OS/sys_arch.c **** #if (osCMSIS < 0x20000U)
 107:Middlewares/Third_Party/LwIP/system/OS/sys_arch.c ****   while(osMessagePut(*mbox, (uint32_t)data, osWaitForever) != osOK);
 147              		.loc 1 107 3 is_stmt 1 view .LVU24
 148              	.LVL10:
 149              	.L8:
 150              		.loc 1 107 68 discriminator 1 view .LVU25
 151              		.loc 1 107 8 discriminator 1 view .LVU26
 152              		.loc 1 107 9 is_stmt 0 discriminator 1 view .LVU27
 153 0006 4FF0FF32 		mov	r2, #-1
 154 000a 2146     		mov	r1, r4
 155 000c 2868     		ldr	r0, [r5]
 156 000e FFF7FEFF 		bl	osMessagePut
 157              	.LVL11:
 158              		.loc 1 107 8 discriminator 1 view .LVU28
 159 0012 0028     		cmp	r0, #0
 160 0014 F7D1     		bne	.L8
 108:Middlewares/Third_Party/LwIP/system/OS/sys_arch.c **** #else
 109:Middlewares/Third_Party/LwIP/system/OS/sys_arch.c ****   while(osMessageQueuePut(*mbox, &data, 0, osWaitForever) != osOK);
 110:Middlewares/Third_Party/LwIP/system/OS/sys_arch.c **** #endif
 111:Middlewares/Third_Party/LwIP/system/OS/sys_arch.c **** }
 161              		.loc 1 111 1 view .LVU29
 162 0016 38BD     		pop	{r3, r4, r5, pc}
 163              		.loc 1 111 1 view .LVU30
 164              		.cfi_endproc
 165              	.LFE366:
 167              		.section	.text.sys_mbox_trypost,"ax",%progbits
 168              		.align	1
 169              		.global	sys_mbox_trypost
 170              		.syntax unified
 171              		.thumb
 172              		.thumb_func
 174              	sys_mbox_trypost:
 175              	.LVL12:
 176              	.LFB367:
 112:Middlewares/Third_Party/LwIP/system/OS/sys_arch.c **** 
 113:Middlewares/Third_Party/LwIP/system/OS/sys_arch.c **** 
 114:Middlewares/Third_Party/LwIP/system/OS/sys_arch.c **** /*-----------------------------------------------------------------------------------*/
 115:Middlewares/Third_Party/LwIP/system/OS/sys_arch.c **** //   Try to post the "msg" to the mailbox.
ARM GAS  C:\Users\zdy\AppData\Local\Temp\cceX250h.s 			page 6


 116:Middlewares/Third_Party/LwIP/system/OS/sys_arch.c **** err_t sys_mbox_trypost(sys_mbox_t *mbox, void *msg)
 117:Middlewares/Third_Party/LwIP/system/OS/sys_arch.c **** {
 177              		.loc 1 117 1 is_stmt 1 view -0
 178              		.cfi_startproc
 179              		@ args = 0, pretend = 0, frame = 0
 180              		@ frame_needed = 0, uses_anonymous_args = 0
 181              		.loc 1 117 1 is_stmt 0 view .LVU32
 182 0000 08B5     		push	{r3, lr}
 183              	.LCFI6:
 184              		.cfi_def_cfa_offset 8
 185              		.cfi_offset 3, -8
 186              		.cfi_offset 14, -4
 118:Middlewares/Third_Party/LwIP/system/OS/sys_arch.c ****   err_t result;
 187              		.loc 1 118 3 is_stmt 1 view .LVU33
 119:Middlewares/Third_Party/LwIP/system/OS/sys_arch.c **** #if (osCMSIS < 0x20000U)
 120:Middlewares/Third_Party/LwIP/system/OS/sys_arch.c ****   if(osMessagePut(*mbox, (uint32_t)msg, 0) == osOK)
 188              		.loc 1 120 3 view .LVU34
 189              		.loc 1 120 6 is_stmt 0 view .LVU35
 190 0002 0022     		movs	r2, #0
 191 0004 0068     		ldr	r0, [r0]
 192              	.LVL13:
 193              		.loc 1 120 6 view .LVU36
 194 0006 FFF7FEFF 		bl	osMessagePut
 195              	.LVL14:
 196              		.loc 1 120 5 view .LVU37
 197 000a 00B9     		cbnz	r0, .L14
 198              	.L11:
 199              	.LVL15:
 121:Middlewares/Third_Party/LwIP/system/OS/sys_arch.c **** #else
 122:Middlewares/Third_Party/LwIP/system/OS/sys_arch.c ****   if(osMessageQueuePut(*mbox, &msg, 0, 0) == osOK)
 123:Middlewares/Third_Party/LwIP/system/OS/sys_arch.c **** #endif
 124:Middlewares/Third_Party/LwIP/system/OS/sys_arch.c ****   {
 125:Middlewares/Third_Party/LwIP/system/OS/sys_arch.c ****     result = ERR_OK;
 126:Middlewares/Third_Party/LwIP/system/OS/sys_arch.c ****   }
 127:Middlewares/Third_Party/LwIP/system/OS/sys_arch.c ****   else
 128:Middlewares/Third_Party/LwIP/system/OS/sys_arch.c ****   {
 129:Middlewares/Third_Party/LwIP/system/OS/sys_arch.c ****     // could not post, queue must be full
 130:Middlewares/Third_Party/LwIP/system/OS/sys_arch.c ****     result = ERR_MEM;
 131:Middlewares/Third_Party/LwIP/system/OS/sys_arch.c **** 
 132:Middlewares/Third_Party/LwIP/system/OS/sys_arch.c **** #if SYS_STATS
 133:Middlewares/Third_Party/LwIP/system/OS/sys_arch.c ****     lwip_stats.sys.mbox.err++;
 134:Middlewares/Third_Party/LwIP/system/OS/sys_arch.c **** #endif /* SYS_STATS */
 135:Middlewares/Third_Party/LwIP/system/OS/sys_arch.c ****   }
 136:Middlewares/Third_Party/LwIP/system/OS/sys_arch.c **** 
 137:Middlewares/Third_Party/LwIP/system/OS/sys_arch.c ****   return result;
 200              		.loc 1 137 3 is_stmt 1 view .LVU38
 138:Middlewares/Third_Party/LwIP/system/OS/sys_arch.c **** }
 201              		.loc 1 138 1 is_stmt 0 view .LVU39
 202 000c 08BD     		pop	{r3, pc}
 203              	.LVL16:
 204              	.L14:
 130:Middlewares/Third_Party/LwIP/system/OS/sys_arch.c **** 
 205              		.loc 1 130 12 view .LVU40
 206 000e 4FF0FF30 		mov	r0, #-1
 207 0012 FBE7     		b	.L11
 208              		.cfi_endproc
 209              	.LFE367:
ARM GAS  C:\Users\zdy\AppData\Local\Temp\cceX250h.s 			page 7


 211              		.section	.text.sys_mbox_trypost_fromisr,"ax",%progbits
 212              		.align	1
 213              		.global	sys_mbox_trypost_fromisr
 214              		.syntax unified
 215              		.thumb
 216              		.thumb_func
 218              	sys_mbox_trypost_fromisr:
 219              	.LVL17:
 220              	.LFB368:
 139:Middlewares/Third_Party/LwIP/system/OS/sys_arch.c **** 
 140:Middlewares/Third_Party/LwIP/system/OS/sys_arch.c **** 
 141:Middlewares/Third_Party/LwIP/system/OS/sys_arch.c **** /*-----------------------------------------------------------------------------------*/
 142:Middlewares/Third_Party/LwIP/system/OS/sys_arch.c **** //   Try to post the "msg" to the mailbox.
 143:Middlewares/Third_Party/LwIP/system/OS/sys_arch.c **** err_t sys_mbox_trypost_fromisr(sys_mbox_t *mbox, void *msg)
 144:Middlewares/Third_Party/LwIP/system/OS/sys_arch.c **** {
 221              		.loc 1 144 1 is_stmt 1 view -0
 222              		.cfi_startproc
 223              		@ args = 0, pretend = 0, frame = 0
 224              		@ frame_needed = 0, uses_anonymous_args = 0
 225              		.loc 1 144 1 is_stmt 0 view .LVU42
 226 0000 08B5     		push	{r3, lr}
 227              	.LCFI7:
 228              		.cfi_def_cfa_offset 8
 229              		.cfi_offset 3, -8
 230              		.cfi_offset 14, -4
 145:Middlewares/Third_Party/LwIP/system/OS/sys_arch.c ****   return sys_mbox_trypost(mbox, msg);
 231              		.loc 1 145 3 is_stmt 1 view .LVU43
 232              		.loc 1 145 10 is_stmt 0 view .LVU44
 233 0002 FFF7FEFF 		bl	sys_mbox_trypost
 234              	.LVL18:
 146:Middlewares/Third_Party/LwIP/system/OS/sys_arch.c **** }
 235              		.loc 1 146 1 view .LVU45
 236 0006 08BD     		pop	{r3, pc}
 237              		.cfi_endproc
 238              	.LFE368:
 240              		.section	.text.sys_arch_mbox_fetch,"ax",%progbits
 241              		.align	1
 242              		.global	sys_arch_mbox_fetch
 243              		.syntax unified
 244              		.thumb
 245              		.thumb_func
 247              	sys_arch_mbox_fetch:
 248              	.LVL19:
 249              	.LFB369:
 147:Middlewares/Third_Party/LwIP/system/OS/sys_arch.c **** 
 148:Middlewares/Third_Party/LwIP/system/OS/sys_arch.c **** /*-----------------------------------------------------------------------------------*/
 149:Middlewares/Third_Party/LwIP/system/OS/sys_arch.c **** /*
 150:Middlewares/Third_Party/LwIP/system/OS/sys_arch.c ****   Blocks the thread until a message arrives in the mailbox, but does
 151:Middlewares/Third_Party/LwIP/system/OS/sys_arch.c ****   not block the thread longer than "timeout" milliseconds (similar to
 152:Middlewares/Third_Party/LwIP/system/OS/sys_arch.c ****   the sys_arch_sem_wait() function). The "msg" argument is a result
 153:Middlewares/Third_Party/LwIP/system/OS/sys_arch.c ****   parameter that is set by the function (i.e., by doing "*msg =
 154:Middlewares/Third_Party/LwIP/system/OS/sys_arch.c ****   ptr"). The "msg" parameter maybe NULL to indicate that the message
 155:Middlewares/Third_Party/LwIP/system/OS/sys_arch.c ****   should be dropped.
 156:Middlewares/Third_Party/LwIP/system/OS/sys_arch.c **** 
 157:Middlewares/Third_Party/LwIP/system/OS/sys_arch.c ****   The return values are the same as for the sys_arch_sem_wait() function:
 158:Middlewares/Third_Party/LwIP/system/OS/sys_arch.c ****   Number of milliseconds spent waiting or SYS_ARCH_TIMEOUT if there was a
 159:Middlewares/Third_Party/LwIP/system/OS/sys_arch.c ****   timeout.
ARM GAS  C:\Users\zdy\AppData\Local\Temp\cceX250h.s 			page 8


 160:Middlewares/Third_Party/LwIP/system/OS/sys_arch.c **** 
 161:Middlewares/Third_Party/LwIP/system/OS/sys_arch.c ****   Note that a function with a similar name, sys_mbox_fetch(), is
 162:Middlewares/Third_Party/LwIP/system/OS/sys_arch.c ****   implemented by lwIP.
 163:Middlewares/Third_Party/LwIP/system/OS/sys_arch.c **** */
 164:Middlewares/Third_Party/LwIP/system/OS/sys_arch.c **** u32_t sys_arch_mbox_fetch(sys_mbox_t *mbox, void **msg, u32_t timeout)
 165:Middlewares/Third_Party/LwIP/system/OS/sys_arch.c **** {
 250              		.loc 1 165 1 is_stmt 1 view -0
 251              		.cfi_startproc
 252              		@ args = 0, pretend = 0, frame = 32
 253              		@ frame_needed = 0, uses_anonymous_args = 0
 254              		.loc 1 165 1 is_stmt 0 view .LVU47
 255 0000 F0B5     		push	{r4, r5, r6, r7, lr}
 256              	.LCFI8:
 257              		.cfi_def_cfa_offset 20
 258              		.cfi_offset 4, -20
 259              		.cfi_offset 5, -16
 260              		.cfi_offset 6, -12
 261              		.cfi_offset 7, -8
 262              		.cfi_offset 14, -4
 263 0002 89B0     		sub	sp, sp, #36
 264              	.LCFI9:
 265              		.cfi_def_cfa_offset 56
 266 0004 0546     		mov	r5, r0
 267 0006 0F46     		mov	r7, r1
 268 0008 1446     		mov	r4, r2
 166:Middlewares/Third_Party/LwIP/system/OS/sys_arch.c **** #if (osCMSIS < 0x20000U)
 167:Middlewares/Third_Party/LwIP/system/OS/sys_arch.c ****   osEvent event;
 269              		.loc 1 167 3 is_stmt 1 view .LVU48
 168:Middlewares/Third_Party/LwIP/system/OS/sys_arch.c ****   uint32_t starttime = osKernelSysTick();
 270              		.loc 1 168 3 view .LVU49
 271              		.loc 1 168 24 is_stmt 0 view .LVU50
 272 000a FFF7FEFF 		bl	osKernelSysTick
 273              	.LVL20:
 274              		.loc 1 168 24 view .LVU51
 275 000e 0646     		mov	r6, r0
 276              	.LVL21:
 169:Middlewares/Third_Party/LwIP/system/OS/sys_arch.c **** #else
 170:Middlewares/Third_Party/LwIP/system/OS/sys_arch.c ****   osStatus_t status;
 171:Middlewares/Third_Party/LwIP/system/OS/sys_arch.c ****   uint32_t starttime = osKernelGetTickCount();
 172:Middlewares/Third_Party/LwIP/system/OS/sys_arch.c **** #endif
 173:Middlewares/Third_Party/LwIP/system/OS/sys_arch.c ****   if(timeout != 0)
 277              		.loc 1 173 3 is_stmt 1 view .LVU52
 278              		.loc 1 173 5 is_stmt 0 view .LVU53
 279 0010 8CB1     		cbz	r4, .L18
 174:Middlewares/Third_Party/LwIP/system/OS/sys_arch.c ****   {
 175:Middlewares/Third_Party/LwIP/system/OS/sys_arch.c **** #if (osCMSIS < 0x20000U)
 176:Middlewares/Third_Party/LwIP/system/OS/sys_arch.c ****     event = osMessageGet (*mbox, timeout);
 280              		.loc 1 176 5 is_stmt 1 view .LVU54
 281              		.loc 1 176 13 is_stmt 0 view .LVU55
 282 0012 2246     		mov	r2, r4
 283 0014 2968     		ldr	r1, [r5]
 284 0016 05A8     		add	r0, sp, #20
 285              	.LVL22:
 286              		.loc 1 176 13 view .LVU56
 287 0018 FFF7FEFF 		bl	osMessageGet
 288              	.LVL23:
 177:Middlewares/Third_Party/LwIP/system/OS/sys_arch.c **** 
ARM GAS  C:\Users\zdy\AppData\Local\Temp\cceX250h.s 			page 9


 178:Middlewares/Third_Party/LwIP/system/OS/sys_arch.c ****     if(event.status == osEventMessage)
 289              		.loc 1 178 5 is_stmt 1 view .LVU57
 290              		.loc 1 178 13 is_stmt 0 view .LVU58
 291 001c 059B     		ldr	r3, [sp, #20]
 292              		.loc 1 178 7 view .LVU59
 293 001e 102B     		cmp	r3, #16
 294 0020 03D0     		beq	.L22
 179:Middlewares/Third_Party/LwIP/system/OS/sys_arch.c ****     {
 180:Middlewares/Third_Party/LwIP/system/OS/sys_arch.c ****       *msg = (void *)event.value.v;
 181:Middlewares/Third_Party/LwIP/system/OS/sys_arch.c ****       return (osKernelSysTick() - starttime);
 182:Middlewares/Third_Party/LwIP/system/OS/sys_arch.c ****     }
 183:Middlewares/Third_Party/LwIP/system/OS/sys_arch.c **** #else
 184:Middlewares/Third_Party/LwIP/system/OS/sys_arch.c ****     status = osMessageQueueGet(*mbox, msg, 0, timeout);
 185:Middlewares/Third_Party/LwIP/system/OS/sys_arch.c ****     if (status == osOK)
 186:Middlewares/Third_Party/LwIP/system/OS/sys_arch.c ****     {
 187:Middlewares/Third_Party/LwIP/system/OS/sys_arch.c ****       return (osKernelGetTickCount() - starttime);
 188:Middlewares/Third_Party/LwIP/system/OS/sys_arch.c ****     }
 189:Middlewares/Third_Party/LwIP/system/OS/sys_arch.c **** #endif
 190:Middlewares/Third_Party/LwIP/system/OS/sys_arch.c ****     else
 191:Middlewares/Third_Party/LwIP/system/OS/sys_arch.c ****     {
 192:Middlewares/Third_Party/LwIP/system/OS/sys_arch.c ****       return SYS_ARCH_TIMEOUT;
 295              		.loc 1 192 14 view .LVU60
 296 0022 4FF0FF30 		mov	r0, #-1
 297              	.LVL24:
 298              	.L17:
 193:Middlewares/Third_Party/LwIP/system/OS/sys_arch.c ****     }
 194:Middlewares/Third_Party/LwIP/system/OS/sys_arch.c ****   }
 195:Middlewares/Third_Party/LwIP/system/OS/sys_arch.c ****   else
 196:Middlewares/Third_Party/LwIP/system/OS/sys_arch.c ****   {
 197:Middlewares/Third_Party/LwIP/system/OS/sys_arch.c **** #if (osCMSIS < 0x20000U)
 198:Middlewares/Third_Party/LwIP/system/OS/sys_arch.c ****     event = osMessageGet (*mbox, osWaitForever);
 199:Middlewares/Third_Party/LwIP/system/OS/sys_arch.c ****     *msg = (void *)event.value.v;
 200:Middlewares/Third_Party/LwIP/system/OS/sys_arch.c ****     return (osKernelSysTick() - starttime);
 201:Middlewares/Third_Party/LwIP/system/OS/sys_arch.c **** #else
 202:Middlewares/Third_Party/LwIP/system/OS/sys_arch.c ****     osMessageQueueGet(*mbox, msg, 0, osWaitForever );
 203:Middlewares/Third_Party/LwIP/system/OS/sys_arch.c ****     return (osKernelGetTickCount() - starttime);
 204:Middlewares/Third_Party/LwIP/system/OS/sys_arch.c **** #endif
 205:Middlewares/Third_Party/LwIP/system/OS/sys_arch.c ****   }
 206:Middlewares/Third_Party/LwIP/system/OS/sys_arch.c **** }
 299              		.loc 1 206 1 view .LVU61
 300 0026 09B0     		add	sp, sp, #36
 301              	.LCFI10:
 302              		.cfi_remember_state
 303              		.cfi_def_cfa_offset 20
 304              		@ sp needed
 305 0028 F0BD     		pop	{r4, r5, r6, r7, pc}
 306              	.LVL25:
 307              	.L22:
 308              	.LCFI11:
 309              		.cfi_restore_state
 180:Middlewares/Third_Party/LwIP/system/OS/sys_arch.c ****       return (osKernelSysTick() - starttime);
 310              		.loc 1 180 7 is_stmt 1 view .LVU62
 180:Middlewares/Third_Party/LwIP/system/OS/sys_arch.c ****       return (osKernelSysTick() - starttime);
 311              		.loc 1 180 33 is_stmt 0 view .LVU63
 312 002a 069B     		ldr	r3, [sp, #24]
 180:Middlewares/Third_Party/LwIP/system/OS/sys_arch.c ****       return (osKernelSysTick() - starttime);
 313              		.loc 1 180 12 view .LVU64
ARM GAS  C:\Users\zdy\AppData\Local\Temp\cceX250h.s 			page 10


 314 002c 3B60     		str	r3, [r7]
 181:Middlewares/Third_Party/LwIP/system/OS/sys_arch.c ****     }
 315              		.loc 1 181 7 is_stmt 1 view .LVU65
 181:Middlewares/Third_Party/LwIP/system/OS/sys_arch.c ****     }
 316              		.loc 1 181 15 is_stmt 0 view .LVU66
 317 002e FFF7FEFF 		bl	osKernelSysTick
 318              	.LVL26:
 181:Middlewares/Third_Party/LwIP/system/OS/sys_arch.c ****     }
 319              		.loc 1 181 33 view .LVU67
 320 0032 801B     		subs	r0, r0, r6
 321 0034 F7E7     		b	.L17
 322              	.LVL27:
 323              	.L18:
 198:Middlewares/Third_Party/LwIP/system/OS/sys_arch.c ****     *msg = (void *)event.value.v;
 324              		.loc 1 198 5 is_stmt 1 view .LVU68
 198:Middlewares/Third_Party/LwIP/system/OS/sys_arch.c ****     *msg = (void *)event.value.v;
 325              		.loc 1 198 13 is_stmt 0 view .LVU69
 326 0036 6C46     		mov	r4, sp
 327              	.LVL28:
 198:Middlewares/Third_Party/LwIP/system/OS/sys_arch.c ****     *msg = (void *)event.value.v;
 328              		.loc 1 198 13 view .LVU70
 329 0038 4FF0FF32 		mov	r2, #-1
 330 003c 2968     		ldr	r1, [r5]
 331 003e 2046     		mov	r0, r4
 332              	.LVL29:
 198:Middlewares/Third_Party/LwIP/system/OS/sys_arch.c ****     *msg = (void *)event.value.v;
 333              		.loc 1 198 13 view .LVU71
 334 0040 FFF7FEFF 		bl	osMessageGet
 335              	.LVL30:
 336 0044 94E80700 		ldm	r4, {r0, r1, r2}
 337 0048 08AB     		add	r3, sp, #32
 338 004a 03E90700 		stmdb	r3, {r0, r1, r2}
 199:Middlewares/Third_Party/LwIP/system/OS/sys_arch.c ****     return (osKernelSysTick() - starttime);
 339              		.loc 1 199 5 is_stmt 1 view .LVU72
 199:Middlewares/Third_Party/LwIP/system/OS/sys_arch.c ****     return (osKernelSysTick() - starttime);
 340              		.loc 1 199 10 is_stmt 0 view .LVU73
 341 004e 3960     		str	r1, [r7]
 200:Middlewares/Third_Party/LwIP/system/OS/sys_arch.c **** #else
 342              		.loc 1 200 5 is_stmt 1 view .LVU74
 200:Middlewares/Third_Party/LwIP/system/OS/sys_arch.c **** #else
 343              		.loc 1 200 13 is_stmt 0 view .LVU75
 344 0050 FFF7FEFF 		bl	osKernelSysTick
 345              	.LVL31:
 200:Middlewares/Third_Party/LwIP/system/OS/sys_arch.c **** #else
 346              		.loc 1 200 31 view .LVU76
 347 0054 801B     		subs	r0, r0, r6
 348 0056 E6E7     		b	.L17
 349              		.cfi_endproc
 350              	.LFE369:
 352              		.section	.text.sys_arch_mbox_tryfetch,"ax",%progbits
 353              		.align	1
 354              		.global	sys_arch_mbox_tryfetch
 355              		.syntax unified
 356              		.thumb
 357              		.thumb_func
 359              	sys_arch_mbox_tryfetch:
 360              	.LVL32:
ARM GAS  C:\Users\zdy\AppData\Local\Temp\cceX250h.s 			page 11


 361              	.LFB370:
 207:Middlewares/Third_Party/LwIP/system/OS/sys_arch.c **** 
 208:Middlewares/Third_Party/LwIP/system/OS/sys_arch.c **** /*-----------------------------------------------------------------------------------*/
 209:Middlewares/Third_Party/LwIP/system/OS/sys_arch.c **** /*
 210:Middlewares/Third_Party/LwIP/system/OS/sys_arch.c ****   Similar to sys_arch_mbox_fetch, but if message is not ready immediately, we'll
 211:Middlewares/Third_Party/LwIP/system/OS/sys_arch.c ****   return with SYS_MBOX_EMPTY.  On success, 0 is returned.
 212:Middlewares/Third_Party/LwIP/system/OS/sys_arch.c **** */
 213:Middlewares/Third_Party/LwIP/system/OS/sys_arch.c **** u32_t sys_arch_mbox_tryfetch(sys_mbox_t *mbox, void **msg)
 214:Middlewares/Third_Party/LwIP/system/OS/sys_arch.c **** {
 362              		.loc 1 214 1 is_stmt 1 view -0
 363              		.cfi_startproc
 364              		@ args = 0, pretend = 0, frame = 16
 365              		@ frame_needed = 0, uses_anonymous_args = 0
 366              		.loc 1 214 1 is_stmt 0 view .LVU78
 367 0000 10B5     		push	{r4, lr}
 368              	.LCFI12:
 369              		.cfi_def_cfa_offset 8
 370              		.cfi_offset 4, -8
 371              		.cfi_offset 14, -4
 372 0002 84B0     		sub	sp, sp, #16
 373              	.LCFI13:
 374              		.cfi_def_cfa_offset 24
 375 0004 0C46     		mov	r4, r1
 215:Middlewares/Third_Party/LwIP/system/OS/sys_arch.c **** #if (osCMSIS < 0x20000U)
 216:Middlewares/Third_Party/LwIP/system/OS/sys_arch.c ****   osEvent event;
 376              		.loc 1 216 3 is_stmt 1 view .LVU79
 217:Middlewares/Third_Party/LwIP/system/OS/sys_arch.c **** 
 218:Middlewares/Third_Party/LwIP/system/OS/sys_arch.c ****   event = osMessageGet (*mbox, 0);
 377              		.loc 1 218 3 view .LVU80
 378              		.loc 1 218 11 is_stmt 0 view .LVU81
 379 0006 0022     		movs	r2, #0
 380 0008 0168     		ldr	r1, [r0]
 381              	.LVL33:
 382              		.loc 1 218 11 view .LVU82
 383 000a 01A8     		add	r0, sp, #4
 384              	.LVL34:
 385              		.loc 1 218 11 view .LVU83
 386 000c FFF7FEFF 		bl	osMessageGet
 387              	.LVL35:
 219:Middlewares/Third_Party/LwIP/system/OS/sys_arch.c **** 
 220:Middlewares/Third_Party/LwIP/system/OS/sys_arch.c ****   if(event.status == osEventMessage)
 388              		.loc 1 220 3 is_stmt 1 view .LVU84
 389              		.loc 1 220 11 is_stmt 0 view .LVU85
 390 0010 019B     		ldr	r3, [sp, #4]
 391              		.loc 1 220 5 view .LVU86
 392 0012 102B     		cmp	r3, #16
 393 0014 03D0     		beq	.L27
 221:Middlewares/Third_Party/LwIP/system/OS/sys_arch.c ****   {
 222:Middlewares/Third_Party/LwIP/system/OS/sys_arch.c ****     *msg = (void *)event.value.v;
 223:Middlewares/Third_Party/LwIP/system/OS/sys_arch.c **** #else
 224:Middlewares/Third_Party/LwIP/system/OS/sys_arch.c ****   if (osMessageQueueGet(*mbox, msg, 0, 0) == osOK)
 225:Middlewares/Third_Party/LwIP/system/OS/sys_arch.c ****   {
 226:Middlewares/Third_Party/LwIP/system/OS/sys_arch.c **** #endif
 227:Middlewares/Third_Party/LwIP/system/OS/sys_arch.c ****     return ERR_OK;
 228:Middlewares/Third_Party/LwIP/system/OS/sys_arch.c ****   }
 229:Middlewares/Third_Party/LwIP/system/OS/sys_arch.c ****   else
 230:Middlewares/Third_Party/LwIP/system/OS/sys_arch.c ****   {
ARM GAS  C:\Users\zdy\AppData\Local\Temp\cceX250h.s 			page 12


 231:Middlewares/Third_Party/LwIP/system/OS/sys_arch.c ****     return SYS_MBOX_EMPTY;
 394              		.loc 1 231 12 view .LVU87
 395 0016 4FF0FF30 		mov	r0, #-1
 396              	.L23:
 232:Middlewares/Third_Party/LwIP/system/OS/sys_arch.c ****   }
 233:Middlewares/Third_Party/LwIP/system/OS/sys_arch.c **** }
 397              		.loc 1 233 1 view .LVU88
 398 001a 04B0     		add	sp, sp, #16
 399              	.LCFI14:
 400              		.cfi_remember_state
 401              		.cfi_def_cfa_offset 8
 402              		@ sp needed
 403 001c 10BD     		pop	{r4, pc}
 404              	.LVL36:
 405              	.L27:
 406              	.LCFI15:
 407              		.cfi_restore_state
 222:Middlewares/Third_Party/LwIP/system/OS/sys_arch.c **** #else
 408              		.loc 1 222 5 is_stmt 1 view .LVU89
 222:Middlewares/Third_Party/LwIP/system/OS/sys_arch.c **** #else
 409              		.loc 1 222 31 is_stmt 0 view .LVU90
 410 001e 029B     		ldr	r3, [sp, #8]
 222:Middlewares/Third_Party/LwIP/system/OS/sys_arch.c **** #else
 411              		.loc 1 222 10 view .LVU91
 412 0020 2360     		str	r3, [r4]
 227:Middlewares/Third_Party/LwIP/system/OS/sys_arch.c ****   }
 413              		.loc 1 227 5 is_stmt 1 view .LVU92
 227:Middlewares/Third_Party/LwIP/system/OS/sys_arch.c ****   }
 414              		.loc 1 227 12 is_stmt 0 view .LVU93
 415 0022 0020     		movs	r0, #0
 416 0024 F9E7     		b	.L23
 417              		.cfi_endproc
 418              	.LFE370:
 420              		.section	.text.sys_mbox_valid,"ax",%progbits
 421              		.align	1
 422              		.global	sys_mbox_valid
 423              		.syntax unified
 424              		.thumb
 425              		.thumb_func
 427              	sys_mbox_valid:
 428              	.LVL37:
 429              	.LFB371:
 234:Middlewares/Third_Party/LwIP/system/OS/sys_arch.c **** /*----------------------------------------------------------------------------------*/
 235:Middlewares/Third_Party/LwIP/system/OS/sys_arch.c **** int sys_mbox_valid(sys_mbox_t *mbox)
 236:Middlewares/Third_Party/LwIP/system/OS/sys_arch.c **** {
 430              		.loc 1 236 1 is_stmt 1 view -0
 431              		.cfi_startproc
 432              		@ args = 0, pretend = 0, frame = 0
 433              		@ frame_needed = 0, uses_anonymous_args = 0
 434              		@ link register save eliminated.
 237:Middlewares/Third_Party/LwIP/system/OS/sys_arch.c ****   if (*mbox == SYS_MBOX_NULL)
 435              		.loc 1 237 3 view .LVU95
 436              		.loc 1 237 7 is_stmt 0 view .LVU96
 437 0000 0368     		ldr	r3, [r0]
 438              		.loc 1 237 6 view .LVU97
 439 0002 0BB1     		cbz	r3, .L31
 238:Middlewares/Third_Party/LwIP/system/OS/sys_arch.c ****     return 0;
ARM GAS  C:\Users\zdy\AppData\Local\Temp\cceX250h.s 			page 13


 239:Middlewares/Third_Party/LwIP/system/OS/sys_arch.c ****   else
 240:Middlewares/Third_Party/LwIP/system/OS/sys_arch.c ****     return 1;
 440              		.loc 1 240 12 view .LVU98
 441 0004 0120     		movs	r0, #1
 442              	.LVL38:
 241:Middlewares/Third_Party/LwIP/system/OS/sys_arch.c **** }
 443              		.loc 1 241 1 view .LVU99
 444 0006 7047     		bx	lr
 445              	.LVL39:
 446              	.L31:
 238:Middlewares/Third_Party/LwIP/system/OS/sys_arch.c ****     return 0;
 447              		.loc 1 238 12 view .LVU100
 448 0008 0020     		movs	r0, #0
 449              	.LVL40:
 238:Middlewares/Third_Party/LwIP/system/OS/sys_arch.c ****     return 0;
 450              		.loc 1 238 12 view .LVU101
 451 000a 7047     		bx	lr
 452              		.cfi_endproc
 453              	.LFE371:
 455              		.section	.text.sys_mbox_set_invalid,"ax",%progbits
 456              		.align	1
 457              		.global	sys_mbox_set_invalid
 458              		.syntax unified
 459              		.thumb
 460              		.thumb_func
 462              	sys_mbox_set_invalid:
 463              	.LVL41:
 464              	.LFB372:
 242:Middlewares/Third_Party/LwIP/system/OS/sys_arch.c **** /*-----------------------------------------------------------------------------------*/
 243:Middlewares/Third_Party/LwIP/system/OS/sys_arch.c **** void sys_mbox_set_invalid(sys_mbox_t *mbox)
 244:Middlewares/Third_Party/LwIP/system/OS/sys_arch.c **** {
 465              		.loc 1 244 1 is_stmt 1 view -0
 466              		.cfi_startproc
 467              		@ args = 0, pretend = 0, frame = 0
 468              		@ frame_needed = 0, uses_anonymous_args = 0
 469              		@ link register save eliminated.
 245:Middlewares/Third_Party/LwIP/system/OS/sys_arch.c ****   *mbox = SYS_MBOX_NULL;
 470              		.loc 1 245 3 view .LVU103
 471              		.loc 1 245 9 is_stmt 0 view .LVU104
 472 0000 0023     		movs	r3, #0
 473 0002 0360     		str	r3, [r0]
 246:Middlewares/Third_Party/LwIP/system/OS/sys_arch.c **** }
 474              		.loc 1 246 1 view .LVU105
 475 0004 7047     		bx	lr
 476              		.cfi_endproc
 477              	.LFE372:
 479              		.section	.text.sys_sem_new,"ax",%progbits
 480              		.align	1
 481              		.global	sys_sem_new
 482              		.syntax unified
 483              		.thumb
 484              		.thumb_func
 486              	sys_sem_new:
 487              	.LVL42:
 488              	.LFB373:
 247:Middlewares/Third_Party/LwIP/system/OS/sys_arch.c **** 
 248:Middlewares/Third_Party/LwIP/system/OS/sys_arch.c **** /*-----------------------------------------------------------------------------------*/
ARM GAS  C:\Users\zdy\AppData\Local\Temp\cceX250h.s 			page 14


 249:Middlewares/Third_Party/LwIP/system/OS/sys_arch.c **** //  Creates a new semaphore. The "count" argument specifies
 250:Middlewares/Third_Party/LwIP/system/OS/sys_arch.c **** //  the initial state of the semaphore.
 251:Middlewares/Third_Party/LwIP/system/OS/sys_arch.c **** err_t sys_sem_new(sys_sem_t *sem, u8_t count)
 252:Middlewares/Third_Party/LwIP/system/OS/sys_arch.c **** {
 489              		.loc 1 252 1 is_stmt 1 view -0
 490              		.cfi_startproc
 491              		@ args = 0, pretend = 0, frame = 8
 492              		@ frame_needed = 0, uses_anonymous_args = 0
 493              		.loc 1 252 1 is_stmt 0 view .LVU107
 494 0000 30B5     		push	{r4, r5, lr}
 495              	.LCFI16:
 496              		.cfi_def_cfa_offset 12
 497              		.cfi_offset 4, -12
 498              		.cfi_offset 5, -8
 499              		.cfi_offset 14, -4
 500 0002 83B0     		sub	sp, sp, #12
 501              	.LCFI17:
 502              		.cfi_def_cfa_offset 24
 503 0004 0446     		mov	r4, r0
 504 0006 0D46     		mov	r5, r1
 253:Middlewares/Third_Party/LwIP/system/OS/sys_arch.c **** #if (osCMSIS < 0x20000U)
 254:Middlewares/Third_Party/LwIP/system/OS/sys_arch.c ****   osSemaphoreDef(SEM);
 505              		.loc 1 254 3 is_stmt 1 view .LVU108
 506 0008 0023     		movs	r3, #0
 507 000a 0093     		str	r3, [sp]
 508 000c 0193     		str	r3, [sp, #4]
 255:Middlewares/Third_Party/LwIP/system/OS/sys_arch.c ****   *sem = osSemaphoreCreate (osSemaphore(SEM), 1);
 509              		.loc 1 255 3 view .LVU109
 510              		.loc 1 255 10 is_stmt 0 view .LVU110
 511 000e 0121     		movs	r1, #1
 512              	.LVL43:
 513              		.loc 1 255 10 view .LVU111
 514 0010 6846     		mov	r0, sp
 515              	.LVL44:
 516              		.loc 1 255 10 view .LVU112
 517 0012 FFF7FEFF 		bl	osSemaphoreCreate
 518              	.LVL45:
 519              		.loc 1 255 8 view .LVU113
 520 0016 2060     		str	r0, [r4]
 256:Middlewares/Third_Party/LwIP/system/OS/sys_arch.c **** #else
 257:Middlewares/Third_Party/LwIP/system/OS/sys_arch.c ****   *sem = osSemaphoreNew(UINT16_MAX, count, NULL);
 258:Middlewares/Third_Party/LwIP/system/OS/sys_arch.c **** #endif
 259:Middlewares/Third_Party/LwIP/system/OS/sys_arch.c **** 
 260:Middlewares/Third_Party/LwIP/system/OS/sys_arch.c ****   if(*sem == NULL)
 521              		.loc 1 260 3 is_stmt 1 view .LVU114
 522              		.loc 1 260 5 is_stmt 0 view .LVU115
 523 0018 40B1     		cbz	r0, .L35
 261:Middlewares/Third_Party/LwIP/system/OS/sys_arch.c ****   {
 262:Middlewares/Third_Party/LwIP/system/OS/sys_arch.c **** #if SYS_STATS
 263:Middlewares/Third_Party/LwIP/system/OS/sys_arch.c ****     ++lwip_stats.sys.sem.err;
 264:Middlewares/Third_Party/LwIP/system/OS/sys_arch.c **** #endif /* SYS_STATS */
 265:Middlewares/Third_Party/LwIP/system/OS/sys_arch.c ****     return ERR_MEM;
 266:Middlewares/Third_Party/LwIP/system/OS/sys_arch.c ****   }
 267:Middlewares/Third_Party/LwIP/system/OS/sys_arch.c **** 
 268:Middlewares/Third_Party/LwIP/system/OS/sys_arch.c ****   if(count == 0)	// Means it can't be taken
 524              		.loc 1 268 3 is_stmt 1 view .LVU116
 525              		.loc 1 268 5 is_stmt 0 view .LVU117
ARM GAS  C:\Users\zdy\AppData\Local\Temp\cceX250h.s 			page 15


 526 001a 15B1     		cbz	r5, .L38
 269:Middlewares/Third_Party/LwIP/system/OS/sys_arch.c ****   {
 270:Middlewares/Third_Party/LwIP/system/OS/sys_arch.c **** #if (osCMSIS < 0x20000U)
 271:Middlewares/Third_Party/LwIP/system/OS/sys_arch.c ****     osSemaphoreWait(*sem, 0);
 272:Middlewares/Third_Party/LwIP/system/OS/sys_arch.c **** #else
 273:Middlewares/Third_Party/LwIP/system/OS/sys_arch.c ****     osSemaphoreAcquire(*sem, 0);
 274:Middlewares/Third_Party/LwIP/system/OS/sys_arch.c **** #endif
 275:Middlewares/Third_Party/LwIP/system/OS/sys_arch.c ****   }
 276:Middlewares/Third_Party/LwIP/system/OS/sys_arch.c **** 
 277:Middlewares/Third_Party/LwIP/system/OS/sys_arch.c **** #if SYS_STATS
 278:Middlewares/Third_Party/LwIP/system/OS/sys_arch.c ****   ++lwip_stats.sys.sem.used;
 279:Middlewares/Third_Party/LwIP/system/OS/sys_arch.c ****   if (lwip_stats.sys.sem.max < lwip_stats.sys.sem.used) {
 280:Middlewares/Third_Party/LwIP/system/OS/sys_arch.c ****     lwip_stats.sys.sem.max = lwip_stats.sys.sem.used;
 281:Middlewares/Third_Party/LwIP/system/OS/sys_arch.c ****   }
 282:Middlewares/Third_Party/LwIP/system/OS/sys_arch.c **** #endif /* SYS_STATS */
 283:Middlewares/Third_Party/LwIP/system/OS/sys_arch.c **** 
 284:Middlewares/Third_Party/LwIP/system/OS/sys_arch.c ****   return ERR_OK;
 527              		.loc 1 284 10 view .LVU118
 528 001c 0020     		movs	r0, #0
 529              	.L34:
 285:Middlewares/Third_Party/LwIP/system/OS/sys_arch.c **** }
 530              		.loc 1 285 1 view .LVU119
 531 001e 03B0     		add	sp, sp, #12
 532              	.LCFI18:
 533              		.cfi_remember_state
 534              		.cfi_def_cfa_offset 12
 535              		@ sp needed
 536 0020 30BD     		pop	{r4, r5, pc}
 537              	.LVL46:
 538              	.L38:
 539              	.LCFI19:
 540              		.cfi_restore_state
 271:Middlewares/Third_Party/LwIP/system/OS/sys_arch.c **** #else
 541              		.loc 1 271 5 is_stmt 1 view .LVU120
 542 0022 0021     		movs	r1, #0
 543 0024 FFF7FEFF 		bl	osSemaphoreWait
 544              	.LVL47:
 284:Middlewares/Third_Party/LwIP/system/OS/sys_arch.c **** }
 545              		.loc 1 284 10 is_stmt 0 view .LVU121
 546 0028 0020     		movs	r0, #0
 547 002a F8E7     		b	.L34
 548              	.L35:
 265:Middlewares/Third_Party/LwIP/system/OS/sys_arch.c ****   }
 549              		.loc 1 265 12 view .LVU122
 550 002c 4FF0FF30 		mov	r0, #-1
 551 0030 F5E7     		b	.L34
 552              		.cfi_endproc
 553              	.LFE373:
 555              		.section	.text.sys_arch_sem_wait,"ax",%progbits
 556              		.align	1
 557              		.global	sys_arch_sem_wait
 558              		.syntax unified
 559              		.thumb
 560              		.thumb_func
 562              	sys_arch_sem_wait:
 563              	.LVL48:
 564              	.LFB374:
ARM GAS  C:\Users\zdy\AppData\Local\Temp\cceX250h.s 			page 16


 286:Middlewares/Third_Party/LwIP/system/OS/sys_arch.c **** 
 287:Middlewares/Third_Party/LwIP/system/OS/sys_arch.c **** /*-----------------------------------------------------------------------------------*/
 288:Middlewares/Third_Party/LwIP/system/OS/sys_arch.c **** /*
 289:Middlewares/Third_Party/LwIP/system/OS/sys_arch.c ****   Blocks the thread while waiting for the semaphore to be
 290:Middlewares/Third_Party/LwIP/system/OS/sys_arch.c ****   signaled. If the "timeout" argument is non-zero, the thread should
 291:Middlewares/Third_Party/LwIP/system/OS/sys_arch.c ****   only be blocked for the specified time (measured in
 292:Middlewares/Third_Party/LwIP/system/OS/sys_arch.c ****   milliseconds).
 293:Middlewares/Third_Party/LwIP/system/OS/sys_arch.c **** 
 294:Middlewares/Third_Party/LwIP/system/OS/sys_arch.c ****   If the timeout argument is non-zero, the return value is the number of
 295:Middlewares/Third_Party/LwIP/system/OS/sys_arch.c ****   milliseconds spent waiting for the semaphore to be signaled. If the
 296:Middlewares/Third_Party/LwIP/system/OS/sys_arch.c ****   semaphore wasn't signaled within the specified time, the return value is
 297:Middlewares/Third_Party/LwIP/system/OS/sys_arch.c ****   SYS_ARCH_TIMEOUT. If the thread didn't have to wait for the semaphore
 298:Middlewares/Third_Party/LwIP/system/OS/sys_arch.c ****   (i.e., it was already signaled), the function may return zero.
 299:Middlewares/Third_Party/LwIP/system/OS/sys_arch.c **** 
 300:Middlewares/Third_Party/LwIP/system/OS/sys_arch.c ****   Notice that lwIP implements a function with a similar name,
 301:Middlewares/Third_Party/LwIP/system/OS/sys_arch.c ****   sys_sem_wait(), that uses the sys_arch_sem_wait() function.
 302:Middlewares/Third_Party/LwIP/system/OS/sys_arch.c **** */
 303:Middlewares/Third_Party/LwIP/system/OS/sys_arch.c **** u32_t sys_arch_sem_wait(sys_sem_t *sem, u32_t timeout)
 304:Middlewares/Third_Party/LwIP/system/OS/sys_arch.c **** {
 565              		.loc 1 304 1 is_stmt 1 view -0
 566              		.cfi_startproc
 567              		@ args = 0, pretend = 0, frame = 0
 568              		@ frame_needed = 0, uses_anonymous_args = 0
 569              		.loc 1 304 1 is_stmt 0 view .LVU124
 570 0000 70B5     		push	{r4, r5, r6, lr}
 571              	.LCFI20:
 572              		.cfi_def_cfa_offset 16
 573              		.cfi_offset 4, -16
 574              		.cfi_offset 5, -12
 575              		.cfi_offset 6, -8
 576              		.cfi_offset 14, -4
 577 0002 0446     		mov	r4, r0
 578 0004 0E46     		mov	r6, r1
 305:Middlewares/Third_Party/LwIP/system/OS/sys_arch.c **** #if (osCMSIS < 0x20000U)
 306:Middlewares/Third_Party/LwIP/system/OS/sys_arch.c ****   uint32_t starttime = osKernelSysTick();
 579              		.loc 1 306 3 is_stmt 1 view .LVU125
 580              		.loc 1 306 24 is_stmt 0 view .LVU126
 581 0006 FFF7FEFF 		bl	osKernelSysTick
 582              	.LVL49:
 583              		.loc 1 306 24 view .LVU127
 584 000a 0546     		mov	r5, r0
 585              	.LVL50:
 307:Middlewares/Third_Party/LwIP/system/OS/sys_arch.c **** #else
 308:Middlewares/Third_Party/LwIP/system/OS/sys_arch.c ****   uint32_t starttime = osKernelGetTickCount();
 309:Middlewares/Third_Party/LwIP/system/OS/sys_arch.c **** #endif
 310:Middlewares/Third_Party/LwIP/system/OS/sys_arch.c ****   if(timeout != 0)
 586              		.loc 1 310 3 is_stmt 1 view .LVU128
 587              		.loc 1 310 5 is_stmt 0 view .LVU129
 588 000c 56B9     		cbnz	r6, .L44
 589              	.LVL51:
 590              	.L40:
 311:Middlewares/Third_Party/LwIP/system/OS/sys_arch.c ****   {
 312:Middlewares/Third_Party/LwIP/system/OS/sys_arch.c **** #if (osCMSIS < 0x20000U)
 313:Middlewares/Third_Party/LwIP/system/OS/sys_arch.c ****     if(osSemaphoreWait (*sem, timeout) == osOK)
 314:Middlewares/Third_Party/LwIP/system/OS/sys_arch.c ****     {
 315:Middlewares/Third_Party/LwIP/system/OS/sys_arch.c ****       return (osKernelSysTick() - starttime);
 316:Middlewares/Third_Party/LwIP/system/OS/sys_arch.c **** #else
ARM GAS  C:\Users\zdy\AppData\Local\Temp\cceX250h.s 			page 17


 317:Middlewares/Third_Party/LwIP/system/OS/sys_arch.c ****     if(osSemaphoreAcquire(*sem, timeout) == osOK)
 318:Middlewares/Third_Party/LwIP/system/OS/sys_arch.c ****     {
 319:Middlewares/Third_Party/LwIP/system/OS/sys_arch.c ****         return (osKernelGetTickCount() - starttime);
 320:Middlewares/Third_Party/LwIP/system/OS/sys_arch.c **** #endif
 321:Middlewares/Third_Party/LwIP/system/OS/sys_arch.c ****     }
 322:Middlewares/Third_Party/LwIP/system/OS/sys_arch.c ****     else
 323:Middlewares/Third_Party/LwIP/system/OS/sys_arch.c ****     {
 324:Middlewares/Third_Party/LwIP/system/OS/sys_arch.c ****       return SYS_ARCH_TIMEOUT;
 325:Middlewares/Third_Party/LwIP/system/OS/sys_arch.c ****     }
 326:Middlewares/Third_Party/LwIP/system/OS/sys_arch.c ****   }
 327:Middlewares/Third_Party/LwIP/system/OS/sys_arch.c ****   else
 328:Middlewares/Third_Party/LwIP/system/OS/sys_arch.c ****   {
 329:Middlewares/Third_Party/LwIP/system/OS/sys_arch.c **** #if (osCMSIS < 0x20000U)
 330:Middlewares/Third_Party/LwIP/system/OS/sys_arch.c ****     while(osSemaphoreWait (*sem, osWaitForever) != osOK);
 591              		.loc 1 330 57 is_stmt 1 discriminator 1 view .LVU130
 592              		.loc 1 330 10 discriminator 1 view .LVU131
 593              		.loc 1 330 11 is_stmt 0 discriminator 1 view .LVU132
 594 000e 4FF0FF31 		mov	r1, #-1
 595 0012 2068     		ldr	r0, [r4]
 596 0014 FFF7FEFF 		bl	osSemaphoreWait
 597              	.LVL52:
 598              		.loc 1 330 10 discriminator 1 view .LVU133
 599 0018 0028     		cmp	r0, #0
 600 001a F8D1     		bne	.L40
 331:Middlewares/Third_Party/LwIP/system/OS/sys_arch.c ****     return (osKernelSysTick() - starttime);
 601              		.loc 1 331 5 is_stmt 1 view .LVU134
 602              		.loc 1 331 13 is_stmt 0 view .LVU135
 603 001c FFF7FEFF 		bl	osKernelSysTick
 604              	.LVL53:
 605              		.loc 1 331 31 view .LVU136
 606 0020 401B     		subs	r0, r0, r5
 607              	.L39:
 332:Middlewares/Third_Party/LwIP/system/OS/sys_arch.c **** #else
 333:Middlewares/Third_Party/LwIP/system/OS/sys_arch.c ****     while(osSemaphoreAcquire(*sem, osWaitForever) != osOK);
 334:Middlewares/Third_Party/LwIP/system/OS/sys_arch.c ****     return (osKernelGetTickCount() - starttime);
 335:Middlewares/Third_Party/LwIP/system/OS/sys_arch.c **** #endif
 336:Middlewares/Third_Party/LwIP/system/OS/sys_arch.c ****   }
 337:Middlewares/Third_Party/LwIP/system/OS/sys_arch.c **** }
 608              		.loc 1 337 1 view .LVU137
 609 0022 70BD     		pop	{r4, r5, r6, pc}
 610              	.LVL54:
 611              	.L44:
 313:Middlewares/Third_Party/LwIP/system/OS/sys_arch.c ****     {
 612              		.loc 1 313 5 is_stmt 1 view .LVU138
 313:Middlewares/Third_Party/LwIP/system/OS/sys_arch.c ****     {
 613              		.loc 1 313 8 is_stmt 0 view .LVU139
 614 0024 3146     		mov	r1, r6
 615 0026 2068     		ldr	r0, [r4]
 616              	.LVL55:
 313:Middlewares/Third_Party/LwIP/system/OS/sys_arch.c ****     {
 617              		.loc 1 313 8 view .LVU140
 618 0028 FFF7FEFF 		bl	osSemaphoreWait
 619              	.LVL56:
 313:Middlewares/Third_Party/LwIP/system/OS/sys_arch.c ****     {
 620              		.loc 1 313 7 view .LVU141
 621 002c 10B1     		cbz	r0, .L45
 324:Middlewares/Third_Party/LwIP/system/OS/sys_arch.c ****     }
ARM GAS  C:\Users\zdy\AppData\Local\Temp\cceX250h.s 			page 18


 622              		.loc 1 324 14 view .LVU142
 623 002e 4FF0FF30 		mov	r0, #-1
 624 0032 F6E7     		b	.L39
 625              	.L45:
 315:Middlewares/Third_Party/LwIP/system/OS/sys_arch.c **** #else
 626              		.loc 1 315 7 is_stmt 1 view .LVU143
 315:Middlewares/Third_Party/LwIP/system/OS/sys_arch.c **** #else
 627              		.loc 1 315 15 is_stmt 0 view .LVU144
 628 0034 FFF7FEFF 		bl	osKernelSysTick
 629              	.LVL57:
 315:Middlewares/Third_Party/LwIP/system/OS/sys_arch.c **** #else
 630              		.loc 1 315 33 view .LVU145
 631 0038 401B     		subs	r0, r0, r5
 632 003a F2E7     		b	.L39
 633              		.cfi_endproc
 634              	.LFE374:
 636              		.section	.text.sys_sem_signal,"ax",%progbits
 637              		.align	1
 638              		.global	sys_sem_signal
 639              		.syntax unified
 640              		.thumb
 641              		.thumb_func
 643              	sys_sem_signal:
 644              	.LVL58:
 645              	.LFB375:
 338:Middlewares/Third_Party/LwIP/system/OS/sys_arch.c **** 
 339:Middlewares/Third_Party/LwIP/system/OS/sys_arch.c **** /*-----------------------------------------------------------------------------------*/
 340:Middlewares/Third_Party/LwIP/system/OS/sys_arch.c **** // Signals a semaphore
 341:Middlewares/Third_Party/LwIP/system/OS/sys_arch.c **** void sys_sem_signal(sys_sem_t *sem)
 342:Middlewares/Third_Party/LwIP/system/OS/sys_arch.c **** {
 646              		.loc 1 342 1 is_stmt 1 view -0
 647              		.cfi_startproc
 648              		@ args = 0, pretend = 0, frame = 0
 649              		@ frame_needed = 0, uses_anonymous_args = 0
 650              		.loc 1 342 1 is_stmt 0 view .LVU147
 651 0000 08B5     		push	{r3, lr}
 652              	.LCFI21:
 653              		.cfi_def_cfa_offset 8
 654              		.cfi_offset 3, -8
 655              		.cfi_offset 14, -4
 343:Middlewares/Third_Party/LwIP/system/OS/sys_arch.c ****   osSemaphoreRelease(*sem);
 656              		.loc 1 343 3 is_stmt 1 view .LVU148
 657 0002 0068     		ldr	r0, [r0]
 658              	.LVL59:
 659              		.loc 1 343 3 is_stmt 0 view .LVU149
 660 0004 FFF7FEFF 		bl	osSemaphoreRelease
 661              	.LVL60:
 344:Middlewares/Third_Party/LwIP/system/OS/sys_arch.c **** }
 662              		.loc 1 344 1 view .LVU150
 663 0008 08BD     		pop	{r3, pc}
 664              		.cfi_endproc
 665              	.LFE375:
 667              		.section	.text.sys_sem_free,"ax",%progbits
 668              		.align	1
 669              		.global	sys_sem_free
 670              		.syntax unified
 671              		.thumb
ARM GAS  C:\Users\zdy\AppData\Local\Temp\cceX250h.s 			page 19


 672              		.thumb_func
 674              	sys_sem_free:
 675              	.LVL61:
 676              	.LFB376:
 345:Middlewares/Third_Party/LwIP/system/OS/sys_arch.c **** 
 346:Middlewares/Third_Party/LwIP/system/OS/sys_arch.c **** /*-----------------------------------------------------------------------------------*/
 347:Middlewares/Third_Party/LwIP/system/OS/sys_arch.c **** // Deallocates a semaphore
 348:Middlewares/Third_Party/LwIP/system/OS/sys_arch.c **** void sys_sem_free(sys_sem_t *sem)
 349:Middlewares/Third_Party/LwIP/system/OS/sys_arch.c **** {
 677              		.loc 1 349 1 is_stmt 1 view -0
 678              		.cfi_startproc
 679              		@ args = 0, pretend = 0, frame = 0
 680              		@ frame_needed = 0, uses_anonymous_args = 0
 681              		.loc 1 349 1 is_stmt 0 view .LVU152
 682 0000 08B5     		push	{r3, lr}
 683              	.LCFI22:
 684              		.cfi_def_cfa_offset 8
 685              		.cfi_offset 3, -8
 686              		.cfi_offset 14, -4
 350:Middlewares/Third_Party/LwIP/system/OS/sys_arch.c **** #if SYS_STATS
 351:Middlewares/Third_Party/LwIP/system/OS/sys_arch.c ****   --lwip_stats.sys.sem.used;
 352:Middlewares/Third_Party/LwIP/system/OS/sys_arch.c **** #endif /* SYS_STATS */
 353:Middlewares/Third_Party/LwIP/system/OS/sys_arch.c **** 
 354:Middlewares/Third_Party/LwIP/system/OS/sys_arch.c ****   osSemaphoreDelete(*sem);
 687              		.loc 1 354 3 is_stmt 1 view .LVU153
 688 0002 0068     		ldr	r0, [r0]
 689              	.LVL62:
 690              		.loc 1 354 3 is_stmt 0 view .LVU154
 691 0004 FFF7FEFF 		bl	osSemaphoreDelete
 692              	.LVL63:
 355:Middlewares/Third_Party/LwIP/system/OS/sys_arch.c **** }
 693              		.loc 1 355 1 view .LVU155
 694 0008 08BD     		pop	{r3, pc}
 695              		.cfi_endproc
 696              	.LFE376:
 698              		.section	.text.sys_sem_valid,"ax",%progbits
 699              		.align	1
 700              		.global	sys_sem_valid
 701              		.syntax unified
 702              		.thumb
 703              		.thumb_func
 705              	sys_sem_valid:
 706              	.LVL64:
 707              	.LFB377:
 356:Middlewares/Third_Party/LwIP/system/OS/sys_arch.c **** /*-----------------------------------------------------------------------------------*/
 357:Middlewares/Third_Party/LwIP/system/OS/sys_arch.c **** int sys_sem_valid(sys_sem_t *sem)
 358:Middlewares/Third_Party/LwIP/system/OS/sys_arch.c **** {
 708              		.loc 1 358 1 is_stmt 1 view -0
 709              		.cfi_startproc
 710              		@ args = 0, pretend = 0, frame = 0
 711              		@ frame_needed = 0, uses_anonymous_args = 0
 712              		@ link register save eliminated.
 359:Middlewares/Third_Party/LwIP/system/OS/sys_arch.c ****   if (*sem == SYS_SEM_NULL)
 713              		.loc 1 359 3 view .LVU157
 714              		.loc 1 359 7 is_stmt 0 view .LVU158
 715 0000 0368     		ldr	r3, [r0]
 716              		.loc 1 359 6 view .LVU159
ARM GAS  C:\Users\zdy\AppData\Local\Temp\cceX250h.s 			page 20


 717 0002 0BB1     		cbz	r3, .L53
 360:Middlewares/Third_Party/LwIP/system/OS/sys_arch.c ****     return 0;
 361:Middlewares/Third_Party/LwIP/system/OS/sys_arch.c ****   else
 362:Middlewares/Third_Party/LwIP/system/OS/sys_arch.c ****     return 1;
 718              		.loc 1 362 12 view .LVU160
 719 0004 0120     		movs	r0, #1
 720              	.LVL65:
 363:Middlewares/Third_Party/LwIP/system/OS/sys_arch.c **** }
 721              		.loc 1 363 1 view .LVU161
 722 0006 7047     		bx	lr
 723              	.LVL66:
 724              	.L53:
 360:Middlewares/Third_Party/LwIP/system/OS/sys_arch.c ****     return 0;
 725              		.loc 1 360 12 view .LVU162
 726 0008 0020     		movs	r0, #0
 727              	.LVL67:
 360:Middlewares/Third_Party/LwIP/system/OS/sys_arch.c ****     return 0;
 728              		.loc 1 360 12 view .LVU163
 729 000a 7047     		bx	lr
 730              		.cfi_endproc
 731              	.LFE377:
 733              		.section	.text.sys_sem_set_invalid,"ax",%progbits
 734              		.align	1
 735              		.global	sys_sem_set_invalid
 736              		.syntax unified
 737              		.thumb
 738              		.thumb_func
 740              	sys_sem_set_invalid:
 741              	.LVL68:
 742              	.LFB378:
 364:Middlewares/Third_Party/LwIP/system/OS/sys_arch.c **** 
 365:Middlewares/Third_Party/LwIP/system/OS/sys_arch.c **** /*-----------------------------------------------------------------------------------*/
 366:Middlewares/Third_Party/LwIP/system/OS/sys_arch.c **** void sys_sem_set_invalid(sys_sem_t *sem)
 367:Middlewares/Third_Party/LwIP/system/OS/sys_arch.c **** {
 743              		.loc 1 367 1 is_stmt 1 view -0
 744              		.cfi_startproc
 745              		@ args = 0, pretend = 0, frame = 0
 746              		@ frame_needed = 0, uses_anonymous_args = 0
 747              		@ link register save eliminated.
 368:Middlewares/Third_Party/LwIP/system/OS/sys_arch.c ****   *sem = SYS_SEM_NULL;
 748              		.loc 1 368 3 view .LVU165
 749              		.loc 1 368 8 is_stmt 0 view .LVU166
 750 0000 0023     		movs	r3, #0
 751 0002 0360     		str	r3, [r0]
 369:Middlewares/Third_Party/LwIP/system/OS/sys_arch.c **** }
 752              		.loc 1 369 1 view .LVU167
 753 0004 7047     		bx	lr
 754              		.cfi_endproc
 755              	.LFE378:
 757              		.section	.text.sys_init,"ax",%progbits
 758              		.align	1
 759              		.global	sys_init
 760              		.syntax unified
 761              		.thumb
 762              		.thumb_func
 764              	sys_init:
 765              	.LFB379:
ARM GAS  C:\Users\zdy\AppData\Local\Temp\cceX250h.s 			page 21


 370:Middlewares/Third_Party/LwIP/system/OS/sys_arch.c **** 
 371:Middlewares/Third_Party/LwIP/system/OS/sys_arch.c **** /*-----------------------------------------------------------------------------------*/
 372:Middlewares/Third_Party/LwIP/system/OS/sys_arch.c **** #if (osCMSIS < 0x20000U)
 373:Middlewares/Third_Party/LwIP/system/OS/sys_arch.c **** osMutexId lwip_sys_mutex;
 374:Middlewares/Third_Party/LwIP/system/OS/sys_arch.c **** osMutexDef(lwip_sys_mutex);
 375:Middlewares/Third_Party/LwIP/system/OS/sys_arch.c **** #else
 376:Middlewares/Third_Party/LwIP/system/OS/sys_arch.c **** osMutexId_t lwip_sys_mutex;
 377:Middlewares/Third_Party/LwIP/system/OS/sys_arch.c **** #endif
 378:Middlewares/Third_Party/LwIP/system/OS/sys_arch.c **** // Initialize sys arch
 379:Middlewares/Third_Party/LwIP/system/OS/sys_arch.c **** void sys_init(void)
 380:Middlewares/Third_Party/LwIP/system/OS/sys_arch.c **** {
 766              		.loc 1 380 1 is_stmt 1 view -0
 767              		.cfi_startproc
 768              		@ args = 0, pretend = 0, frame = 0
 769              		@ frame_needed = 0, uses_anonymous_args = 0
 770 0000 08B5     		push	{r3, lr}
 771              	.LCFI23:
 772              		.cfi_def_cfa_offset 8
 773              		.cfi_offset 3, -8
 774              		.cfi_offset 14, -4
 381:Middlewares/Third_Party/LwIP/system/OS/sys_arch.c **** #if (osCMSIS < 0x20000U)
 382:Middlewares/Third_Party/LwIP/system/OS/sys_arch.c ****   lwip_sys_mutex = osMutexCreate(osMutex(lwip_sys_mutex));
 775              		.loc 1 382 3 view .LVU169
 776              		.loc 1 382 20 is_stmt 0 view .LVU170
 777 0002 0348     		ldr	r0, .L57
 778 0004 FFF7FEFF 		bl	osMutexCreate
 779              	.LVL69:
 780              		.loc 1 382 18 view .LVU171
 781 0008 024B     		ldr	r3, .L57+4
 782 000a 1860     		str	r0, [r3]
 383:Middlewares/Third_Party/LwIP/system/OS/sys_arch.c **** #else
 384:Middlewares/Third_Party/LwIP/system/OS/sys_arch.c ****   lwip_sys_mutex = osMutexNew(NULL);
 385:Middlewares/Third_Party/LwIP/system/OS/sys_arch.c **** #endif
 386:Middlewares/Third_Party/LwIP/system/OS/sys_arch.c **** }
 783              		.loc 1 386 1 view .LVU172
 784 000c 08BD     		pop	{r3, pc}
 785              	.L58:
 786 000e 00BF     		.align	2
 787              	.L57:
 788 0010 00000000 		.word	.LANCHOR0
 789 0014 00000000 		.word	.LANCHOR1
 790              		.cfi_endproc
 791              	.LFE379:
 793              		.section	.text.sys_mutex_new,"ax",%progbits
 794              		.align	1
 795              		.global	sys_mutex_new
 796              		.syntax unified
 797              		.thumb
 798              		.thumb_func
 800              	sys_mutex_new:
 801              	.LVL70:
 802              	.LFB380:
 387:Middlewares/Third_Party/LwIP/system/OS/sys_arch.c **** /*-----------------------------------------------------------------------------------*/
 388:Middlewares/Third_Party/LwIP/system/OS/sys_arch.c ****                                       /* Mutexes*/
 389:Middlewares/Third_Party/LwIP/system/OS/sys_arch.c **** /*-----------------------------------------------------------------------------------*/
 390:Middlewares/Third_Party/LwIP/system/OS/sys_arch.c **** /*-----------------------------------------------------------------------------------*/
 391:Middlewares/Third_Party/LwIP/system/OS/sys_arch.c **** #if LWIP_COMPAT_MUTEX == 0
ARM GAS  C:\Users\zdy\AppData\Local\Temp\cceX250h.s 			page 22


 392:Middlewares/Third_Party/LwIP/system/OS/sys_arch.c **** /* Create a new mutex*/
 393:Middlewares/Third_Party/LwIP/system/OS/sys_arch.c **** err_t sys_mutex_new(sys_mutex_t *mutex) {
 803              		.loc 1 393 41 is_stmt 1 view -0
 804              		.cfi_startproc
 805              		@ args = 0, pretend = 0, frame = 8
 806              		@ frame_needed = 0, uses_anonymous_args = 0
 807              		.loc 1 393 41 is_stmt 0 view .LVU174
 808 0000 10B5     		push	{r4, lr}
 809              	.LCFI24:
 810              		.cfi_def_cfa_offset 8
 811              		.cfi_offset 4, -8
 812              		.cfi_offset 14, -4
 813 0002 82B0     		sub	sp, sp, #8
 814              	.LCFI25:
 815              		.cfi_def_cfa_offset 16
 816 0004 0446     		mov	r4, r0
 394:Middlewares/Third_Party/LwIP/system/OS/sys_arch.c **** 
 395:Middlewares/Third_Party/LwIP/system/OS/sys_arch.c **** #if (osCMSIS < 0x20000U)
 396:Middlewares/Third_Party/LwIP/system/OS/sys_arch.c ****   osMutexDef(MUTEX);
 817              		.loc 1 396 3 is_stmt 1 view .LVU175
 818 0006 0023     		movs	r3, #0
 819 0008 0093     		str	r3, [sp]
 820 000a 0193     		str	r3, [sp, #4]
 397:Middlewares/Third_Party/LwIP/system/OS/sys_arch.c ****   *mutex = osMutexCreate(osMutex(MUTEX));
 821              		.loc 1 397 3 view .LVU176
 822              		.loc 1 397 12 is_stmt 0 view .LVU177
 823 000c 6846     		mov	r0, sp
 824              	.LVL71:
 825              		.loc 1 397 12 view .LVU178
 826 000e FFF7FEFF 		bl	osMutexCreate
 827              	.LVL72:
 828              		.loc 1 397 10 view .LVU179
 829 0012 2060     		str	r0, [r4]
 398:Middlewares/Third_Party/LwIP/system/OS/sys_arch.c **** #else
 399:Middlewares/Third_Party/LwIP/system/OS/sys_arch.c ****   *mutex = osMutexNew(NULL);
 400:Middlewares/Third_Party/LwIP/system/OS/sys_arch.c **** #endif
 401:Middlewares/Third_Party/LwIP/system/OS/sys_arch.c **** 
 402:Middlewares/Third_Party/LwIP/system/OS/sys_arch.c ****   if(*mutex == NULL)
 830              		.loc 1 402 3 is_stmt 1 view .LVU180
 831              		.loc 1 402 5 is_stmt 0 view .LVU181
 832 0014 10B1     		cbz	r0, .L61
 403:Middlewares/Third_Party/LwIP/system/OS/sys_arch.c ****   {
 404:Middlewares/Third_Party/LwIP/system/OS/sys_arch.c **** #if SYS_STATS
 405:Middlewares/Third_Party/LwIP/system/OS/sys_arch.c ****     ++lwip_stats.sys.mutex.err;
 406:Middlewares/Third_Party/LwIP/system/OS/sys_arch.c **** #endif /* SYS_STATS */
 407:Middlewares/Third_Party/LwIP/system/OS/sys_arch.c ****     return ERR_MEM;
 408:Middlewares/Third_Party/LwIP/system/OS/sys_arch.c ****   }
 409:Middlewares/Third_Party/LwIP/system/OS/sys_arch.c **** 
 410:Middlewares/Third_Party/LwIP/system/OS/sys_arch.c **** #if SYS_STATS
 411:Middlewares/Third_Party/LwIP/system/OS/sys_arch.c ****   ++lwip_stats.sys.mutex.used;
 412:Middlewares/Third_Party/LwIP/system/OS/sys_arch.c ****   if (lwip_stats.sys.mutex.max < lwip_stats.sys.mutex.used) {
 413:Middlewares/Third_Party/LwIP/system/OS/sys_arch.c ****     lwip_stats.sys.mutex.max = lwip_stats.sys.mutex.used;
 414:Middlewares/Third_Party/LwIP/system/OS/sys_arch.c ****   }
 415:Middlewares/Third_Party/LwIP/system/OS/sys_arch.c **** #endif /* SYS_STATS */
 416:Middlewares/Third_Party/LwIP/system/OS/sys_arch.c ****   return ERR_OK;
 833              		.loc 1 416 10 view .LVU182
 834 0016 0020     		movs	r0, #0
ARM GAS  C:\Users\zdy\AppData\Local\Temp\cceX250h.s 			page 23


 835              	.L60:
 417:Middlewares/Third_Party/LwIP/system/OS/sys_arch.c **** }
 836              		.loc 1 417 1 view .LVU183
 837 0018 02B0     		add	sp, sp, #8
 838              	.LCFI26:
 839              		.cfi_remember_state
 840              		.cfi_def_cfa_offset 8
 841              		@ sp needed
 842 001a 10BD     		pop	{r4, pc}
 843              	.LVL73:
 844              	.L61:
 845              	.LCFI27:
 846              		.cfi_restore_state
 407:Middlewares/Third_Party/LwIP/system/OS/sys_arch.c ****   }
 847              		.loc 1 407 12 view .LVU184
 848 001c 4FF0FF30 		mov	r0, #-1
 849 0020 FAE7     		b	.L60
 850              		.cfi_endproc
 851              	.LFE380:
 853              		.section	.text.sys_mutex_free,"ax",%progbits
 854              		.align	1
 855              		.global	sys_mutex_free
 856              		.syntax unified
 857              		.thumb
 858              		.thumb_func
 860              	sys_mutex_free:
 861              	.LVL74:
 862              	.LFB381:
 418:Middlewares/Third_Party/LwIP/system/OS/sys_arch.c **** /*-----------------------------------------------------------------------------------*/
 419:Middlewares/Third_Party/LwIP/system/OS/sys_arch.c **** /* Deallocate a mutex*/
 420:Middlewares/Third_Party/LwIP/system/OS/sys_arch.c **** void sys_mutex_free(sys_mutex_t *mutex)
 421:Middlewares/Third_Party/LwIP/system/OS/sys_arch.c **** {
 863              		.loc 1 421 1 is_stmt 1 view -0
 864              		.cfi_startproc
 865              		@ args = 0, pretend = 0, frame = 0
 866              		@ frame_needed = 0, uses_anonymous_args = 0
 867              		.loc 1 421 1 is_stmt 0 view .LVU186
 868 0000 08B5     		push	{r3, lr}
 869              	.LCFI28:
 870              		.cfi_def_cfa_offset 8
 871              		.cfi_offset 3, -8
 872              		.cfi_offset 14, -4
 422:Middlewares/Third_Party/LwIP/system/OS/sys_arch.c **** #if SYS_STATS
 423:Middlewares/Third_Party/LwIP/system/OS/sys_arch.c ****       --lwip_stats.sys.mutex.used;
 424:Middlewares/Third_Party/LwIP/system/OS/sys_arch.c **** #endif /* SYS_STATS */
 425:Middlewares/Third_Party/LwIP/system/OS/sys_arch.c **** 
 426:Middlewares/Third_Party/LwIP/system/OS/sys_arch.c ****   osMutexDelete(*mutex);
 873              		.loc 1 426 3 is_stmt 1 view .LVU187
 874 0002 0068     		ldr	r0, [r0]
 875              	.LVL75:
 876              		.loc 1 426 3 is_stmt 0 view .LVU188
 877 0004 FFF7FEFF 		bl	osMutexDelete
 878              	.LVL76:
 427:Middlewares/Third_Party/LwIP/system/OS/sys_arch.c **** }
 879              		.loc 1 427 1 view .LVU189
 880 0008 08BD     		pop	{r3, pc}
 881              		.cfi_endproc
ARM GAS  C:\Users\zdy\AppData\Local\Temp\cceX250h.s 			page 24


 882              	.LFE381:
 884              		.section	.text.sys_mutex_lock,"ax",%progbits
 885              		.align	1
 886              		.global	sys_mutex_lock
 887              		.syntax unified
 888              		.thumb
 889              		.thumb_func
 891              	sys_mutex_lock:
 892              	.LVL77:
 893              	.LFB382:
 428:Middlewares/Third_Party/LwIP/system/OS/sys_arch.c **** /*-----------------------------------------------------------------------------------*/
 429:Middlewares/Third_Party/LwIP/system/OS/sys_arch.c **** /* Lock a mutex*/
 430:Middlewares/Third_Party/LwIP/system/OS/sys_arch.c **** void sys_mutex_lock(sys_mutex_t *mutex)
 431:Middlewares/Third_Party/LwIP/system/OS/sys_arch.c **** {
 894              		.loc 1 431 1 is_stmt 1 view -0
 895              		.cfi_startproc
 896              		@ args = 0, pretend = 0, frame = 0
 897              		@ frame_needed = 0, uses_anonymous_args = 0
 898              		.loc 1 431 1 is_stmt 0 view .LVU191
 899 0000 08B5     		push	{r3, lr}
 900              	.LCFI29:
 901              		.cfi_def_cfa_offset 8
 902              		.cfi_offset 3, -8
 903              		.cfi_offset 14, -4
 432:Middlewares/Third_Party/LwIP/system/OS/sys_arch.c **** #if (osCMSIS < 0x20000U)
 433:Middlewares/Third_Party/LwIP/system/OS/sys_arch.c ****   osMutexWait(*mutex, osWaitForever);
 904              		.loc 1 433 3 is_stmt 1 view .LVU192
 905 0002 4FF0FF31 		mov	r1, #-1
 906 0006 0068     		ldr	r0, [r0]
 907              	.LVL78:
 908              		.loc 1 433 3 is_stmt 0 view .LVU193
 909 0008 FFF7FEFF 		bl	osMutexWait
 910              	.LVL79:
 434:Middlewares/Third_Party/LwIP/system/OS/sys_arch.c **** #else
 435:Middlewares/Third_Party/LwIP/system/OS/sys_arch.c ****   osMutexAcquire(*mutex, osWaitForever);
 436:Middlewares/Third_Party/LwIP/system/OS/sys_arch.c **** #endif
 437:Middlewares/Third_Party/LwIP/system/OS/sys_arch.c **** }
 911              		.loc 1 437 1 view .LVU194
 912 000c 08BD     		pop	{r3, pc}
 913              		.cfi_endproc
 914              	.LFE382:
 916              		.section	.text.sys_mutex_unlock,"ax",%progbits
 917              		.align	1
 918              		.global	sys_mutex_unlock
 919              		.syntax unified
 920              		.thumb
 921              		.thumb_func
 923              	sys_mutex_unlock:
 924              	.LVL80:
 925              	.LFB383:
 438:Middlewares/Third_Party/LwIP/system/OS/sys_arch.c **** 
 439:Middlewares/Third_Party/LwIP/system/OS/sys_arch.c **** /*-----------------------------------------------------------------------------------*/
 440:Middlewares/Third_Party/LwIP/system/OS/sys_arch.c **** /* Unlock a mutex*/
 441:Middlewares/Third_Party/LwIP/system/OS/sys_arch.c **** void sys_mutex_unlock(sys_mutex_t *mutex)
 442:Middlewares/Third_Party/LwIP/system/OS/sys_arch.c **** {
 926              		.loc 1 442 1 is_stmt 1 view -0
 927              		.cfi_startproc
ARM GAS  C:\Users\zdy\AppData\Local\Temp\cceX250h.s 			page 25


 928              		@ args = 0, pretend = 0, frame = 0
 929              		@ frame_needed = 0, uses_anonymous_args = 0
 930              		.loc 1 442 1 is_stmt 0 view .LVU196
 931 0000 08B5     		push	{r3, lr}
 932              	.LCFI30:
 933              		.cfi_def_cfa_offset 8
 934              		.cfi_offset 3, -8
 935              		.cfi_offset 14, -4
 443:Middlewares/Third_Party/LwIP/system/OS/sys_arch.c ****   osMutexRelease(*mutex);
 936              		.loc 1 443 3 is_stmt 1 view .LVU197
 937 0002 0068     		ldr	r0, [r0]
 938              	.LVL81:
 939              		.loc 1 443 3 is_stmt 0 view .LVU198
 940 0004 FFF7FEFF 		bl	osMutexRelease
 941              	.LVL82:
 444:Middlewares/Third_Party/LwIP/system/OS/sys_arch.c **** }
 942              		.loc 1 444 1 view .LVU199
 943 0008 08BD     		pop	{r3, pc}
 944              		.cfi_endproc
 945              	.LFE383:
 947              		.section	.text.sys_thread_new,"ax",%progbits
 948              		.align	1
 949              		.global	sys_thread_new
 950              		.syntax unified
 951              		.thumb
 952              		.thumb_func
 954              	sys_thread_new:
 955              	.LVL83:
 956              	.LFB384:
 445:Middlewares/Third_Party/LwIP/system/OS/sys_arch.c **** #endif /*LWIP_COMPAT_MUTEX*/
 446:Middlewares/Third_Party/LwIP/system/OS/sys_arch.c **** /*-----------------------------------------------------------------------------------*/
 447:Middlewares/Third_Party/LwIP/system/OS/sys_arch.c **** // TODO
 448:Middlewares/Third_Party/LwIP/system/OS/sys_arch.c **** /*-----------------------------------------------------------------------------------*/
 449:Middlewares/Third_Party/LwIP/system/OS/sys_arch.c **** /*
 450:Middlewares/Third_Party/LwIP/system/OS/sys_arch.c ****   Starts a new thread with priority "prio" that will begin its execution in the
 451:Middlewares/Third_Party/LwIP/system/OS/sys_arch.c ****   function "thread()". The "arg" argument will be passed as an argument to the
 452:Middlewares/Third_Party/LwIP/system/OS/sys_arch.c ****   thread() function. The id of the new thread is returned. Both the id and
 453:Middlewares/Third_Party/LwIP/system/OS/sys_arch.c ****   the priority are system dependent.
 454:Middlewares/Third_Party/LwIP/system/OS/sys_arch.c **** */
 455:Middlewares/Third_Party/LwIP/system/OS/sys_arch.c **** sys_thread_t sys_thread_new(const char *name, lwip_thread_fn thread , void *arg, int stacksize, int
 456:Middlewares/Third_Party/LwIP/system/OS/sys_arch.c **** {
 957              		.loc 1 456 1 is_stmt 1 view -0
 958              		.cfi_startproc
 959              		@ args = 4, pretend = 0, frame = 32
 960              		@ frame_needed = 0, uses_anonymous_args = 0
 961              		.loc 1 456 1 is_stmt 0 view .LVU201
 962 0000 10B5     		push	{r4, lr}
 963              	.LCFI31:
 964              		.cfi_def_cfa_offset 8
 965              		.cfi_offset 4, -8
 966              		.cfi_offset 14, -4
 967 0002 88B0     		sub	sp, sp, #32
 968              	.LCFI32:
 969              		.cfi_def_cfa_offset 40
 457:Middlewares/Third_Party/LwIP/system/OS/sys_arch.c **** #if (osCMSIS < 0x20000U)
 458:Middlewares/Third_Party/LwIP/system/OS/sys_arch.c ****   const osThreadDef_t os_thread_def = { (char *)name, (os_pthread)thread, (osPriority)prio, 0, stac
 970              		.loc 1 458 3 is_stmt 1 view .LVU202
ARM GAS  C:\Users\zdy\AppData\Local\Temp\cceX250h.s 			page 26


 971              		.loc 1 458 23 is_stmt 0 view .LVU203
 972 0004 0024     		movs	r4, #0
 973 0006 0194     		str	r4, [sp, #4]
 974 0008 0294     		str	r4, [sp, #8]
 975 000a 0394     		str	r4, [sp, #12]
 976 000c 0494     		str	r4, [sp, #16]
 977 000e 0594     		str	r4, [sp, #20]
 978 0010 0694     		str	r4, [sp, #24]
 979 0012 0794     		str	r4, [sp, #28]
 980 0014 0190     		str	r0, [sp, #4]
 981 0016 0291     		str	r1, [sp, #8]
 982              		.loc 1 458 75 view .LVU204
 983 0018 BDF92810 		ldrsh	r1, [sp, #40]
 984              	.LVL84:
 985              		.loc 1 458 23 view .LVU205
 986 001c ADF80C10 		strh	r1, [sp, #12]	@ movhi
 987 0020 0593     		str	r3, [sp, #20]
 459:Middlewares/Third_Party/LwIP/system/OS/sys_arch.c ****   return osThreadCreate(&os_thread_def, arg);
 988              		.loc 1 459 3 is_stmt 1 view .LVU206
 989              		.loc 1 459 10 is_stmt 0 view .LVU207
 990 0022 1146     		mov	r1, r2
 991 0024 01A8     		add	r0, sp, #4
 992              	.LVL85:
 993              		.loc 1 459 10 view .LVU208
 994 0026 FFF7FEFF 		bl	osThreadCreate
 995              	.LVL86:
 460:Middlewares/Third_Party/LwIP/system/OS/sys_arch.c **** #else
 461:Middlewares/Third_Party/LwIP/system/OS/sys_arch.c ****   const osThreadAttr_t attributes = {
 462:Middlewares/Third_Party/LwIP/system/OS/sys_arch.c ****                         .name = name,
 463:Middlewares/Third_Party/LwIP/system/OS/sys_arch.c ****                         .stack_size = stacksize,
 464:Middlewares/Third_Party/LwIP/system/OS/sys_arch.c ****                         .priority = (osPriority_t)prio,
 465:Middlewares/Third_Party/LwIP/system/OS/sys_arch.c ****                       };
 466:Middlewares/Third_Party/LwIP/system/OS/sys_arch.c ****   return osThreadNew(thread, arg, &attributes);
 467:Middlewares/Third_Party/LwIP/system/OS/sys_arch.c **** #endif
 468:Middlewares/Third_Party/LwIP/system/OS/sys_arch.c **** }
 996              		.loc 1 468 1 view .LVU209
 997 002a 08B0     		add	sp, sp, #32
 998              	.LCFI33:
 999              		.cfi_def_cfa_offset 8
 1000              		@ sp needed
 1001 002c 10BD     		pop	{r4, pc}
 1002              		.loc 1 468 1 view .LVU210
 1003              		.cfi_endproc
 1004              	.LFE384:
 1006              		.section	.text.sys_arch_protect,"ax",%progbits
 1007              		.align	1
 1008              		.global	sys_arch_protect
 1009              		.syntax unified
 1010              		.thumb
 1011              		.thumb_func
 1013              	sys_arch_protect:
 1014              	.LFB385:
 469:Middlewares/Third_Party/LwIP/system/OS/sys_arch.c **** 
 470:Middlewares/Third_Party/LwIP/system/OS/sys_arch.c **** /*
 471:Middlewares/Third_Party/LwIP/system/OS/sys_arch.c ****   This optional function does a "fast" critical region protection and returns
 472:Middlewares/Third_Party/LwIP/system/OS/sys_arch.c ****   the previous protection level. This function is only called during very short
 473:Middlewares/Third_Party/LwIP/system/OS/sys_arch.c ****   critical regions. An embedded system which supports ISR-based drivers might
ARM GAS  C:\Users\zdy\AppData\Local\Temp\cceX250h.s 			page 27


 474:Middlewares/Third_Party/LwIP/system/OS/sys_arch.c ****   want to implement this function by disabling interrupts. Task-based systems
 475:Middlewares/Third_Party/LwIP/system/OS/sys_arch.c ****   might want to implement this by using a mutex or disabling tasking. This
 476:Middlewares/Third_Party/LwIP/system/OS/sys_arch.c ****   function should support recursive calls from the same task or interrupt. In
 477:Middlewares/Third_Party/LwIP/system/OS/sys_arch.c ****   other words, sys_arch_protect() could be called while already protected. In
 478:Middlewares/Third_Party/LwIP/system/OS/sys_arch.c ****   that case the return value indicates that it is already protected.
 479:Middlewares/Third_Party/LwIP/system/OS/sys_arch.c **** 
 480:Middlewares/Third_Party/LwIP/system/OS/sys_arch.c ****   sys_arch_protect() is only required if your port is supporting an operating
 481:Middlewares/Third_Party/LwIP/system/OS/sys_arch.c ****   system.
 482:Middlewares/Third_Party/LwIP/system/OS/sys_arch.c **** 
 483:Middlewares/Third_Party/LwIP/system/OS/sys_arch.c ****   Note: This function is based on FreeRTOS API, because no equivalent CMSIS-RTOS
 484:Middlewares/Third_Party/LwIP/system/OS/sys_arch.c ****         API is available
 485:Middlewares/Third_Party/LwIP/system/OS/sys_arch.c **** */
 486:Middlewares/Third_Party/LwIP/system/OS/sys_arch.c **** sys_prot_t sys_arch_protect(void)
 487:Middlewares/Third_Party/LwIP/system/OS/sys_arch.c **** {
 1015              		.loc 1 487 1 is_stmt 1 view -0
 1016              		.cfi_startproc
 1017              		@ args = 0, pretend = 0, frame = 0
 1018              		@ frame_needed = 0, uses_anonymous_args = 0
 1019 0000 08B5     		push	{r3, lr}
 1020              	.LCFI34:
 1021              		.cfi_def_cfa_offset 8
 1022              		.cfi_offset 3, -8
 1023              		.cfi_offset 14, -4
 488:Middlewares/Third_Party/LwIP/system/OS/sys_arch.c **** #if (osCMSIS < 0x20000U)
 489:Middlewares/Third_Party/LwIP/system/OS/sys_arch.c ****   osMutexWait(lwip_sys_mutex, osWaitForever);
 1024              		.loc 1 489 3 view .LVU212
 1025 0002 4FF0FF31 		mov	r1, #-1
 1026 0006 034B     		ldr	r3, .L73
 1027 0008 1868     		ldr	r0, [r3]
 1028 000a FFF7FEFF 		bl	osMutexWait
 1029              	.LVL87:
 490:Middlewares/Third_Party/LwIP/system/OS/sys_arch.c **** #else
 491:Middlewares/Third_Party/LwIP/system/OS/sys_arch.c ****   osMutexAcquire(lwip_sys_mutex, osWaitForever);
 492:Middlewares/Third_Party/LwIP/system/OS/sys_arch.c **** #endif
 493:Middlewares/Third_Party/LwIP/system/OS/sys_arch.c ****   return (sys_prot_t)1;
 1030              		.loc 1 493 3 view .LVU213
 494:Middlewares/Third_Party/LwIP/system/OS/sys_arch.c **** }
 1031              		.loc 1 494 1 is_stmt 0 view .LVU214
 1032 000e 0120     		movs	r0, #1
 1033 0010 08BD     		pop	{r3, pc}
 1034              	.L74:
 1035 0012 00BF     		.align	2
 1036              	.L73:
 1037 0014 00000000 		.word	.LANCHOR1
 1038              		.cfi_endproc
 1039              	.LFE385:
 1041              		.section	.text.sys_arch_unprotect,"ax",%progbits
 1042              		.align	1
 1043              		.global	sys_arch_unprotect
 1044              		.syntax unified
 1045              		.thumb
 1046              		.thumb_func
 1048              	sys_arch_unprotect:
 1049              	.LVL88:
 1050              	.LFB386:
 495:Middlewares/Third_Party/LwIP/system/OS/sys_arch.c **** 
 496:Middlewares/Third_Party/LwIP/system/OS/sys_arch.c **** 
ARM GAS  C:\Users\zdy\AppData\Local\Temp\cceX250h.s 			page 28


 497:Middlewares/Third_Party/LwIP/system/OS/sys_arch.c **** /*
 498:Middlewares/Third_Party/LwIP/system/OS/sys_arch.c ****   This optional function does a "fast" set of critical region protection to the
 499:Middlewares/Third_Party/LwIP/system/OS/sys_arch.c ****   value specified by pval. See the documentation for sys_arch_protect() for
 500:Middlewares/Third_Party/LwIP/system/OS/sys_arch.c ****   more information. This function is only required if your port is supporting
 501:Middlewares/Third_Party/LwIP/system/OS/sys_arch.c ****   an operating system.
 502:Middlewares/Third_Party/LwIP/system/OS/sys_arch.c **** 
 503:Middlewares/Third_Party/LwIP/system/OS/sys_arch.c ****   Note: This function is based on FreeRTOS API, because no equivalent CMSIS-RTOS
 504:Middlewares/Third_Party/LwIP/system/OS/sys_arch.c ****         API is available
 505:Middlewares/Third_Party/LwIP/system/OS/sys_arch.c **** */
 506:Middlewares/Third_Party/LwIP/system/OS/sys_arch.c **** void sys_arch_unprotect(sys_prot_t pval)
 507:Middlewares/Third_Party/LwIP/system/OS/sys_arch.c **** {
 1051              		.loc 1 507 1 is_stmt 1 view -0
 1052              		.cfi_startproc
 1053              		@ args = 0, pretend = 0, frame = 0
 1054              		@ frame_needed = 0, uses_anonymous_args = 0
 1055              		.loc 1 507 1 is_stmt 0 view .LVU216
 1056 0000 08B5     		push	{r3, lr}
 1057              	.LCFI35:
 1058              		.cfi_def_cfa_offset 8
 1059              		.cfi_offset 3, -8
 1060              		.cfi_offset 14, -4
 508:Middlewares/Third_Party/LwIP/system/OS/sys_arch.c ****   ( void ) pval;
 1061              		.loc 1 508 3 is_stmt 1 view .LVU217
 509:Middlewares/Third_Party/LwIP/system/OS/sys_arch.c ****   osMutexRelease(lwip_sys_mutex);
 1062              		.loc 1 509 3 view .LVU218
 1063 0002 024B     		ldr	r3, .L77
 1064 0004 1868     		ldr	r0, [r3]
 1065              	.LVL89:
 1066              		.loc 1 509 3 is_stmt 0 view .LVU219
 1067 0006 FFF7FEFF 		bl	osMutexRelease
 1068              	.LVL90:
 510:Middlewares/Third_Party/LwIP/system/OS/sys_arch.c **** }
 1069              		.loc 1 510 1 view .LVU220
 1070 000a 08BD     		pop	{r3, pc}
 1071              	.L78:
 1072              		.align	2
 1073              	.L77:
 1074 000c 00000000 		.word	.LANCHOR1
 1075              		.cfi_endproc
 1076              	.LFE386:
 1078              		.global	os_mutex_def_lwip_sys_mutex
 1079              		.global	lwip_sys_mutex
 1080              		.global	errno
 1081              		.section	.bss.errno,"aw",%nobits
 1082              		.align	2
 1085              	errno:
 1086 0000 00000000 		.space	4
 1087              		.section	.bss.lwip_sys_mutex,"aw",%nobits
 1088              		.align	2
 1089              		.set	.LANCHOR1,. + 0
 1092              	lwip_sys_mutex:
 1093 0000 00000000 		.space	4
 1094              		.section	.rodata.os_mutex_def_lwip_sys_mutex,"a"
 1095              		.align	2
 1096              		.set	.LANCHOR0,. + 0
 1099              	os_mutex_def_lwip_sys_mutex:
 1100 0000 00000000 		.space	8
ARM GAS  C:\Users\zdy\AppData\Local\Temp\cceX250h.s 			page 29


 1100      00000000 
 1101              		.text
 1102              	.Letext0:
 1103              		.file 2 "c:\\program files (x86)\\gnu arm embedded toolchain\\10 2021.10\\arm-none-eabi\\include\\
 1104              		.file 3 "c:\\program files (x86)\\gnu arm embedded toolchain\\10 2021.10\\arm-none-eabi\\include\\
 1105              		.file 4 "Middlewares/Third_Party/LwIP/system/arch/cc.h"
 1106              		.file 5 "Middlewares/Third_Party/LwIP/src/include/lwip/arch.h"
 1107              		.file 6 "Middlewares/Third_Party/LwIP/src/include/lwip/err.h"
 1108              		.file 7 "Middlewares/Third_Party/FreeRTOS/Source/portable/GCC/ARM_CM4F/portmacro.h"
 1109              		.file 8 "Middlewares/Third_Party/FreeRTOS/Source/include/FreeRTOS.h"
 1110              		.file 9 "Middlewares/Third_Party/FreeRTOS/Source/include/task.h"
 1111              		.file 10 "Middlewares/Third_Party/FreeRTOS/Source/include/queue.h"
 1112              		.file 11 "Middlewares/Third_Party/FreeRTOS/Source/include/semphr.h"
 1113              		.file 12 "Middlewares/Third_Party/FreeRTOS/Source/CMSIS_RTOS/cmsis_os.h"
 1114              		.file 13 "Middlewares/Third_Party/LwIP/system/arch/sys_arch.h"
 1115              		.file 14 "Middlewares/Third_Party/LwIP/src/include/lwip/sys.h"
 1116              		.file 15 "Middlewares/Third_Party/LwIP/src/include/lwip/memp.h"
ARM GAS  C:\Users\zdy\AppData\Local\Temp\cceX250h.s 			page 30

