ARM GAS  C:\usertemp\cc5MZ8xZ.s 			page 1


   1              		.cpu cortex-m7
   2              		.arch armv7e-m
   3              		.fpu fpv5-d16
   4              		.eabi_attribute 28, 1
   5              		.eabi_attribute 20, 1
   6              		.eabi_attribute 21, 1
   7              		.eabi_attribute 23, 3
   8              		.eabi_attribute 24, 1
   9              		.eabi_attribute 25, 1
  10              		.eabi_attribute 26, 1
  11              		.eabi_attribute 30, 1
  12              		.eabi_attribute 34, 1
  13              		.eabi_attribute 18, 4
  14              		.file	"sys_arch.c"
  15              		.text
  16              	.Ltext0:
  17              		.cfi_sections	.debug_frame
  18              		.file 1 "Middlewares/Third_Party/LwIP/system/OS/sys_arch.c"
  19              		.section	.text.sys_mbox_new,"ax",%progbits
  20              		.align	1
  21              		.global	sys_mbox_new
  22              		.syntax unified
  23              		.thumb
  24              		.thumb_func
  26              	sys_mbox_new:
  27              	.LVL0:
  28              	.LFB364:
   1:Middlewares/Third_Party/LwIP/system/OS/sys_arch.c **** /*
   2:Middlewares/Third_Party/LwIP/system/OS/sys_arch.c ****  * Copyright (c) 2001-2003 Swedish Institute of Computer Science.
   3:Middlewares/Third_Party/LwIP/system/OS/sys_arch.c ****  * All rights reserved.
   4:Middlewares/Third_Party/LwIP/system/OS/sys_arch.c ****  *
   5:Middlewares/Third_Party/LwIP/system/OS/sys_arch.c ****  * Redistribution and use in source and binary forms, with or without modification,
   6:Middlewares/Third_Party/LwIP/system/OS/sys_arch.c ****  * are permitted provided that the following conditions are met:
   7:Middlewares/Third_Party/LwIP/system/OS/sys_arch.c ****  *
   8:Middlewares/Third_Party/LwIP/system/OS/sys_arch.c ****  * 1. Redistributions of source code must retain the above copyright notice,
   9:Middlewares/Third_Party/LwIP/system/OS/sys_arch.c ****  *    this list of conditions and the following disclaimer.
  10:Middlewares/Third_Party/LwIP/system/OS/sys_arch.c ****  * 2. Redistributions in binary form must reproduce the above copyright notice,
  11:Middlewares/Third_Party/LwIP/system/OS/sys_arch.c ****  *    this list of conditions and the following disclaimer in the documentation
  12:Middlewares/Third_Party/LwIP/system/OS/sys_arch.c ****  *    and/or other materials provided with the distribution.
  13:Middlewares/Third_Party/LwIP/system/OS/sys_arch.c ****  * 3. The name of the author may not be used to endorse or promote products
  14:Middlewares/Third_Party/LwIP/system/OS/sys_arch.c ****  *    derived from this software without specific prior written permission.
  15:Middlewares/Third_Party/LwIP/system/OS/sys_arch.c ****  *
  16:Middlewares/Third_Party/LwIP/system/OS/sys_arch.c ****  * THIS SOFTWARE IS PROVIDED BY THE AUTHOR ``AS IS'' AND ANY EXPRESS OR IMPLIED
  17:Middlewares/Third_Party/LwIP/system/OS/sys_arch.c ****  * WARRANTIES, INCLUDING, BUT NOT LIMITED TO, THE IMPLIED WARRANTIES OF
  18:Middlewares/Third_Party/LwIP/system/OS/sys_arch.c ****  * MERCHANTABILITY AND FITNESS FOR A PARTICULAR PURPOSE ARE DISCLAIMED. IN NO EVENT
  19:Middlewares/Third_Party/LwIP/system/OS/sys_arch.c ****  * SHALL THE AUTHOR BE LIABLE FOR ANY DIRECT, INDIRECT, INCIDENTAL, SPECIAL,
  20:Middlewares/Third_Party/LwIP/system/OS/sys_arch.c ****  * EXEMPLARY, OR CONSEQUENTIAL DAMAGES (INCLUDING, BUT NOT LIMITED TO, PROCUREMENT
  21:Middlewares/Third_Party/LwIP/system/OS/sys_arch.c ****  * OF SUBSTITUTE GOODS OR SERVICES; LOSS OF USE, DATA, OR PROFITS; OR BUSINESS
  22:Middlewares/Third_Party/LwIP/system/OS/sys_arch.c ****  * INTERRUPTION) HOWEVER CAUSED AND ON ANY THEORY OF LIABILITY, WHETHER IN
  23:Middlewares/Third_Party/LwIP/system/OS/sys_arch.c ****  * CONTRACT, STRICT LIABILITY, OR TORT (INCLUDING NEGLIGENCE OR OTHERWISE) ARISING
  24:Middlewares/Third_Party/LwIP/system/OS/sys_arch.c ****  * IN ANY WAY OUT OF THE USE OF THIS SOFTWARE, EVEN IF ADVISED OF THE POSSIBILITY
  25:Middlewares/Third_Party/LwIP/system/OS/sys_arch.c ****  * OF SUCH DAMAGE.
  26:Middlewares/Third_Party/LwIP/system/OS/sys_arch.c ****  *
  27:Middlewares/Third_Party/LwIP/system/OS/sys_arch.c ****  * This file is part of the lwIP TCP/IP stack.
  28:Middlewares/Third_Party/LwIP/system/OS/sys_arch.c ****  *
  29:Middlewares/Third_Party/LwIP/system/OS/sys_arch.c ****  * Author: Adam Dunkels <adam@sics.se>
  30:Middlewares/Third_Party/LwIP/system/OS/sys_arch.c ****  *
ARM GAS  C:\usertemp\cc5MZ8xZ.s 			page 2


  31:Middlewares/Third_Party/LwIP/system/OS/sys_arch.c ****  */
  32:Middlewares/Third_Party/LwIP/system/OS/sys_arch.c **** 
  33:Middlewares/Third_Party/LwIP/system/OS/sys_arch.c **** /* lwIP includes. */
  34:Middlewares/Third_Party/LwIP/system/OS/sys_arch.c **** #include "lwip/debug.h"
  35:Middlewares/Third_Party/LwIP/system/OS/sys_arch.c **** #include "lwip/def.h"
  36:Middlewares/Third_Party/LwIP/system/OS/sys_arch.c **** #include "lwip/sys.h"
  37:Middlewares/Third_Party/LwIP/system/OS/sys_arch.c **** #include "lwip/mem.h"
  38:Middlewares/Third_Party/LwIP/system/OS/sys_arch.c **** #include "lwip/stats.h"
  39:Middlewares/Third_Party/LwIP/system/OS/sys_arch.c **** 
  40:Middlewares/Third_Party/LwIP/system/OS/sys_arch.c **** #if !NO_SYS
  41:Middlewares/Third_Party/LwIP/system/OS/sys_arch.c **** 
  42:Middlewares/Third_Party/LwIP/system/OS/sys_arch.c **** #include "cmsis_os.h"
  43:Middlewares/Third_Party/LwIP/system/OS/sys_arch.c **** 
  44:Middlewares/Third_Party/LwIP/system/OS/sys_arch.c **** #if defined(LWIP_PROVIDE_ERRNO)
  45:Middlewares/Third_Party/LwIP/system/OS/sys_arch.c **** int errno;
  46:Middlewares/Third_Party/LwIP/system/OS/sys_arch.c **** #endif
  47:Middlewares/Third_Party/LwIP/system/OS/sys_arch.c **** 
  48:Middlewares/Third_Party/LwIP/system/OS/sys_arch.c **** /*-----------------------------------------------------------------------------------*/
  49:Middlewares/Third_Party/LwIP/system/OS/sys_arch.c **** //  Creates an empty mailbox.
  50:Middlewares/Third_Party/LwIP/system/OS/sys_arch.c **** err_t sys_mbox_new(sys_mbox_t *mbox, int size)
  51:Middlewares/Third_Party/LwIP/system/OS/sys_arch.c **** {
  29              		.loc 1 51 1 view -0
  30              		.cfi_startproc
  31              		@ args = 0, pretend = 0, frame = 16
  32              		@ frame_needed = 0, uses_anonymous_args = 0
  33              		.loc 1 51 1 is_stmt 0 view .LVU1
  34 0000 10B5     		push	{r4, lr}
  35              	.LCFI0:
  36              		.cfi_def_cfa_offset 8
  37              		.cfi_offset 4, -8
  38              		.cfi_offset 14, -4
  39 0002 84B0     		sub	sp, sp, #16
  40              	.LCFI1:
  41              		.cfi_def_cfa_offset 24
  42 0004 0446     		mov	r4, r0
  52:Middlewares/Third_Party/LwIP/system/OS/sys_arch.c **** #if (osCMSIS < 0x20000U)
  53:Middlewares/Third_Party/LwIP/system/OS/sys_arch.c ****   osMessageQDef(QUEUE, size, void *);
  43              		.loc 1 53 3 is_stmt 1 view .LVU2
  44 0006 0091     		str	r1, [sp]
  45 0008 0423     		movs	r3, #4
  46 000a 0193     		str	r3, [sp, #4]
  47 000c 0021     		movs	r1, #0
  48              	.LVL1:
  49              		.loc 1 53 3 is_stmt 0 view .LVU3
  50 000e 0291     		str	r1, [sp, #8]
  51 0010 0391     		str	r1, [sp, #12]
  54:Middlewares/Third_Party/LwIP/system/OS/sys_arch.c ****   *mbox = osMessageCreate(osMessageQ(QUEUE), NULL);
  52              		.loc 1 54 3 is_stmt 1 view .LVU4
  53              		.loc 1 54 11 is_stmt 0 view .LVU5
  54 0012 6846     		mov	r0, sp
  55              	.LVL2:
  56              		.loc 1 54 11 view .LVU6
  57 0014 FFF7FEFF 		bl	osMessageCreate
  58              	.LVL3:
  59              		.loc 1 54 9 discriminator 1 view .LVU7
  60 0018 2060     		str	r0, [r4]
  55:Middlewares/Third_Party/LwIP/system/OS/sys_arch.c **** #else
ARM GAS  C:\usertemp\cc5MZ8xZ.s 			page 3


  56:Middlewares/Third_Party/LwIP/system/OS/sys_arch.c ****   *mbox = osMessageQueueNew(size, sizeof(void *), NULL);
  57:Middlewares/Third_Party/LwIP/system/OS/sys_arch.c **** #endif
  58:Middlewares/Third_Party/LwIP/system/OS/sys_arch.c **** #if SYS_STATS
  59:Middlewares/Third_Party/LwIP/system/OS/sys_arch.c ****   ++lwip_stats.sys.mbox.used;
  60:Middlewares/Third_Party/LwIP/system/OS/sys_arch.c ****   if(lwip_stats.sys.mbox.max < lwip_stats.sys.mbox.used)
  61:Middlewares/Third_Party/LwIP/system/OS/sys_arch.c ****   {
  62:Middlewares/Third_Party/LwIP/system/OS/sys_arch.c ****     lwip_stats.sys.mbox.max = lwip_stats.sys.mbox.used;
  63:Middlewares/Third_Party/LwIP/system/OS/sys_arch.c ****   }
  64:Middlewares/Third_Party/LwIP/system/OS/sys_arch.c **** #endif /* SYS_STATS */
  65:Middlewares/Third_Party/LwIP/system/OS/sys_arch.c ****   if(*mbox == NULL)
  61              		.loc 1 65 3 is_stmt 1 view .LVU8
  62              		.loc 1 65 5 is_stmt 0 view .LVU9
  63 001a 10B1     		cbz	r0, .L3
  66:Middlewares/Third_Party/LwIP/system/OS/sys_arch.c ****     return ERR_MEM;
  67:Middlewares/Third_Party/LwIP/system/OS/sys_arch.c **** 
  68:Middlewares/Third_Party/LwIP/system/OS/sys_arch.c ****   return ERR_OK;
  64              		.loc 1 68 10 view .LVU10
  65 001c 0020     		movs	r0, #0
  66              	.L2:
  69:Middlewares/Third_Party/LwIP/system/OS/sys_arch.c **** }
  67              		.loc 1 69 1 view .LVU11
  68 001e 04B0     		add	sp, sp, #16
  69              	.LCFI2:
  70              		.cfi_remember_state
  71              		.cfi_def_cfa_offset 8
  72              		@ sp needed
  73 0020 10BD     		pop	{r4, pc}
  74              	.LVL4:
  75              	.L3:
  76              	.LCFI3:
  77              		.cfi_restore_state
  66:Middlewares/Third_Party/LwIP/system/OS/sys_arch.c ****     return ERR_MEM;
  78              		.loc 1 66 12 view .LVU12
  79 0022 4FF0FF30 		mov	r0, #-1
  80 0026 FAE7     		b	.L2
  81              		.cfi_endproc
  82              	.LFE364:
  84              		.section	.text.sys_mbox_free,"ax",%progbits
  85              		.align	1
  86              		.global	sys_mbox_free
  87              		.syntax unified
  88              		.thumb
  89              		.thumb_func
  91              	sys_mbox_free:
  92              	.LVL5:
  93              	.LFB365:
  70:Middlewares/Third_Party/LwIP/system/OS/sys_arch.c **** 
  71:Middlewares/Third_Party/LwIP/system/OS/sys_arch.c **** /*-----------------------------------------------------------------------------------*/
  72:Middlewares/Third_Party/LwIP/system/OS/sys_arch.c **** /*
  73:Middlewares/Third_Party/LwIP/system/OS/sys_arch.c ****   Deallocates a mailbox. If there are messages still present in the
  74:Middlewares/Third_Party/LwIP/system/OS/sys_arch.c ****   mailbox when the mailbox is deallocated, it is an indication of a
  75:Middlewares/Third_Party/LwIP/system/OS/sys_arch.c ****   programming error in lwIP and the developer should be notified.
  76:Middlewares/Third_Party/LwIP/system/OS/sys_arch.c **** */
  77:Middlewares/Third_Party/LwIP/system/OS/sys_arch.c **** void sys_mbox_free(sys_mbox_t *mbox)
  78:Middlewares/Third_Party/LwIP/system/OS/sys_arch.c **** {
  94              		.loc 1 78 1 is_stmt 1 view -0
  95              		.cfi_startproc
ARM GAS  C:\usertemp\cc5MZ8xZ.s 			page 4


  96              		@ args = 0, pretend = 0, frame = 0
  97              		@ frame_needed = 0, uses_anonymous_args = 0
  98              		.loc 1 78 1 is_stmt 0 view .LVU14
  99 0000 10B5     		push	{r4, lr}
 100              	.LCFI4:
 101              		.cfi_def_cfa_offset 8
 102              		.cfi_offset 4, -8
 103              		.cfi_offset 14, -4
 104 0002 0446     		mov	r4, r0
  79:Middlewares/Third_Party/LwIP/system/OS/sys_arch.c **** #if (osCMSIS < 0x20000U)
  80:Middlewares/Third_Party/LwIP/system/OS/sys_arch.c ****   if(osMessageWaiting(*mbox))
 105              		.loc 1 80 3 is_stmt 1 view .LVU15
 106              		.loc 1 80 6 is_stmt 0 view .LVU16
 107 0004 0068     		ldr	r0, [r0]
 108              	.LVL6:
 109              		.loc 1 80 6 view .LVU17
 110 0006 FFF7FEFF 		bl	osMessageWaiting
 111              	.LVL7:
  81:Middlewares/Third_Party/LwIP/system/OS/sys_arch.c **** #else
  82:Middlewares/Third_Party/LwIP/system/OS/sys_arch.c ****   if(osMessageQueueGetCount(*mbox))
  83:Middlewares/Third_Party/LwIP/system/OS/sys_arch.c **** #endif
  84:Middlewares/Third_Party/LwIP/system/OS/sys_arch.c ****   {
  85:Middlewares/Third_Party/LwIP/system/OS/sys_arch.c ****     /* Line for breakpoint.  Should never break here! */
  86:Middlewares/Third_Party/LwIP/system/OS/sys_arch.c ****     portNOP();
 112              		.loc 1 86 14 is_stmt 1 view .LVU18
  87:Middlewares/Third_Party/LwIP/system/OS/sys_arch.c **** #if SYS_STATS
  88:Middlewares/Third_Party/LwIP/system/OS/sys_arch.c ****     lwip_stats.sys.mbox.err++;
  89:Middlewares/Third_Party/LwIP/system/OS/sys_arch.c **** #endif /* SYS_STATS */
  90:Middlewares/Third_Party/LwIP/system/OS/sys_arch.c **** 
  91:Middlewares/Third_Party/LwIP/system/OS/sys_arch.c ****   }
  92:Middlewares/Third_Party/LwIP/system/OS/sys_arch.c **** #if (osCMSIS < 0x20000U)
  93:Middlewares/Third_Party/LwIP/system/OS/sys_arch.c ****   osMessageDelete(*mbox);
 113              		.loc 1 93 3 view .LVU19
 114 000a 2068     		ldr	r0, [r4]
 115 000c FFF7FEFF 		bl	osMessageDelete
 116              	.LVL8:
  94:Middlewares/Third_Party/LwIP/system/OS/sys_arch.c **** #else
  95:Middlewares/Third_Party/LwIP/system/OS/sys_arch.c ****   osMessageQueueDelete(*mbox);
  96:Middlewares/Third_Party/LwIP/system/OS/sys_arch.c **** #endif
  97:Middlewares/Third_Party/LwIP/system/OS/sys_arch.c **** #if SYS_STATS
  98:Middlewares/Third_Party/LwIP/system/OS/sys_arch.c ****   --lwip_stats.sys.mbox.used;
  99:Middlewares/Third_Party/LwIP/system/OS/sys_arch.c **** #endif /* SYS_STATS */
 100:Middlewares/Third_Party/LwIP/system/OS/sys_arch.c **** }
 117              		.loc 1 100 1 is_stmt 0 view .LVU20
 118 0010 10BD     		pop	{r4, pc}
 119              		.loc 1 100 1 view .LVU21
 120              		.cfi_endproc
 121              	.LFE365:
 123              		.section	.text.sys_mbox_post,"ax",%progbits
 124              		.align	1
 125              		.global	sys_mbox_post
 126              		.syntax unified
 127              		.thumb
 128              		.thumb_func
 130              	sys_mbox_post:
 131              	.LVL9:
 132              	.LFB366:
ARM GAS  C:\usertemp\cc5MZ8xZ.s 			page 5


 101:Middlewares/Third_Party/LwIP/system/OS/sys_arch.c **** 
 102:Middlewares/Third_Party/LwIP/system/OS/sys_arch.c **** /*-----------------------------------------------------------------------------------*/
 103:Middlewares/Third_Party/LwIP/system/OS/sys_arch.c **** //   Posts the "msg" to the mailbox.
 104:Middlewares/Third_Party/LwIP/system/OS/sys_arch.c **** void sys_mbox_post(sys_mbox_t *mbox, void *data)
 105:Middlewares/Third_Party/LwIP/system/OS/sys_arch.c **** {
 133              		.loc 1 105 1 is_stmt 1 view -0
 134              		.cfi_startproc
 135              		@ args = 0, pretend = 0, frame = 0
 136              		@ frame_needed = 0, uses_anonymous_args = 0
 137              		.loc 1 105 1 is_stmt 0 view .LVU23
 138 0000 38B5     		push	{r3, r4, r5, lr}
 139              	.LCFI5:
 140              		.cfi_def_cfa_offset 16
 141              		.cfi_offset 3, -16
 142              		.cfi_offset 4, -12
 143              		.cfi_offset 5, -8
 144              		.cfi_offset 14, -4
 145 0002 0546     		mov	r5, r0
 146 0004 0C46     		mov	r4, r1
 106:Middlewares/Third_Party/LwIP/system/OS/sys_arch.c **** #if (osCMSIS < 0x20000U)
 107:Middlewares/Third_Party/LwIP/system/OS/sys_arch.c ****   while(osMessagePut(*mbox, (uint32_t)data, osWaitForever) != osOK);
 147              		.loc 1 107 3 is_stmt 1 view .LVU24
 148              	.LVL10:
 149              	.L8:
 150              		.loc 1 107 60 discriminator 1 view .LVU25
 151              		.loc 1 107 9 is_stmt 0 discriminator 1 view .LVU26
 152 0006 4FF0FF32 		mov	r2, #-1
 153 000a 2146     		mov	r1, r4
 154 000c 2868     		ldr	r0, [r5]
 155 000e FFF7FEFF 		bl	osMessagePut
 156              	.LVL11:
 157              		.loc 1 107 60 discriminator 1 view .LVU27
 158 0012 0028     		cmp	r0, #0
 159 0014 F7D1     		bne	.L8
 108:Middlewares/Third_Party/LwIP/system/OS/sys_arch.c **** #else
 109:Middlewares/Third_Party/LwIP/system/OS/sys_arch.c ****   while(osMessageQueuePut(*mbox, &data, 0, osWaitForever) != osOK);
 110:Middlewares/Third_Party/LwIP/system/OS/sys_arch.c **** #endif
 111:Middlewares/Third_Party/LwIP/system/OS/sys_arch.c **** }
 160              		.loc 1 111 1 view .LVU28
 161 0016 38BD     		pop	{r3, r4, r5, pc}
 162              		.loc 1 111 1 view .LVU29
 163              		.cfi_endproc
 164              	.LFE366:
 166              		.section	.text.sys_mbox_trypost,"ax",%progbits
 167              		.align	1
 168              		.global	sys_mbox_trypost
 169              		.syntax unified
 170              		.thumb
 171              		.thumb_func
 173              	sys_mbox_trypost:
 174              	.LVL12:
 175              	.LFB367:
 112:Middlewares/Third_Party/LwIP/system/OS/sys_arch.c **** 
 113:Middlewares/Third_Party/LwIP/system/OS/sys_arch.c **** 
 114:Middlewares/Third_Party/LwIP/system/OS/sys_arch.c **** /*-----------------------------------------------------------------------------------*/
 115:Middlewares/Third_Party/LwIP/system/OS/sys_arch.c **** //   Try to post the "msg" to the mailbox.
 116:Middlewares/Third_Party/LwIP/system/OS/sys_arch.c **** err_t sys_mbox_trypost(sys_mbox_t *mbox, void *msg)
ARM GAS  C:\usertemp\cc5MZ8xZ.s 			page 6


 117:Middlewares/Third_Party/LwIP/system/OS/sys_arch.c **** {
 176              		.loc 1 117 1 is_stmt 1 view -0
 177              		.cfi_startproc
 178              		@ args = 0, pretend = 0, frame = 0
 179              		@ frame_needed = 0, uses_anonymous_args = 0
 180              		.loc 1 117 1 is_stmt 0 view .LVU31
 181 0000 08B5     		push	{r3, lr}
 182              	.LCFI6:
 183              		.cfi_def_cfa_offset 8
 184              		.cfi_offset 3, -8
 185              		.cfi_offset 14, -4
 118:Middlewares/Third_Party/LwIP/system/OS/sys_arch.c ****   err_t result;
 186              		.loc 1 118 3 is_stmt 1 view .LVU32
 119:Middlewares/Third_Party/LwIP/system/OS/sys_arch.c **** #if (osCMSIS < 0x20000U)
 120:Middlewares/Third_Party/LwIP/system/OS/sys_arch.c ****   if(osMessagePut(*mbox, (uint32_t)msg, 0) == osOK)
 187              		.loc 1 120 3 view .LVU33
 188              		.loc 1 120 6 is_stmt 0 view .LVU34
 189 0002 0022     		movs	r2, #0
 190 0004 0068     		ldr	r0, [r0]
 191              	.LVL13:
 192              		.loc 1 120 6 view .LVU35
 193 0006 FFF7FEFF 		bl	osMessagePut
 194              	.LVL14:
 195              		.loc 1 120 5 discriminator 1 view .LVU36
 196 000a 00B9     		cbnz	r0, .L14
 197              	.L11:
 198              	.LVL15:
 121:Middlewares/Third_Party/LwIP/system/OS/sys_arch.c **** #else
 122:Middlewares/Third_Party/LwIP/system/OS/sys_arch.c ****   if(osMessageQueuePut(*mbox, &msg, 0, 0) == osOK)
 123:Middlewares/Third_Party/LwIP/system/OS/sys_arch.c **** #endif
 124:Middlewares/Third_Party/LwIP/system/OS/sys_arch.c ****   {
 125:Middlewares/Third_Party/LwIP/system/OS/sys_arch.c ****     result = ERR_OK;
 126:Middlewares/Third_Party/LwIP/system/OS/sys_arch.c ****   }
 127:Middlewares/Third_Party/LwIP/system/OS/sys_arch.c ****   else
 128:Middlewares/Third_Party/LwIP/system/OS/sys_arch.c ****   {
 129:Middlewares/Third_Party/LwIP/system/OS/sys_arch.c ****     // could not post, queue must be full
 130:Middlewares/Third_Party/LwIP/system/OS/sys_arch.c ****     result = ERR_MEM;
 131:Middlewares/Third_Party/LwIP/system/OS/sys_arch.c **** 
 132:Middlewares/Third_Party/LwIP/system/OS/sys_arch.c **** #if SYS_STATS
 133:Middlewares/Third_Party/LwIP/system/OS/sys_arch.c ****     lwip_stats.sys.mbox.err++;
 134:Middlewares/Third_Party/LwIP/system/OS/sys_arch.c **** #endif /* SYS_STATS */
 135:Middlewares/Third_Party/LwIP/system/OS/sys_arch.c ****   }
 136:Middlewares/Third_Party/LwIP/system/OS/sys_arch.c **** 
 137:Middlewares/Third_Party/LwIP/system/OS/sys_arch.c ****   return result;
 199              		.loc 1 137 3 is_stmt 1 view .LVU37
 138:Middlewares/Third_Party/LwIP/system/OS/sys_arch.c **** }
 200              		.loc 1 138 1 is_stmt 0 view .LVU38
 201 000c 08BD     		pop	{r3, pc}
 202              	.LVL16:
 203              	.L14:
 130:Middlewares/Third_Party/LwIP/system/OS/sys_arch.c **** 
 204              		.loc 1 130 12 view .LVU39
 205 000e 4FF0FF30 		mov	r0, #-1
 206 0012 FBE7     		b	.L11
 207              		.cfi_endproc
 208              	.LFE367:
 210              		.section	.text.sys_mbox_trypost_fromisr,"ax",%progbits
ARM GAS  C:\usertemp\cc5MZ8xZ.s 			page 7


 211              		.align	1
 212              		.global	sys_mbox_trypost_fromisr
 213              		.syntax unified
 214              		.thumb
 215              		.thumb_func
 217              	sys_mbox_trypost_fromisr:
 218              	.LVL17:
 219              	.LFB368:
 139:Middlewares/Third_Party/LwIP/system/OS/sys_arch.c **** 
 140:Middlewares/Third_Party/LwIP/system/OS/sys_arch.c **** 
 141:Middlewares/Third_Party/LwIP/system/OS/sys_arch.c **** /*-----------------------------------------------------------------------------------*/
 142:Middlewares/Third_Party/LwIP/system/OS/sys_arch.c **** //   Try to post the "msg" to the mailbox.
 143:Middlewares/Third_Party/LwIP/system/OS/sys_arch.c **** err_t sys_mbox_trypost_fromisr(sys_mbox_t *mbox, void *msg)
 144:Middlewares/Third_Party/LwIP/system/OS/sys_arch.c **** {
 220              		.loc 1 144 1 is_stmt 1 view -0
 221              		.cfi_startproc
 222              		@ args = 0, pretend = 0, frame = 0
 223              		@ frame_needed = 0, uses_anonymous_args = 0
 224              		.loc 1 144 1 is_stmt 0 view .LVU41
 225 0000 08B5     		push	{r3, lr}
 226              	.LCFI7:
 227              		.cfi_def_cfa_offset 8
 228              		.cfi_offset 3, -8
 229              		.cfi_offset 14, -4
 145:Middlewares/Third_Party/LwIP/system/OS/sys_arch.c ****   return sys_mbox_trypost(mbox, msg);
 230              		.loc 1 145 3 is_stmt 1 view .LVU42
 231              		.loc 1 145 10 is_stmt 0 view .LVU43
 232 0002 FFF7FEFF 		bl	sys_mbox_trypost
 233              	.LVL18:
 146:Middlewares/Third_Party/LwIP/system/OS/sys_arch.c **** }
 234              		.loc 1 146 1 view .LVU44
 235 0006 08BD     		pop	{r3, pc}
 236              		.cfi_endproc
 237              	.LFE368:
 239              		.section	.text.sys_arch_mbox_fetch,"ax",%progbits
 240              		.align	1
 241              		.global	sys_arch_mbox_fetch
 242              		.syntax unified
 243              		.thumb
 244              		.thumb_func
 246              	sys_arch_mbox_fetch:
 247              	.LVL19:
 248              	.LFB369:
 147:Middlewares/Third_Party/LwIP/system/OS/sys_arch.c **** 
 148:Middlewares/Third_Party/LwIP/system/OS/sys_arch.c **** /*-----------------------------------------------------------------------------------*/
 149:Middlewares/Third_Party/LwIP/system/OS/sys_arch.c **** /*
 150:Middlewares/Third_Party/LwIP/system/OS/sys_arch.c ****   Blocks the thread until a message arrives in the mailbox, but does
 151:Middlewares/Third_Party/LwIP/system/OS/sys_arch.c ****   not block the thread longer than "timeout" milliseconds (similar to
 152:Middlewares/Third_Party/LwIP/system/OS/sys_arch.c ****   the sys_arch_sem_wait() function). The "msg" argument is a result
 153:Middlewares/Third_Party/LwIP/system/OS/sys_arch.c ****   parameter that is set by the function (i.e., by doing "*msg =
 154:Middlewares/Third_Party/LwIP/system/OS/sys_arch.c ****   ptr"). The "msg" parameter maybe NULL to indicate that the message
 155:Middlewares/Third_Party/LwIP/system/OS/sys_arch.c ****   should be dropped.
 156:Middlewares/Third_Party/LwIP/system/OS/sys_arch.c **** 
 157:Middlewares/Third_Party/LwIP/system/OS/sys_arch.c ****   The return values are the same as for the sys_arch_sem_wait() function:
 158:Middlewares/Third_Party/LwIP/system/OS/sys_arch.c ****   Number of milliseconds spent waiting or SYS_ARCH_TIMEOUT if there was a
 159:Middlewares/Third_Party/LwIP/system/OS/sys_arch.c ****   timeout.
 160:Middlewares/Third_Party/LwIP/system/OS/sys_arch.c **** 
ARM GAS  C:\usertemp\cc5MZ8xZ.s 			page 8


 161:Middlewares/Third_Party/LwIP/system/OS/sys_arch.c ****   Note that a function with a similar name, sys_mbox_fetch(), is
 162:Middlewares/Third_Party/LwIP/system/OS/sys_arch.c ****   implemented by lwIP.
 163:Middlewares/Third_Party/LwIP/system/OS/sys_arch.c **** */
 164:Middlewares/Third_Party/LwIP/system/OS/sys_arch.c **** u32_t sys_arch_mbox_fetch(sys_mbox_t *mbox, void **msg, u32_t timeout)
 165:Middlewares/Third_Party/LwIP/system/OS/sys_arch.c **** {
 249              		.loc 1 165 1 is_stmt 1 view -0
 250              		.cfi_startproc
 251              		@ args = 0, pretend = 0, frame = 32
 252              		@ frame_needed = 0, uses_anonymous_args = 0
 253              		.loc 1 165 1 is_stmt 0 view .LVU46
 254 0000 F0B5     		push	{r4, r5, r6, r7, lr}
 255              	.LCFI8:
 256              		.cfi_def_cfa_offset 20
 257              		.cfi_offset 4, -20
 258              		.cfi_offset 5, -16
 259              		.cfi_offset 6, -12
 260              		.cfi_offset 7, -8
 261              		.cfi_offset 14, -4
 262 0002 89B0     		sub	sp, sp, #36
 263              	.LCFI9:
 264              		.cfi_def_cfa_offset 56
 265 0004 0546     		mov	r5, r0
 266 0006 0F46     		mov	r7, r1
 267 0008 1446     		mov	r4, r2
 166:Middlewares/Third_Party/LwIP/system/OS/sys_arch.c **** #if (osCMSIS < 0x20000U)
 167:Middlewares/Third_Party/LwIP/system/OS/sys_arch.c ****   osEvent event;
 268              		.loc 1 167 3 is_stmt 1 view .LVU47
 168:Middlewares/Third_Party/LwIP/system/OS/sys_arch.c ****   uint32_t starttime = osKernelSysTick();
 269              		.loc 1 168 3 view .LVU48
 270              		.loc 1 168 24 is_stmt 0 view .LVU49
 271 000a FFF7FEFF 		bl	osKernelSysTick
 272              	.LVL20:
 273              		.loc 1 168 24 view .LVU50
 274 000e 0646     		mov	r6, r0
 275              	.LVL21:
 169:Middlewares/Third_Party/LwIP/system/OS/sys_arch.c **** #else
 170:Middlewares/Third_Party/LwIP/system/OS/sys_arch.c ****   osStatus_t status;
 171:Middlewares/Third_Party/LwIP/system/OS/sys_arch.c ****   uint32_t starttime = osKernelGetTickCount();
 172:Middlewares/Third_Party/LwIP/system/OS/sys_arch.c **** #endif
 173:Middlewares/Third_Party/LwIP/system/OS/sys_arch.c ****   if(timeout != 0)
 276              		.loc 1 173 3 is_stmt 1 view .LVU51
 277              		.loc 1 173 5 is_stmt 0 view .LVU52
 278 0010 8CB1     		cbz	r4, .L18
 174:Middlewares/Third_Party/LwIP/system/OS/sys_arch.c ****   {
 175:Middlewares/Third_Party/LwIP/system/OS/sys_arch.c **** #if (osCMSIS < 0x20000U)
 176:Middlewares/Third_Party/LwIP/system/OS/sys_arch.c ****     event = osMessageGet (*mbox, timeout);
 279              		.loc 1 176 5 is_stmt 1 view .LVU53
 280              		.loc 1 176 13 is_stmt 0 view .LVU54
 281 0012 2246     		mov	r2, r4
 282 0014 2968     		ldr	r1, [r5]
 283 0016 05A8     		add	r0, sp, #20
 284              	.LVL22:
 285              		.loc 1 176 13 view .LVU55
 286 0018 FFF7FEFF 		bl	osMessageGet
 287              	.LVL23:
 177:Middlewares/Third_Party/LwIP/system/OS/sys_arch.c **** 
 178:Middlewares/Third_Party/LwIP/system/OS/sys_arch.c ****     if(event.status == osEventMessage)
ARM GAS  C:\usertemp\cc5MZ8xZ.s 			page 9


 288              		.loc 1 178 5 is_stmt 1 view .LVU56
 289              		.loc 1 178 13 is_stmt 0 view .LVU57
 290 001c 059B     		ldr	r3, [sp, #20]
 291              		.loc 1 178 7 view .LVU58
 292 001e 102B     		cmp	r3, #16
 293 0020 03D0     		beq	.L22
 179:Middlewares/Third_Party/LwIP/system/OS/sys_arch.c ****     {
 180:Middlewares/Third_Party/LwIP/system/OS/sys_arch.c ****       *msg = (void *)event.value.v;
 181:Middlewares/Third_Party/LwIP/system/OS/sys_arch.c ****       return (osKernelSysTick() - starttime);
 182:Middlewares/Third_Party/LwIP/system/OS/sys_arch.c ****     }
 183:Middlewares/Third_Party/LwIP/system/OS/sys_arch.c **** #else
 184:Middlewares/Third_Party/LwIP/system/OS/sys_arch.c ****     status = osMessageQueueGet(*mbox, msg, 0, timeout);
 185:Middlewares/Third_Party/LwIP/system/OS/sys_arch.c ****     if (status == osOK)
 186:Middlewares/Third_Party/LwIP/system/OS/sys_arch.c ****     {
 187:Middlewares/Third_Party/LwIP/system/OS/sys_arch.c ****       return (osKernelGetTickCount() - starttime);
 188:Middlewares/Third_Party/LwIP/system/OS/sys_arch.c ****     }
 189:Middlewares/Third_Party/LwIP/system/OS/sys_arch.c **** #endif
 190:Middlewares/Third_Party/LwIP/system/OS/sys_arch.c ****     else
 191:Middlewares/Third_Party/LwIP/system/OS/sys_arch.c ****     {
 192:Middlewares/Third_Party/LwIP/system/OS/sys_arch.c ****       return SYS_ARCH_TIMEOUT;
 294              		.loc 1 192 14 view .LVU59
 295 0022 4FF0FF30 		mov	r0, #-1
 296              	.LVL24:
 297              	.L17:
 193:Middlewares/Third_Party/LwIP/system/OS/sys_arch.c ****     }
 194:Middlewares/Third_Party/LwIP/system/OS/sys_arch.c ****   }
 195:Middlewares/Third_Party/LwIP/system/OS/sys_arch.c ****   else
 196:Middlewares/Third_Party/LwIP/system/OS/sys_arch.c ****   {
 197:Middlewares/Third_Party/LwIP/system/OS/sys_arch.c **** #if (osCMSIS < 0x20000U)
 198:Middlewares/Third_Party/LwIP/system/OS/sys_arch.c ****     event = osMessageGet (*mbox, osWaitForever);
 199:Middlewares/Third_Party/LwIP/system/OS/sys_arch.c ****     *msg = (void *)event.value.v;
 200:Middlewares/Third_Party/LwIP/system/OS/sys_arch.c ****     return (osKernelSysTick() - starttime);
 201:Middlewares/Third_Party/LwIP/system/OS/sys_arch.c **** #else
 202:Middlewares/Third_Party/LwIP/system/OS/sys_arch.c ****     osMessageQueueGet(*mbox, msg, 0, osWaitForever );
 203:Middlewares/Third_Party/LwIP/system/OS/sys_arch.c ****     return (osKernelGetTickCount() - starttime);
 204:Middlewares/Third_Party/LwIP/system/OS/sys_arch.c **** #endif
 205:Middlewares/Third_Party/LwIP/system/OS/sys_arch.c ****   }
 206:Middlewares/Third_Party/LwIP/system/OS/sys_arch.c **** }
 298              		.loc 1 206 1 view .LVU60
 299 0026 09B0     		add	sp, sp, #36
 300              	.LCFI10:
 301              		.cfi_remember_state
 302              		.cfi_def_cfa_offset 20
 303              		@ sp needed
 304 0028 F0BD     		pop	{r4, r5, r6, r7, pc}
 305              	.LVL25:
 306              	.L22:
 307              	.LCFI11:
 308              		.cfi_restore_state
 180:Middlewares/Third_Party/LwIP/system/OS/sys_arch.c ****       return (osKernelSysTick() - starttime);
 309              		.loc 1 180 7 is_stmt 1 view .LVU61
 180:Middlewares/Third_Party/LwIP/system/OS/sys_arch.c ****       return (osKernelSysTick() - starttime);
 310              		.loc 1 180 33 is_stmt 0 view .LVU62
 311 002a 069B     		ldr	r3, [sp, #24]
 180:Middlewares/Third_Party/LwIP/system/OS/sys_arch.c ****       return (osKernelSysTick() - starttime);
 312              		.loc 1 180 12 view .LVU63
 313 002c 3B60     		str	r3, [r7]
ARM GAS  C:\usertemp\cc5MZ8xZ.s 			page 10


 181:Middlewares/Third_Party/LwIP/system/OS/sys_arch.c ****     }
 314              		.loc 1 181 7 is_stmt 1 view .LVU64
 181:Middlewares/Third_Party/LwIP/system/OS/sys_arch.c ****     }
 315              		.loc 1 181 15 is_stmt 0 view .LVU65
 316 002e FFF7FEFF 		bl	osKernelSysTick
 317              	.LVL26:
 181:Middlewares/Third_Party/LwIP/system/OS/sys_arch.c ****     }
 318              		.loc 1 181 33 discriminator 1 view .LVU66
 319 0032 801B     		subs	r0, r0, r6
 181:Middlewares/Third_Party/LwIP/system/OS/sys_arch.c ****     }
 320              		.loc 1 181 33 view .LVU67
 321 0034 F7E7     		b	.L17
 322              	.LVL27:
 323              	.L18:
 198:Middlewares/Third_Party/LwIP/system/OS/sys_arch.c ****     *msg = (void *)event.value.v;
 324              		.loc 1 198 5 is_stmt 1 view .LVU68
 198:Middlewares/Third_Party/LwIP/system/OS/sys_arch.c ****     *msg = (void *)event.value.v;
 325              		.loc 1 198 13 is_stmt 0 view .LVU69
 326 0036 6C46     		mov	r4, sp
 327              	.LVL28:
 198:Middlewares/Third_Party/LwIP/system/OS/sys_arch.c ****     *msg = (void *)event.value.v;
 328              		.loc 1 198 13 view .LVU70
 329 0038 4FF0FF32 		mov	r2, #-1
 330 003c 2968     		ldr	r1, [r5]
 331 003e 2046     		mov	r0, r4
 332              	.LVL29:
 198:Middlewares/Third_Party/LwIP/system/OS/sys_arch.c ****     *msg = (void *)event.value.v;
 333              		.loc 1 198 13 view .LVU71
 334 0040 FFF7FEFF 		bl	osMessageGet
 335              	.LVL30:
 336 0044 94E80700 		ldm	r4, {r0, r1, r2}
 337 0048 08AB     		add	r3, sp, #32
 338 004a 03E90700 		stmdb	r3, {r0, r1, r2}
 199:Middlewares/Third_Party/LwIP/system/OS/sys_arch.c ****     return (osKernelSysTick() - starttime);
 339              		.loc 1 199 5 is_stmt 1 view .LVU72
 199:Middlewares/Third_Party/LwIP/system/OS/sys_arch.c ****     return (osKernelSysTick() - starttime);
 340              		.loc 1 199 10 is_stmt 0 view .LVU73
 341 004e 3960     		str	r1, [r7]
 200:Middlewares/Third_Party/LwIP/system/OS/sys_arch.c **** #else
 342              		.loc 1 200 5 is_stmt 1 view .LVU74
 200:Middlewares/Third_Party/LwIP/system/OS/sys_arch.c **** #else
 343              		.loc 1 200 13 is_stmt 0 view .LVU75
 344 0050 FFF7FEFF 		bl	osKernelSysTick
 345              	.LVL31:
 200:Middlewares/Third_Party/LwIP/system/OS/sys_arch.c **** #else
 346              		.loc 1 200 31 discriminator 1 view .LVU76
 347 0054 801B     		subs	r0, r0, r6
 200:Middlewares/Third_Party/LwIP/system/OS/sys_arch.c **** #else
 348              		.loc 1 200 31 view .LVU77
 349 0056 E6E7     		b	.L17
 350              		.cfi_endproc
 351              	.LFE369:
 353              		.section	.text.sys_arch_mbox_tryfetch,"ax",%progbits
 354              		.align	1
 355              		.global	sys_arch_mbox_tryfetch
 356              		.syntax unified
 357              		.thumb
ARM GAS  C:\usertemp\cc5MZ8xZ.s 			page 11


 358              		.thumb_func
 360              	sys_arch_mbox_tryfetch:
 361              	.LVL32:
 362              	.LFB370:
 207:Middlewares/Third_Party/LwIP/system/OS/sys_arch.c **** 
 208:Middlewares/Third_Party/LwIP/system/OS/sys_arch.c **** /*-----------------------------------------------------------------------------------*/
 209:Middlewares/Third_Party/LwIP/system/OS/sys_arch.c **** /*
 210:Middlewares/Third_Party/LwIP/system/OS/sys_arch.c ****   Similar to sys_arch_mbox_fetch, but if message is not ready immediately, we'll
 211:Middlewares/Third_Party/LwIP/system/OS/sys_arch.c ****   return with SYS_MBOX_EMPTY.  On success, 0 is returned.
 212:Middlewares/Third_Party/LwIP/system/OS/sys_arch.c **** */
 213:Middlewares/Third_Party/LwIP/system/OS/sys_arch.c **** u32_t sys_arch_mbox_tryfetch(sys_mbox_t *mbox, void **msg)
 214:Middlewares/Third_Party/LwIP/system/OS/sys_arch.c **** {
 363              		.loc 1 214 1 is_stmt 1 view -0
 364              		.cfi_startproc
 365              		@ args = 0, pretend = 0, frame = 16
 366              		@ frame_needed = 0, uses_anonymous_args = 0
 367              		.loc 1 214 1 is_stmt 0 view .LVU79
 368 0000 10B5     		push	{r4, lr}
 369              	.LCFI12:
 370              		.cfi_def_cfa_offset 8
 371              		.cfi_offset 4, -8
 372              		.cfi_offset 14, -4
 373 0002 84B0     		sub	sp, sp, #16
 374              	.LCFI13:
 375              		.cfi_def_cfa_offset 24
 376 0004 0C46     		mov	r4, r1
 215:Middlewares/Third_Party/LwIP/system/OS/sys_arch.c **** #if (osCMSIS < 0x20000U)
 216:Middlewares/Third_Party/LwIP/system/OS/sys_arch.c ****   osEvent event;
 377              		.loc 1 216 3 is_stmt 1 view .LVU80
 217:Middlewares/Third_Party/LwIP/system/OS/sys_arch.c **** 
 218:Middlewares/Third_Party/LwIP/system/OS/sys_arch.c ****   event = osMessageGet (*mbox, 0);
 378              		.loc 1 218 3 view .LVU81
 379              		.loc 1 218 11 is_stmt 0 view .LVU82
 380 0006 0022     		movs	r2, #0
 381 0008 0168     		ldr	r1, [r0]
 382              	.LVL33:
 383              		.loc 1 218 11 view .LVU83
 384 000a 01A8     		add	r0, sp, #4
 385              	.LVL34:
 386              		.loc 1 218 11 view .LVU84
 387 000c FFF7FEFF 		bl	osMessageGet
 388              	.LVL35:
 219:Middlewares/Third_Party/LwIP/system/OS/sys_arch.c **** 
 220:Middlewares/Third_Party/LwIP/system/OS/sys_arch.c ****   if(event.status == osEventMessage)
 389              		.loc 1 220 3 is_stmt 1 view .LVU85
 390              		.loc 1 220 11 is_stmt 0 view .LVU86
 391 0010 019B     		ldr	r3, [sp, #4]
 392              		.loc 1 220 5 view .LVU87
 393 0012 102B     		cmp	r3, #16
 394 0014 03D0     		beq	.L27
 221:Middlewares/Third_Party/LwIP/system/OS/sys_arch.c ****   {
 222:Middlewares/Third_Party/LwIP/system/OS/sys_arch.c ****     *msg = (void *)event.value.v;
 223:Middlewares/Third_Party/LwIP/system/OS/sys_arch.c **** #else
 224:Middlewares/Third_Party/LwIP/system/OS/sys_arch.c ****   if (osMessageQueueGet(*mbox, msg, 0, 0) == osOK)
 225:Middlewares/Third_Party/LwIP/system/OS/sys_arch.c ****   {
 226:Middlewares/Third_Party/LwIP/system/OS/sys_arch.c **** #endif
 227:Middlewares/Third_Party/LwIP/system/OS/sys_arch.c ****     return ERR_OK;
ARM GAS  C:\usertemp\cc5MZ8xZ.s 			page 12


 228:Middlewares/Third_Party/LwIP/system/OS/sys_arch.c ****   }
 229:Middlewares/Third_Party/LwIP/system/OS/sys_arch.c ****   else
 230:Middlewares/Third_Party/LwIP/system/OS/sys_arch.c ****   {
 231:Middlewares/Third_Party/LwIP/system/OS/sys_arch.c ****     return SYS_MBOX_EMPTY;
 395              		.loc 1 231 12 view .LVU88
 396 0016 4FF0FF30 		mov	r0, #-1
 397              	.L23:
 232:Middlewares/Third_Party/LwIP/system/OS/sys_arch.c ****   }
 233:Middlewares/Third_Party/LwIP/system/OS/sys_arch.c **** }
 398              		.loc 1 233 1 view .LVU89
 399 001a 04B0     		add	sp, sp, #16
 400              	.LCFI14:
 401              		.cfi_remember_state
 402              		.cfi_def_cfa_offset 8
 403              		@ sp needed
 404 001c 10BD     		pop	{r4, pc}
 405              	.LVL36:
 406              	.L27:
 407              	.LCFI15:
 408              		.cfi_restore_state
 222:Middlewares/Third_Party/LwIP/system/OS/sys_arch.c **** #else
 409              		.loc 1 222 5 is_stmt 1 view .LVU90
 222:Middlewares/Third_Party/LwIP/system/OS/sys_arch.c **** #else
 410              		.loc 1 222 31 is_stmt 0 view .LVU91
 411 001e 029B     		ldr	r3, [sp, #8]
 222:Middlewares/Third_Party/LwIP/system/OS/sys_arch.c **** #else
 412              		.loc 1 222 10 view .LVU92
 413 0020 2360     		str	r3, [r4]
 227:Middlewares/Third_Party/LwIP/system/OS/sys_arch.c ****   }
 414              		.loc 1 227 5 is_stmt 1 view .LVU93
 227:Middlewares/Third_Party/LwIP/system/OS/sys_arch.c ****   }
 415              		.loc 1 227 12 is_stmt 0 view .LVU94
 416 0022 0020     		movs	r0, #0
 417 0024 F9E7     		b	.L23
 418              		.cfi_endproc
 419              	.LFE370:
 421              		.section	.text.sys_mbox_valid,"ax",%progbits
 422              		.align	1
 423              		.global	sys_mbox_valid
 424              		.syntax unified
 425              		.thumb
 426              		.thumb_func
 428              	sys_mbox_valid:
 429              	.LVL37:
 430              	.LFB371:
 234:Middlewares/Third_Party/LwIP/system/OS/sys_arch.c **** /*----------------------------------------------------------------------------------*/
 235:Middlewares/Third_Party/LwIP/system/OS/sys_arch.c **** int sys_mbox_valid(sys_mbox_t *mbox)
 236:Middlewares/Third_Party/LwIP/system/OS/sys_arch.c **** {
 431              		.loc 1 236 1 is_stmt 1 view -0
 432              		.cfi_startproc
 433              		@ args = 0, pretend = 0, frame = 0
 434              		@ frame_needed = 0, uses_anonymous_args = 0
 435              		@ link register save eliminated.
 237:Middlewares/Third_Party/LwIP/system/OS/sys_arch.c ****   if (*mbox == SYS_MBOX_NULL)
 436              		.loc 1 237 3 view .LVU96
 437              		.loc 1 237 7 is_stmt 0 view .LVU97
 438 0000 0368     		ldr	r3, [r0]
ARM GAS  C:\usertemp\cc5MZ8xZ.s 			page 13


 439              		.loc 1 237 6 view .LVU98
 440 0002 0BB1     		cbz	r3, .L31
 238:Middlewares/Third_Party/LwIP/system/OS/sys_arch.c ****     return 0;
 239:Middlewares/Third_Party/LwIP/system/OS/sys_arch.c ****   else
 240:Middlewares/Third_Party/LwIP/system/OS/sys_arch.c ****     return 1;
 441              		.loc 1 240 12 view .LVU99
 442 0004 0120     		movs	r0, #1
 443              	.LVL38:
 241:Middlewares/Third_Party/LwIP/system/OS/sys_arch.c **** }
 444              		.loc 1 241 1 view .LVU100
 445 0006 7047     		bx	lr
 446              	.LVL39:
 447              	.L31:
 238:Middlewares/Third_Party/LwIP/system/OS/sys_arch.c ****     return 0;
 448              		.loc 1 238 12 view .LVU101
 449 0008 0020     		movs	r0, #0
 450              	.LVL40:
 238:Middlewares/Third_Party/LwIP/system/OS/sys_arch.c ****     return 0;
 451              		.loc 1 238 12 view .LVU102
 452 000a 7047     		bx	lr
 453              		.cfi_endproc
 454              	.LFE371:
 456              		.section	.text.sys_mbox_set_invalid,"ax",%progbits
 457              		.align	1
 458              		.global	sys_mbox_set_invalid
 459              		.syntax unified
 460              		.thumb
 461              		.thumb_func
 463              	sys_mbox_set_invalid:
 464              	.LVL41:
 465              	.LFB372:
 242:Middlewares/Third_Party/LwIP/system/OS/sys_arch.c **** /*-----------------------------------------------------------------------------------*/
 243:Middlewares/Third_Party/LwIP/system/OS/sys_arch.c **** void sys_mbox_set_invalid(sys_mbox_t *mbox)
 244:Middlewares/Third_Party/LwIP/system/OS/sys_arch.c **** {
 466              		.loc 1 244 1 is_stmt 1 view -0
 467              		.cfi_startproc
 468              		@ args = 0, pretend = 0, frame = 0
 469              		@ frame_needed = 0, uses_anonymous_args = 0
 470              		@ link register save eliminated.
 245:Middlewares/Third_Party/LwIP/system/OS/sys_arch.c ****   *mbox = SYS_MBOX_NULL;
 471              		.loc 1 245 3 view .LVU104
 472              		.loc 1 245 9 is_stmt 0 view .LVU105
 473 0000 0023     		movs	r3, #0
 474 0002 0360     		str	r3, [r0]
 246:Middlewares/Third_Party/LwIP/system/OS/sys_arch.c **** }
 475              		.loc 1 246 1 view .LVU106
 476 0004 7047     		bx	lr
 477              		.cfi_endproc
 478              	.LFE372:
 480              		.section	.text.sys_sem_new,"ax",%progbits
 481              		.align	1
 482              		.global	sys_sem_new
 483              		.syntax unified
 484              		.thumb
 485              		.thumb_func
 487              	sys_sem_new:
 488              	.LVL42:
ARM GAS  C:\usertemp\cc5MZ8xZ.s 			page 14


 489              	.LFB373:
 247:Middlewares/Third_Party/LwIP/system/OS/sys_arch.c **** 
 248:Middlewares/Third_Party/LwIP/system/OS/sys_arch.c **** /*-----------------------------------------------------------------------------------*/
 249:Middlewares/Third_Party/LwIP/system/OS/sys_arch.c **** //  Creates a new semaphore. The "count" argument specifies
 250:Middlewares/Third_Party/LwIP/system/OS/sys_arch.c **** //  the initial state of the semaphore.
 251:Middlewares/Third_Party/LwIP/system/OS/sys_arch.c **** err_t sys_sem_new(sys_sem_t *sem, u8_t count)
 252:Middlewares/Third_Party/LwIP/system/OS/sys_arch.c **** {
 490              		.loc 1 252 1 is_stmt 1 view -0
 491              		.cfi_startproc
 492              		@ args = 0, pretend = 0, frame = 8
 493              		@ frame_needed = 0, uses_anonymous_args = 0
 494              		.loc 1 252 1 is_stmt 0 view .LVU108
 495 0000 30B5     		push	{r4, r5, lr}
 496              	.LCFI16:
 497              		.cfi_def_cfa_offset 12
 498              		.cfi_offset 4, -12
 499              		.cfi_offset 5, -8
 500              		.cfi_offset 14, -4
 501 0002 83B0     		sub	sp, sp, #12
 502              	.LCFI17:
 503              		.cfi_def_cfa_offset 24
 504 0004 0446     		mov	r4, r0
 505 0006 0D46     		mov	r5, r1
 253:Middlewares/Third_Party/LwIP/system/OS/sys_arch.c **** #if (osCMSIS < 0x20000U)
 254:Middlewares/Third_Party/LwIP/system/OS/sys_arch.c ****   osSemaphoreDef(SEM);
 506              		.loc 1 254 3 is_stmt 1 view .LVU109
 507 0008 0023     		movs	r3, #0
 508 000a 0093     		str	r3, [sp]
 509 000c 0193     		str	r3, [sp, #4]
 255:Middlewares/Third_Party/LwIP/system/OS/sys_arch.c ****   *sem = osSemaphoreCreate (osSemaphore(SEM), 1);
 510              		.loc 1 255 3 view .LVU110
 511              		.loc 1 255 10 is_stmt 0 view .LVU111
 512 000e 0121     		movs	r1, #1
 513              	.LVL43:
 514              		.loc 1 255 10 view .LVU112
 515 0010 6846     		mov	r0, sp
 516              	.LVL44:
 517              		.loc 1 255 10 view .LVU113
 518 0012 FFF7FEFF 		bl	osSemaphoreCreate
 519              	.LVL45:
 520              		.loc 1 255 8 discriminator 1 view .LVU114
 521 0016 2060     		str	r0, [r4]
 256:Middlewares/Third_Party/LwIP/system/OS/sys_arch.c **** #else
 257:Middlewares/Third_Party/LwIP/system/OS/sys_arch.c ****   *sem = osSemaphoreNew(UINT16_MAX, count, NULL);
 258:Middlewares/Third_Party/LwIP/system/OS/sys_arch.c **** #endif
 259:Middlewares/Third_Party/LwIP/system/OS/sys_arch.c **** 
 260:Middlewares/Third_Party/LwIP/system/OS/sys_arch.c ****   if(*sem == NULL)
 522              		.loc 1 260 3 is_stmt 1 view .LVU115
 523              		.loc 1 260 5 is_stmt 0 view .LVU116
 524 0018 40B1     		cbz	r0, .L35
 261:Middlewares/Third_Party/LwIP/system/OS/sys_arch.c ****   {
 262:Middlewares/Third_Party/LwIP/system/OS/sys_arch.c **** #if SYS_STATS
 263:Middlewares/Third_Party/LwIP/system/OS/sys_arch.c ****     ++lwip_stats.sys.sem.err;
 264:Middlewares/Third_Party/LwIP/system/OS/sys_arch.c **** #endif /* SYS_STATS */
 265:Middlewares/Third_Party/LwIP/system/OS/sys_arch.c ****     return ERR_MEM;
 266:Middlewares/Third_Party/LwIP/system/OS/sys_arch.c ****   }
 267:Middlewares/Third_Party/LwIP/system/OS/sys_arch.c **** 
ARM GAS  C:\usertemp\cc5MZ8xZ.s 			page 15


 268:Middlewares/Third_Party/LwIP/system/OS/sys_arch.c ****   if(count == 0)	// Means it can't be taken
 525              		.loc 1 268 3 is_stmt 1 view .LVU117
 526              		.loc 1 268 5 is_stmt 0 view .LVU118
 527 001a 15B1     		cbz	r5, .L38
 269:Middlewares/Third_Party/LwIP/system/OS/sys_arch.c ****   {
 270:Middlewares/Third_Party/LwIP/system/OS/sys_arch.c **** #if (osCMSIS < 0x20000U)
 271:Middlewares/Third_Party/LwIP/system/OS/sys_arch.c ****     osSemaphoreWait(*sem, 0);
 272:Middlewares/Third_Party/LwIP/system/OS/sys_arch.c **** #else
 273:Middlewares/Third_Party/LwIP/system/OS/sys_arch.c ****     osSemaphoreAcquire(*sem, 0);
 274:Middlewares/Third_Party/LwIP/system/OS/sys_arch.c **** #endif
 275:Middlewares/Third_Party/LwIP/system/OS/sys_arch.c ****   }
 276:Middlewares/Third_Party/LwIP/system/OS/sys_arch.c **** 
 277:Middlewares/Third_Party/LwIP/system/OS/sys_arch.c **** #if SYS_STATS
 278:Middlewares/Third_Party/LwIP/system/OS/sys_arch.c ****   ++lwip_stats.sys.sem.used;
 279:Middlewares/Third_Party/LwIP/system/OS/sys_arch.c ****   if (lwip_stats.sys.sem.max < lwip_stats.sys.sem.used) {
 280:Middlewares/Third_Party/LwIP/system/OS/sys_arch.c ****     lwip_stats.sys.sem.max = lwip_stats.sys.sem.used;
 281:Middlewares/Third_Party/LwIP/system/OS/sys_arch.c ****   }
 282:Middlewares/Third_Party/LwIP/system/OS/sys_arch.c **** #endif /* SYS_STATS */
 283:Middlewares/Third_Party/LwIP/system/OS/sys_arch.c **** 
 284:Middlewares/Third_Party/LwIP/system/OS/sys_arch.c ****   return ERR_OK;
 528              		.loc 1 284 10 view .LVU119
 529 001c 0020     		movs	r0, #0
 530              	.L34:
 285:Middlewares/Third_Party/LwIP/system/OS/sys_arch.c **** }
 531              		.loc 1 285 1 view .LVU120
 532 001e 03B0     		add	sp, sp, #12
 533              	.LCFI18:
 534              		.cfi_remember_state
 535              		.cfi_def_cfa_offset 12
 536              		@ sp needed
 537 0020 30BD     		pop	{r4, r5, pc}
 538              	.LVL46:
 539              	.L38:
 540              	.LCFI19:
 541              		.cfi_restore_state
 271:Middlewares/Third_Party/LwIP/system/OS/sys_arch.c **** #else
 542              		.loc 1 271 5 is_stmt 1 view .LVU121
 543 0022 0021     		movs	r1, #0
 544 0024 FFF7FEFF 		bl	osSemaphoreWait
 545              	.LVL47:
 284:Middlewares/Third_Party/LwIP/system/OS/sys_arch.c **** }
 546              		.loc 1 284 10 is_stmt 0 view .LVU122
 547 0028 0020     		movs	r0, #0
 548 002a F8E7     		b	.L34
 549              	.L35:
 265:Middlewares/Third_Party/LwIP/system/OS/sys_arch.c ****   }
 550              		.loc 1 265 12 view .LVU123
 551 002c 4FF0FF30 		mov	r0, #-1
 552 0030 F5E7     		b	.L34
 553              		.cfi_endproc
 554              	.LFE373:
 556              		.section	.text.sys_arch_sem_wait,"ax",%progbits
 557              		.align	1
 558              		.global	sys_arch_sem_wait
 559              		.syntax unified
 560              		.thumb
 561              		.thumb_func
ARM GAS  C:\usertemp\cc5MZ8xZ.s 			page 16


 563              	sys_arch_sem_wait:
 564              	.LVL48:
 565              	.LFB374:
 286:Middlewares/Third_Party/LwIP/system/OS/sys_arch.c **** 
 287:Middlewares/Third_Party/LwIP/system/OS/sys_arch.c **** /*-----------------------------------------------------------------------------------*/
 288:Middlewares/Third_Party/LwIP/system/OS/sys_arch.c **** /*
 289:Middlewares/Third_Party/LwIP/system/OS/sys_arch.c ****   Blocks the thread while waiting for the semaphore to be
 290:Middlewares/Third_Party/LwIP/system/OS/sys_arch.c ****   signaled. If the "timeout" argument is non-zero, the thread should
 291:Middlewares/Third_Party/LwIP/system/OS/sys_arch.c ****   only be blocked for the specified time (measured in
 292:Middlewares/Third_Party/LwIP/system/OS/sys_arch.c ****   milliseconds).
 293:Middlewares/Third_Party/LwIP/system/OS/sys_arch.c **** 
 294:Middlewares/Third_Party/LwIP/system/OS/sys_arch.c ****   If the timeout argument is non-zero, the return value is the number of
 295:Middlewares/Third_Party/LwIP/system/OS/sys_arch.c ****   milliseconds spent waiting for the semaphore to be signaled. If the
 296:Middlewares/Third_Party/LwIP/system/OS/sys_arch.c ****   semaphore wasn't signaled within the specified time, the return value is
 297:Middlewares/Third_Party/LwIP/system/OS/sys_arch.c ****   SYS_ARCH_TIMEOUT. If the thread didn't have to wait for the semaphore
 298:Middlewares/Third_Party/LwIP/system/OS/sys_arch.c ****   (i.e., it was already signaled), the function may return zero.
 299:Middlewares/Third_Party/LwIP/system/OS/sys_arch.c **** 
 300:Middlewares/Third_Party/LwIP/system/OS/sys_arch.c ****   Notice that lwIP implements a function with a similar name,
 301:Middlewares/Third_Party/LwIP/system/OS/sys_arch.c ****   sys_sem_wait(), that uses the sys_arch_sem_wait() function.
 302:Middlewares/Third_Party/LwIP/system/OS/sys_arch.c **** */
 303:Middlewares/Third_Party/LwIP/system/OS/sys_arch.c **** u32_t sys_arch_sem_wait(sys_sem_t *sem, u32_t timeout)
 304:Middlewares/Third_Party/LwIP/system/OS/sys_arch.c **** {
 566              		.loc 1 304 1 is_stmt 1 view -0
 567              		.cfi_startproc
 568              		@ args = 0, pretend = 0, frame = 0
 569              		@ frame_needed = 0, uses_anonymous_args = 0
 570              		.loc 1 304 1 is_stmt 0 view .LVU125
 571 0000 70B5     		push	{r4, r5, r6, lr}
 572              	.LCFI20:
 573              		.cfi_def_cfa_offset 16
 574              		.cfi_offset 4, -16
 575              		.cfi_offset 5, -12
 576              		.cfi_offset 6, -8
 577              		.cfi_offset 14, -4
 578 0002 0446     		mov	r4, r0
 579 0004 0E46     		mov	r6, r1
 305:Middlewares/Third_Party/LwIP/system/OS/sys_arch.c **** #if (osCMSIS < 0x20000U)
 306:Middlewares/Third_Party/LwIP/system/OS/sys_arch.c ****   uint32_t starttime = osKernelSysTick();
 580              		.loc 1 306 3 is_stmt 1 view .LVU126
 581              		.loc 1 306 24 is_stmt 0 view .LVU127
 582 0006 FFF7FEFF 		bl	osKernelSysTick
 583              	.LVL49:
 584              		.loc 1 306 24 view .LVU128
 585 000a 0546     		mov	r5, r0
 586              	.LVL50:
 307:Middlewares/Third_Party/LwIP/system/OS/sys_arch.c **** #else
 308:Middlewares/Third_Party/LwIP/system/OS/sys_arch.c ****   uint32_t starttime = osKernelGetTickCount();
 309:Middlewares/Third_Party/LwIP/system/OS/sys_arch.c **** #endif
 310:Middlewares/Third_Party/LwIP/system/OS/sys_arch.c ****   if(timeout != 0)
 587              		.loc 1 310 3 is_stmt 1 view .LVU129
 588              		.loc 1 310 5 is_stmt 0 view .LVU130
 589 000c 56B9     		cbnz	r6, .L44
 590              	.LVL51:
 591              	.L40:
 311:Middlewares/Third_Party/LwIP/system/OS/sys_arch.c ****   {
 312:Middlewares/Third_Party/LwIP/system/OS/sys_arch.c **** #if (osCMSIS < 0x20000U)
 313:Middlewares/Third_Party/LwIP/system/OS/sys_arch.c ****     if(osSemaphoreWait (*sem, timeout) == osOK)
ARM GAS  C:\usertemp\cc5MZ8xZ.s 			page 17


 314:Middlewares/Third_Party/LwIP/system/OS/sys_arch.c ****     {
 315:Middlewares/Third_Party/LwIP/system/OS/sys_arch.c ****       return (osKernelSysTick() - starttime);
 316:Middlewares/Third_Party/LwIP/system/OS/sys_arch.c **** #else
 317:Middlewares/Third_Party/LwIP/system/OS/sys_arch.c ****     if(osSemaphoreAcquire(*sem, timeout) == osOK)
 318:Middlewares/Third_Party/LwIP/system/OS/sys_arch.c ****     {
 319:Middlewares/Third_Party/LwIP/system/OS/sys_arch.c ****         return (osKernelGetTickCount() - starttime);
 320:Middlewares/Third_Party/LwIP/system/OS/sys_arch.c **** #endif
 321:Middlewares/Third_Party/LwIP/system/OS/sys_arch.c ****     }
 322:Middlewares/Third_Party/LwIP/system/OS/sys_arch.c ****     else
 323:Middlewares/Third_Party/LwIP/system/OS/sys_arch.c ****     {
 324:Middlewares/Third_Party/LwIP/system/OS/sys_arch.c ****       return SYS_ARCH_TIMEOUT;
 325:Middlewares/Third_Party/LwIP/system/OS/sys_arch.c ****     }
 326:Middlewares/Third_Party/LwIP/system/OS/sys_arch.c ****   }
 327:Middlewares/Third_Party/LwIP/system/OS/sys_arch.c ****   else
 328:Middlewares/Third_Party/LwIP/system/OS/sys_arch.c ****   {
 329:Middlewares/Third_Party/LwIP/system/OS/sys_arch.c **** #if (osCMSIS < 0x20000U)
 330:Middlewares/Third_Party/LwIP/system/OS/sys_arch.c ****     while(osSemaphoreWait (*sem, osWaitForever) != osOK);
 592              		.loc 1 330 49 is_stmt 1 discriminator 1 view .LVU131
 593              		.loc 1 330 11 is_stmt 0 discriminator 1 view .LVU132
 594 000e 4FF0FF31 		mov	r1, #-1
 595 0012 2068     		ldr	r0, [r4]
 596 0014 FFF7FEFF 		bl	osSemaphoreWait
 597              	.LVL52:
 598              		.loc 1 330 49 discriminator 1 view .LVU133
 599 0018 0028     		cmp	r0, #0
 600 001a F8D1     		bne	.L40
 331:Middlewares/Third_Party/LwIP/system/OS/sys_arch.c ****     return (osKernelSysTick() - starttime);
 601              		.loc 1 331 5 is_stmt 1 view .LVU134
 602              		.loc 1 331 13 is_stmt 0 view .LVU135
 603 001c FFF7FEFF 		bl	osKernelSysTick
 604              	.LVL53:
 605              		.loc 1 331 31 discriminator 1 view .LVU136
 606 0020 401B     		subs	r0, r0, r5
 607              	.L39:
 332:Middlewares/Third_Party/LwIP/system/OS/sys_arch.c **** #else
 333:Middlewares/Third_Party/LwIP/system/OS/sys_arch.c ****     while(osSemaphoreAcquire(*sem, osWaitForever) != osOK);
 334:Middlewares/Third_Party/LwIP/system/OS/sys_arch.c ****     return (osKernelGetTickCount() - starttime);
 335:Middlewares/Third_Party/LwIP/system/OS/sys_arch.c **** #endif
 336:Middlewares/Third_Party/LwIP/system/OS/sys_arch.c ****   }
 337:Middlewares/Third_Party/LwIP/system/OS/sys_arch.c **** }
 608              		.loc 1 337 1 view .LVU137
 609 0022 70BD     		pop	{r4, r5, r6, pc}
 610              	.LVL54:
 611              	.L44:
 313:Middlewares/Third_Party/LwIP/system/OS/sys_arch.c ****     {
 612              		.loc 1 313 5 is_stmt 1 view .LVU138
 313:Middlewares/Third_Party/LwIP/system/OS/sys_arch.c ****     {
 613              		.loc 1 313 8 is_stmt 0 view .LVU139
 614 0024 3146     		mov	r1, r6
 615 0026 2068     		ldr	r0, [r4]
 616              	.LVL55:
 313:Middlewares/Third_Party/LwIP/system/OS/sys_arch.c ****     {
 617              		.loc 1 313 8 view .LVU140
 618 0028 FFF7FEFF 		bl	osSemaphoreWait
 619              	.LVL56:
 313:Middlewares/Third_Party/LwIP/system/OS/sys_arch.c ****     {
 620              		.loc 1 313 7 discriminator 1 view .LVU141
ARM GAS  C:\usertemp\cc5MZ8xZ.s 			page 18


 621 002c 10B1     		cbz	r0, .L45
 324:Middlewares/Third_Party/LwIP/system/OS/sys_arch.c ****     }
 622              		.loc 1 324 14 view .LVU142
 623 002e 4FF0FF30 		mov	r0, #-1
 624 0032 F6E7     		b	.L39
 625              	.L45:
 315:Middlewares/Third_Party/LwIP/system/OS/sys_arch.c **** #else
 626              		.loc 1 315 7 is_stmt 1 view .LVU143
 315:Middlewares/Third_Party/LwIP/system/OS/sys_arch.c **** #else
 627              		.loc 1 315 15 is_stmt 0 view .LVU144
 628 0034 FFF7FEFF 		bl	osKernelSysTick
 629              	.LVL57:
 315:Middlewares/Third_Party/LwIP/system/OS/sys_arch.c **** #else
 630              		.loc 1 315 33 discriminator 1 view .LVU145
 631 0038 401B     		subs	r0, r0, r5
 315:Middlewares/Third_Party/LwIP/system/OS/sys_arch.c **** #else
 632              		.loc 1 315 33 view .LVU146
 633 003a F2E7     		b	.L39
 634              		.cfi_endproc
 635              	.LFE374:
 637              		.section	.text.sys_sem_signal,"ax",%progbits
 638              		.align	1
 639              		.global	sys_sem_signal
 640              		.syntax unified
 641              		.thumb
 642              		.thumb_func
 644              	sys_sem_signal:
 645              	.LVL58:
 646              	.LFB375:
 338:Middlewares/Third_Party/LwIP/system/OS/sys_arch.c **** 
 339:Middlewares/Third_Party/LwIP/system/OS/sys_arch.c **** /*-----------------------------------------------------------------------------------*/
 340:Middlewares/Third_Party/LwIP/system/OS/sys_arch.c **** // Signals a semaphore
 341:Middlewares/Third_Party/LwIP/system/OS/sys_arch.c **** void sys_sem_signal(sys_sem_t *sem)
 342:Middlewares/Third_Party/LwIP/system/OS/sys_arch.c **** {
 647              		.loc 1 342 1 is_stmt 1 view -0
 648              		.cfi_startproc
 649              		@ args = 0, pretend = 0, frame = 0
 650              		@ frame_needed = 0, uses_anonymous_args = 0
 651              		.loc 1 342 1 is_stmt 0 view .LVU148
 652 0000 08B5     		push	{r3, lr}
 653              	.LCFI21:
 654              		.cfi_def_cfa_offset 8
 655              		.cfi_offset 3, -8
 656              		.cfi_offset 14, -4
 343:Middlewares/Third_Party/LwIP/system/OS/sys_arch.c ****   osSemaphoreRelease(*sem);
 657              		.loc 1 343 3 is_stmt 1 view .LVU149
 658 0002 0068     		ldr	r0, [r0]
 659              	.LVL59:
 660              		.loc 1 343 3 is_stmt 0 view .LVU150
 661 0004 FFF7FEFF 		bl	osSemaphoreRelease
 662              	.LVL60:
 344:Middlewares/Third_Party/LwIP/system/OS/sys_arch.c **** }
 663              		.loc 1 344 1 view .LVU151
 664 0008 08BD     		pop	{r3, pc}
 665              		.cfi_endproc
 666              	.LFE375:
 668              		.section	.text.sys_sem_free,"ax",%progbits
ARM GAS  C:\usertemp\cc5MZ8xZ.s 			page 19


 669              		.align	1
 670              		.global	sys_sem_free
 671              		.syntax unified
 672              		.thumb
 673              		.thumb_func
 675              	sys_sem_free:
 676              	.LVL61:
 677              	.LFB376:
 345:Middlewares/Third_Party/LwIP/system/OS/sys_arch.c **** 
 346:Middlewares/Third_Party/LwIP/system/OS/sys_arch.c **** /*-----------------------------------------------------------------------------------*/
 347:Middlewares/Third_Party/LwIP/system/OS/sys_arch.c **** // Deallocates a semaphore
 348:Middlewares/Third_Party/LwIP/system/OS/sys_arch.c **** void sys_sem_free(sys_sem_t *sem)
 349:Middlewares/Third_Party/LwIP/system/OS/sys_arch.c **** {
 678              		.loc 1 349 1 is_stmt 1 view -0
 679              		.cfi_startproc
 680              		@ args = 0, pretend = 0, frame = 0
 681              		@ frame_needed = 0, uses_anonymous_args = 0
 682              		.loc 1 349 1 is_stmt 0 view .LVU153
 683 0000 08B5     		push	{r3, lr}
 684              	.LCFI22:
 685              		.cfi_def_cfa_offset 8
 686              		.cfi_offset 3, -8
 687              		.cfi_offset 14, -4
 350:Middlewares/Third_Party/LwIP/system/OS/sys_arch.c **** #if SYS_STATS
 351:Middlewares/Third_Party/LwIP/system/OS/sys_arch.c ****   --lwip_stats.sys.sem.used;
 352:Middlewares/Third_Party/LwIP/system/OS/sys_arch.c **** #endif /* SYS_STATS */
 353:Middlewares/Third_Party/LwIP/system/OS/sys_arch.c **** 
 354:Middlewares/Third_Party/LwIP/system/OS/sys_arch.c ****   osSemaphoreDelete(*sem);
 688              		.loc 1 354 3 is_stmt 1 view .LVU154
 689 0002 0068     		ldr	r0, [r0]
 690              	.LVL62:
 691              		.loc 1 354 3 is_stmt 0 view .LVU155
 692 0004 FFF7FEFF 		bl	osSemaphoreDelete
 693              	.LVL63:
 355:Middlewares/Third_Party/LwIP/system/OS/sys_arch.c **** }
 694              		.loc 1 355 1 view .LVU156
 695 0008 08BD     		pop	{r3, pc}
 696              		.cfi_endproc
 697              	.LFE376:
 699              		.section	.text.sys_sem_valid,"ax",%progbits
 700              		.align	1
 701              		.global	sys_sem_valid
 702              		.syntax unified
 703              		.thumb
 704              		.thumb_func
 706              	sys_sem_valid:
 707              	.LVL64:
 708              	.LFB377:
 356:Middlewares/Third_Party/LwIP/system/OS/sys_arch.c **** /*-----------------------------------------------------------------------------------*/
 357:Middlewares/Third_Party/LwIP/system/OS/sys_arch.c **** int sys_sem_valid(sys_sem_t *sem)
 358:Middlewares/Third_Party/LwIP/system/OS/sys_arch.c **** {
 709              		.loc 1 358 1 is_stmt 1 view -0
 710              		.cfi_startproc
 711              		@ args = 0, pretend = 0, frame = 0
 712              		@ frame_needed = 0, uses_anonymous_args = 0
 713              		@ link register save eliminated.
 359:Middlewares/Third_Party/LwIP/system/OS/sys_arch.c ****   if (*sem == SYS_SEM_NULL)
ARM GAS  C:\usertemp\cc5MZ8xZ.s 			page 20


 714              		.loc 1 359 3 view .LVU158
 715              		.loc 1 359 7 is_stmt 0 view .LVU159
 716 0000 0368     		ldr	r3, [r0]
 717              		.loc 1 359 6 view .LVU160
 718 0002 0BB1     		cbz	r3, .L53
 360:Middlewares/Third_Party/LwIP/system/OS/sys_arch.c ****     return 0;
 361:Middlewares/Third_Party/LwIP/system/OS/sys_arch.c ****   else
 362:Middlewares/Third_Party/LwIP/system/OS/sys_arch.c ****     return 1;
 719              		.loc 1 362 12 view .LVU161
 720 0004 0120     		movs	r0, #1
 721              	.LVL65:
 363:Middlewares/Third_Party/LwIP/system/OS/sys_arch.c **** }
 722              		.loc 1 363 1 view .LVU162
 723 0006 7047     		bx	lr
 724              	.LVL66:
 725              	.L53:
 360:Middlewares/Third_Party/LwIP/system/OS/sys_arch.c ****     return 0;
 726              		.loc 1 360 12 view .LVU163
 727 0008 0020     		movs	r0, #0
 728              	.LVL67:
 360:Middlewares/Third_Party/LwIP/system/OS/sys_arch.c ****     return 0;
 729              		.loc 1 360 12 view .LVU164
 730 000a 7047     		bx	lr
 731              		.cfi_endproc
 732              	.LFE377:
 734              		.section	.text.sys_sem_set_invalid,"ax",%progbits
 735              		.align	1
 736              		.global	sys_sem_set_invalid
 737              		.syntax unified
 738              		.thumb
 739              		.thumb_func
 741              	sys_sem_set_invalid:
 742              	.LVL68:
 743              	.LFB378:
 364:Middlewares/Third_Party/LwIP/system/OS/sys_arch.c **** 
 365:Middlewares/Third_Party/LwIP/system/OS/sys_arch.c **** /*-----------------------------------------------------------------------------------*/
 366:Middlewares/Third_Party/LwIP/system/OS/sys_arch.c **** void sys_sem_set_invalid(sys_sem_t *sem)
 367:Middlewares/Third_Party/LwIP/system/OS/sys_arch.c **** {
 744              		.loc 1 367 1 is_stmt 1 view -0
 745              		.cfi_startproc
 746              		@ args = 0, pretend = 0, frame = 0
 747              		@ frame_needed = 0, uses_anonymous_args = 0
 748              		@ link register save eliminated.
 368:Middlewares/Third_Party/LwIP/system/OS/sys_arch.c ****   *sem = SYS_SEM_NULL;
 749              		.loc 1 368 3 view .LVU166
 750              		.loc 1 368 8 is_stmt 0 view .LVU167
 751 0000 0023     		movs	r3, #0
 752 0002 0360     		str	r3, [r0]
 369:Middlewares/Third_Party/LwIP/system/OS/sys_arch.c **** }
 753              		.loc 1 369 1 view .LVU168
 754 0004 7047     		bx	lr
 755              		.cfi_endproc
 756              	.LFE378:
 758              		.section	.text.sys_init,"ax",%progbits
 759              		.align	1
 760              		.global	sys_init
 761              		.syntax unified
ARM GAS  C:\usertemp\cc5MZ8xZ.s 			page 21


 762              		.thumb
 763              		.thumb_func
 765              	sys_init:
 766              	.LFB379:
 370:Middlewares/Third_Party/LwIP/system/OS/sys_arch.c **** 
 371:Middlewares/Third_Party/LwIP/system/OS/sys_arch.c **** /*-----------------------------------------------------------------------------------*/
 372:Middlewares/Third_Party/LwIP/system/OS/sys_arch.c **** #if (osCMSIS < 0x20000U)
 373:Middlewares/Third_Party/LwIP/system/OS/sys_arch.c **** osMutexId lwip_sys_mutex;
 374:Middlewares/Third_Party/LwIP/system/OS/sys_arch.c **** osMutexDef(lwip_sys_mutex);
 375:Middlewares/Third_Party/LwIP/system/OS/sys_arch.c **** #else
 376:Middlewares/Third_Party/LwIP/system/OS/sys_arch.c **** osMutexId_t lwip_sys_mutex;
 377:Middlewares/Third_Party/LwIP/system/OS/sys_arch.c **** #endif
 378:Middlewares/Third_Party/LwIP/system/OS/sys_arch.c **** // Initialize sys arch
 379:Middlewares/Third_Party/LwIP/system/OS/sys_arch.c **** void sys_init(void)
 380:Middlewares/Third_Party/LwIP/system/OS/sys_arch.c **** {
 767              		.loc 1 380 1 is_stmt 1 view -0
 768              		.cfi_startproc
 769              		@ args = 0, pretend = 0, frame = 0
 770              		@ frame_needed = 0, uses_anonymous_args = 0
 771 0000 08B5     		push	{r3, lr}
 772              	.LCFI23:
 773              		.cfi_def_cfa_offset 8
 774              		.cfi_offset 3, -8
 775              		.cfi_offset 14, -4
 381:Middlewares/Third_Party/LwIP/system/OS/sys_arch.c **** #if (osCMSIS < 0x20000U)
 382:Middlewares/Third_Party/LwIP/system/OS/sys_arch.c ****   lwip_sys_mutex = osMutexCreate(osMutex(lwip_sys_mutex));
 776              		.loc 1 382 3 view .LVU170
 777              		.loc 1 382 20 is_stmt 0 view .LVU171
 778 0002 0348     		ldr	r0, .L57
 779 0004 FFF7FEFF 		bl	osMutexCreate
 780              	.LVL69:
 781              		.loc 1 382 18 discriminator 1 view .LVU172
 782 0008 024B     		ldr	r3, .L57+4
 783 000a 1860     		str	r0, [r3]
 383:Middlewares/Third_Party/LwIP/system/OS/sys_arch.c **** #else
 384:Middlewares/Third_Party/LwIP/system/OS/sys_arch.c ****   lwip_sys_mutex = osMutexNew(NULL);
 385:Middlewares/Third_Party/LwIP/system/OS/sys_arch.c **** #endif
 386:Middlewares/Third_Party/LwIP/system/OS/sys_arch.c **** }
 784              		.loc 1 386 1 view .LVU173
 785 000c 08BD     		pop	{r3, pc}
 786              	.L58:
 787 000e 00BF     		.align	2
 788              	.L57:
 789 0010 00000000 		.word	os_mutex_def_lwip_sys_mutex
 790 0014 00000000 		.word	lwip_sys_mutex
 791              		.cfi_endproc
 792              	.LFE379:
 794              		.section	.text.sys_mutex_new,"ax",%progbits
 795              		.align	1
 796              		.global	sys_mutex_new
 797              		.syntax unified
 798              		.thumb
 799              		.thumb_func
 801              	sys_mutex_new:
 802              	.LVL70:
 803              	.LFB380:
 387:Middlewares/Third_Party/LwIP/system/OS/sys_arch.c **** /*-----------------------------------------------------------------------------------*/
ARM GAS  C:\usertemp\cc5MZ8xZ.s 			page 22


 388:Middlewares/Third_Party/LwIP/system/OS/sys_arch.c ****                                       /* Mutexes*/
 389:Middlewares/Third_Party/LwIP/system/OS/sys_arch.c **** /*-----------------------------------------------------------------------------------*/
 390:Middlewares/Third_Party/LwIP/system/OS/sys_arch.c **** /*-----------------------------------------------------------------------------------*/
 391:Middlewares/Third_Party/LwIP/system/OS/sys_arch.c **** #if LWIP_COMPAT_MUTEX == 0
 392:Middlewares/Third_Party/LwIP/system/OS/sys_arch.c **** /* Create a new mutex*/
 393:Middlewares/Third_Party/LwIP/system/OS/sys_arch.c **** err_t sys_mutex_new(sys_mutex_t *mutex) {
 804              		.loc 1 393 41 is_stmt 1 view -0
 805              		.cfi_startproc
 806              		@ args = 0, pretend = 0, frame = 8
 807              		@ frame_needed = 0, uses_anonymous_args = 0
 808              		.loc 1 393 41 is_stmt 0 view .LVU175
 809 0000 10B5     		push	{r4, lr}
 810              	.LCFI24:
 811              		.cfi_def_cfa_offset 8
 812              		.cfi_offset 4, -8
 813              		.cfi_offset 14, -4
 814 0002 82B0     		sub	sp, sp, #8
 815              	.LCFI25:
 816              		.cfi_def_cfa_offset 16
 817 0004 0446     		mov	r4, r0
 394:Middlewares/Third_Party/LwIP/system/OS/sys_arch.c **** 
 395:Middlewares/Third_Party/LwIP/system/OS/sys_arch.c **** #if (osCMSIS < 0x20000U)
 396:Middlewares/Third_Party/LwIP/system/OS/sys_arch.c ****   osMutexDef(MUTEX);
 818              		.loc 1 396 3 is_stmt 1 view .LVU176
 819 0006 0023     		movs	r3, #0
 820 0008 0093     		str	r3, [sp]
 821 000a 0193     		str	r3, [sp, #4]
 397:Middlewares/Third_Party/LwIP/system/OS/sys_arch.c ****   *mutex = osMutexCreate(osMutex(MUTEX));
 822              		.loc 1 397 3 view .LVU177
 823              		.loc 1 397 12 is_stmt 0 view .LVU178
 824 000c 6846     		mov	r0, sp
 825              	.LVL71:
 826              		.loc 1 397 12 view .LVU179
 827 000e FFF7FEFF 		bl	osMutexCreate
 828              	.LVL72:
 829              		.loc 1 397 10 discriminator 1 view .LVU180
 830 0012 2060     		str	r0, [r4]
 398:Middlewares/Third_Party/LwIP/system/OS/sys_arch.c **** #else
 399:Middlewares/Third_Party/LwIP/system/OS/sys_arch.c ****   *mutex = osMutexNew(NULL);
 400:Middlewares/Third_Party/LwIP/system/OS/sys_arch.c **** #endif
 401:Middlewares/Third_Party/LwIP/system/OS/sys_arch.c **** 
 402:Middlewares/Third_Party/LwIP/system/OS/sys_arch.c ****   if(*mutex == NULL)
 831              		.loc 1 402 3 is_stmt 1 view .LVU181
 832              		.loc 1 402 5 is_stmt 0 view .LVU182
 833 0014 10B1     		cbz	r0, .L61
 403:Middlewares/Third_Party/LwIP/system/OS/sys_arch.c ****   {
 404:Middlewares/Third_Party/LwIP/system/OS/sys_arch.c **** #if SYS_STATS
 405:Middlewares/Third_Party/LwIP/system/OS/sys_arch.c ****     ++lwip_stats.sys.mutex.err;
 406:Middlewares/Third_Party/LwIP/system/OS/sys_arch.c **** #endif /* SYS_STATS */
 407:Middlewares/Third_Party/LwIP/system/OS/sys_arch.c ****     return ERR_MEM;
 408:Middlewares/Third_Party/LwIP/system/OS/sys_arch.c ****   }
 409:Middlewares/Third_Party/LwIP/system/OS/sys_arch.c **** 
 410:Middlewares/Third_Party/LwIP/system/OS/sys_arch.c **** #if SYS_STATS
 411:Middlewares/Third_Party/LwIP/system/OS/sys_arch.c ****   ++lwip_stats.sys.mutex.used;
 412:Middlewares/Third_Party/LwIP/system/OS/sys_arch.c ****   if (lwip_stats.sys.mutex.max < lwip_stats.sys.mutex.used) {
 413:Middlewares/Third_Party/LwIP/system/OS/sys_arch.c ****     lwip_stats.sys.mutex.max = lwip_stats.sys.mutex.used;
 414:Middlewares/Third_Party/LwIP/system/OS/sys_arch.c ****   }
ARM GAS  C:\usertemp\cc5MZ8xZ.s 			page 23


 415:Middlewares/Third_Party/LwIP/system/OS/sys_arch.c **** #endif /* SYS_STATS */
 416:Middlewares/Third_Party/LwIP/system/OS/sys_arch.c ****   return ERR_OK;
 834              		.loc 1 416 10 view .LVU183
 835 0016 0020     		movs	r0, #0
 836              	.L60:
 417:Middlewares/Third_Party/LwIP/system/OS/sys_arch.c **** }
 837              		.loc 1 417 1 view .LVU184
 838 0018 02B0     		add	sp, sp, #8
 839              	.LCFI26:
 840              		.cfi_remember_state
 841              		.cfi_def_cfa_offset 8
 842              		@ sp needed
 843 001a 10BD     		pop	{r4, pc}
 844              	.LVL73:
 845              	.L61:
 846              	.LCFI27:
 847              		.cfi_restore_state
 407:Middlewares/Third_Party/LwIP/system/OS/sys_arch.c ****   }
 848              		.loc 1 407 12 view .LVU185
 849 001c 4FF0FF30 		mov	r0, #-1
 850 0020 FAE7     		b	.L60
 851              		.cfi_endproc
 852              	.LFE380:
 854              		.section	.text.sys_mutex_free,"ax",%progbits
 855              		.align	1
 856              		.global	sys_mutex_free
 857              		.syntax unified
 858              		.thumb
 859              		.thumb_func
 861              	sys_mutex_free:
 862              	.LVL74:
 863              	.LFB381:
 418:Middlewares/Third_Party/LwIP/system/OS/sys_arch.c **** /*-----------------------------------------------------------------------------------*/
 419:Middlewares/Third_Party/LwIP/system/OS/sys_arch.c **** /* Deallocate a mutex*/
 420:Middlewares/Third_Party/LwIP/system/OS/sys_arch.c **** void sys_mutex_free(sys_mutex_t *mutex)
 421:Middlewares/Third_Party/LwIP/system/OS/sys_arch.c **** {
 864              		.loc 1 421 1 is_stmt 1 view -0
 865              		.cfi_startproc
 866              		@ args = 0, pretend = 0, frame = 0
 867              		@ frame_needed = 0, uses_anonymous_args = 0
 868              		.loc 1 421 1 is_stmt 0 view .LVU187
 869 0000 08B5     		push	{r3, lr}
 870              	.LCFI28:
 871              		.cfi_def_cfa_offset 8
 872              		.cfi_offset 3, -8
 873              		.cfi_offset 14, -4
 422:Middlewares/Third_Party/LwIP/system/OS/sys_arch.c **** #if SYS_STATS
 423:Middlewares/Third_Party/LwIP/system/OS/sys_arch.c ****       --lwip_stats.sys.mutex.used;
 424:Middlewares/Third_Party/LwIP/system/OS/sys_arch.c **** #endif /* SYS_STATS */
 425:Middlewares/Third_Party/LwIP/system/OS/sys_arch.c **** 
 426:Middlewares/Third_Party/LwIP/system/OS/sys_arch.c ****   osMutexDelete(*mutex);
 874              		.loc 1 426 3 is_stmt 1 view .LVU188
 875 0002 0068     		ldr	r0, [r0]
 876              	.LVL75:
 877              		.loc 1 426 3 is_stmt 0 view .LVU189
 878 0004 FFF7FEFF 		bl	osMutexDelete
 879              	.LVL76:
ARM GAS  C:\usertemp\cc5MZ8xZ.s 			page 24


 427:Middlewares/Third_Party/LwIP/system/OS/sys_arch.c **** }
 880              		.loc 1 427 1 view .LVU190
 881 0008 08BD     		pop	{r3, pc}
 882              		.cfi_endproc
 883              	.LFE381:
 885              		.section	.text.sys_mutex_lock,"ax",%progbits
 886              		.align	1
 887              		.global	sys_mutex_lock
 888              		.syntax unified
 889              		.thumb
 890              		.thumb_func
 892              	sys_mutex_lock:
 893              	.LVL77:
 894              	.LFB382:
 428:Middlewares/Third_Party/LwIP/system/OS/sys_arch.c **** /*-----------------------------------------------------------------------------------*/
 429:Middlewares/Third_Party/LwIP/system/OS/sys_arch.c **** /* Lock a mutex*/
 430:Middlewares/Third_Party/LwIP/system/OS/sys_arch.c **** void sys_mutex_lock(sys_mutex_t *mutex)
 431:Middlewares/Third_Party/LwIP/system/OS/sys_arch.c **** {
 895              		.loc 1 431 1 is_stmt 1 view -0
 896              		.cfi_startproc
 897              		@ args = 0, pretend = 0, frame = 0
 898              		@ frame_needed = 0, uses_anonymous_args = 0
 899              		.loc 1 431 1 is_stmt 0 view .LVU192
 900 0000 08B5     		push	{r3, lr}
 901              	.LCFI29:
 902              		.cfi_def_cfa_offset 8
 903              		.cfi_offset 3, -8
 904              		.cfi_offset 14, -4
 432:Middlewares/Third_Party/LwIP/system/OS/sys_arch.c **** #if (osCMSIS < 0x20000U)
 433:Middlewares/Third_Party/LwIP/system/OS/sys_arch.c ****   osMutexWait(*mutex, osWaitForever);
 905              		.loc 1 433 3 is_stmt 1 view .LVU193
 906 0002 4FF0FF31 		mov	r1, #-1
 907 0006 0068     		ldr	r0, [r0]
 908              	.LVL78:
 909              		.loc 1 433 3 is_stmt 0 view .LVU194
 910 0008 FFF7FEFF 		bl	osMutexWait
 911              	.LVL79:
 434:Middlewares/Third_Party/LwIP/system/OS/sys_arch.c **** #else
 435:Middlewares/Third_Party/LwIP/system/OS/sys_arch.c ****   osMutexAcquire(*mutex, osWaitForever);
 436:Middlewares/Third_Party/LwIP/system/OS/sys_arch.c **** #endif
 437:Middlewares/Third_Party/LwIP/system/OS/sys_arch.c **** }
 912              		.loc 1 437 1 view .LVU195
 913 000c 08BD     		pop	{r3, pc}
 914              		.cfi_endproc
 915              	.LFE382:
 917              		.section	.text.sys_mutex_unlock,"ax",%progbits
 918              		.align	1
 919              		.global	sys_mutex_unlock
 920              		.syntax unified
 921              		.thumb
 922              		.thumb_func
 924              	sys_mutex_unlock:
 925              	.LVL80:
 926              	.LFB383:
 438:Middlewares/Third_Party/LwIP/system/OS/sys_arch.c **** 
 439:Middlewares/Third_Party/LwIP/system/OS/sys_arch.c **** /*-----------------------------------------------------------------------------------*/
 440:Middlewares/Third_Party/LwIP/system/OS/sys_arch.c **** /* Unlock a mutex*/
ARM GAS  C:\usertemp\cc5MZ8xZ.s 			page 25


 441:Middlewares/Third_Party/LwIP/system/OS/sys_arch.c **** void sys_mutex_unlock(sys_mutex_t *mutex)
 442:Middlewares/Third_Party/LwIP/system/OS/sys_arch.c **** {
 927              		.loc 1 442 1 is_stmt 1 view -0
 928              		.cfi_startproc
 929              		@ args = 0, pretend = 0, frame = 0
 930              		@ frame_needed = 0, uses_anonymous_args = 0
 931              		.loc 1 442 1 is_stmt 0 view .LVU197
 932 0000 08B5     		push	{r3, lr}
 933              	.LCFI30:
 934              		.cfi_def_cfa_offset 8
 935              		.cfi_offset 3, -8
 936              		.cfi_offset 14, -4
 443:Middlewares/Third_Party/LwIP/system/OS/sys_arch.c ****   osMutexRelease(*mutex);
 937              		.loc 1 443 3 is_stmt 1 view .LVU198
 938 0002 0068     		ldr	r0, [r0]
 939              	.LVL81:
 940              		.loc 1 443 3 is_stmt 0 view .LVU199
 941 0004 FFF7FEFF 		bl	osMutexRelease
 942              	.LVL82:
 444:Middlewares/Third_Party/LwIP/system/OS/sys_arch.c **** }
 943              		.loc 1 444 1 view .LVU200
 944 0008 08BD     		pop	{r3, pc}
 945              		.cfi_endproc
 946              	.LFE383:
 948              		.section	.text.sys_thread_new,"ax",%progbits
 949              		.align	1
 950              		.global	sys_thread_new
 951              		.syntax unified
 952              		.thumb
 953              		.thumb_func
 955              	sys_thread_new:
 956              	.LVL83:
 957              	.LFB384:
 445:Middlewares/Third_Party/LwIP/system/OS/sys_arch.c **** #endif /*LWIP_COMPAT_MUTEX*/
 446:Middlewares/Third_Party/LwIP/system/OS/sys_arch.c **** /*-----------------------------------------------------------------------------------*/
 447:Middlewares/Third_Party/LwIP/system/OS/sys_arch.c **** // TODO
 448:Middlewares/Third_Party/LwIP/system/OS/sys_arch.c **** /*-----------------------------------------------------------------------------------*/
 449:Middlewares/Third_Party/LwIP/system/OS/sys_arch.c **** /*
 450:Middlewares/Third_Party/LwIP/system/OS/sys_arch.c ****   Starts a new thread with priority "prio" that will begin its execution in the
 451:Middlewares/Third_Party/LwIP/system/OS/sys_arch.c ****   function "thread()". The "arg" argument will be passed as an argument to the
 452:Middlewares/Third_Party/LwIP/system/OS/sys_arch.c ****   thread() function. The id of the new thread is returned. Both the id and
 453:Middlewares/Third_Party/LwIP/system/OS/sys_arch.c ****   the priority are system dependent.
 454:Middlewares/Third_Party/LwIP/system/OS/sys_arch.c **** */
 455:Middlewares/Third_Party/LwIP/system/OS/sys_arch.c **** sys_thread_t sys_thread_new(const char *name, lwip_thread_fn thread , void *arg, int stacksize, int
 456:Middlewares/Third_Party/LwIP/system/OS/sys_arch.c **** {
 958              		.loc 1 456 1 is_stmt 1 view -0
 959              		.cfi_startproc
 960              		@ args = 4, pretend = 0, frame = 32
 961              		@ frame_needed = 0, uses_anonymous_args = 0
 962              		.loc 1 456 1 is_stmt 0 view .LVU202
 963 0000 10B5     		push	{r4, lr}
 964              	.LCFI31:
 965              		.cfi_def_cfa_offset 8
 966              		.cfi_offset 4, -8
 967              		.cfi_offset 14, -4
 968 0002 88B0     		sub	sp, sp, #32
 969              	.LCFI32:
ARM GAS  C:\usertemp\cc5MZ8xZ.s 			page 26


 970              		.cfi_def_cfa_offset 40
 457:Middlewares/Third_Party/LwIP/system/OS/sys_arch.c **** #if (osCMSIS < 0x20000U)
 458:Middlewares/Third_Party/LwIP/system/OS/sys_arch.c ****   const osThreadDef_t os_thread_def = { (char *)name, (os_pthread)thread, (osPriority)prio, 0, stac
 971              		.loc 1 458 3 is_stmt 1 view .LVU203
 972              		.loc 1 458 23 is_stmt 0 view .LVU204
 973 0004 0024     		movs	r4, #0
 974 0006 0194     		str	r4, [sp, #4]
 975 0008 0294     		str	r4, [sp, #8]
 976 000a 0394     		str	r4, [sp, #12]
 977 000c 0494     		str	r4, [sp, #16]
 978 000e 0594     		str	r4, [sp, #20]
 979 0010 0694     		str	r4, [sp, #24]
 980 0012 0794     		str	r4, [sp, #28]
 981 0014 0190     		str	r0, [sp, #4]
 982 0016 0291     		str	r1, [sp, #8]
 983              		.loc 1 458 75 view .LVU205
 984 0018 BDF92810 		ldrsh	r1, [sp, #40]
 985              	.LVL84:
 986              		.loc 1 458 23 view .LVU206
 987 001c ADF80C10 		strh	r1, [sp, #12]	@ movhi
 988 0020 0593     		str	r3, [sp, #20]
 459:Middlewares/Third_Party/LwIP/system/OS/sys_arch.c ****   return osThreadCreate(&os_thread_def, arg);
 989              		.loc 1 459 3 is_stmt 1 view .LVU207
 990              		.loc 1 459 10 is_stmt 0 view .LVU208
 991 0022 1146     		mov	r1, r2
 992 0024 01A8     		add	r0, sp, #4
 993              	.LVL85:
 994              		.loc 1 459 10 view .LVU209
 995 0026 FFF7FEFF 		bl	osThreadCreate
 996              	.LVL86:
 460:Middlewares/Third_Party/LwIP/system/OS/sys_arch.c **** #else
 461:Middlewares/Third_Party/LwIP/system/OS/sys_arch.c ****   const osThreadAttr_t attributes = {
 462:Middlewares/Third_Party/LwIP/system/OS/sys_arch.c ****                         .name = name,
 463:Middlewares/Third_Party/LwIP/system/OS/sys_arch.c ****                         .stack_size = stacksize,
 464:Middlewares/Third_Party/LwIP/system/OS/sys_arch.c ****                         .priority = (osPriority_t)prio,
 465:Middlewares/Third_Party/LwIP/system/OS/sys_arch.c ****                       };
 466:Middlewares/Third_Party/LwIP/system/OS/sys_arch.c ****   return osThreadNew(thread, arg, &attributes);
 467:Middlewares/Third_Party/LwIP/system/OS/sys_arch.c **** #endif
 468:Middlewares/Third_Party/LwIP/system/OS/sys_arch.c **** }
 997              		.loc 1 468 1 view .LVU210
 998 002a 08B0     		add	sp, sp, #32
 999              	.LCFI33:
 1000              		.cfi_def_cfa_offset 8
 1001              		@ sp needed
 1002 002c 10BD     		pop	{r4, pc}
 1003              		.loc 1 468 1 view .LVU211
 1004              		.cfi_endproc
 1005              	.LFE384:
 1007              		.section	.text.sys_arch_protect,"ax",%progbits
 1008              		.align	1
 1009              		.global	sys_arch_protect
 1010              		.syntax unified
 1011              		.thumb
 1012              		.thumb_func
 1014              	sys_arch_protect:
 1015              	.LFB385:
 469:Middlewares/Third_Party/LwIP/system/OS/sys_arch.c **** 
ARM GAS  C:\usertemp\cc5MZ8xZ.s 			page 27


 470:Middlewares/Third_Party/LwIP/system/OS/sys_arch.c **** /*
 471:Middlewares/Third_Party/LwIP/system/OS/sys_arch.c ****   This optional function does a "fast" critical region protection and returns
 472:Middlewares/Third_Party/LwIP/system/OS/sys_arch.c ****   the previous protection level. This function is only called during very short
 473:Middlewares/Third_Party/LwIP/system/OS/sys_arch.c ****   critical regions. An embedded system which supports ISR-based drivers might
 474:Middlewares/Third_Party/LwIP/system/OS/sys_arch.c ****   want to implement this function by disabling interrupts. Task-based systems
 475:Middlewares/Third_Party/LwIP/system/OS/sys_arch.c ****   might want to implement this by using a mutex or disabling tasking. This
 476:Middlewares/Third_Party/LwIP/system/OS/sys_arch.c ****   function should support recursive calls from the same task or interrupt. In
 477:Middlewares/Third_Party/LwIP/system/OS/sys_arch.c ****   other words, sys_arch_protect() could be called while already protected. In
 478:Middlewares/Third_Party/LwIP/system/OS/sys_arch.c ****   that case the return value indicates that it is already protected.
 479:Middlewares/Third_Party/LwIP/system/OS/sys_arch.c **** 
 480:Middlewares/Third_Party/LwIP/system/OS/sys_arch.c ****   sys_arch_protect() is only required if your port is supporting an operating
 481:Middlewares/Third_Party/LwIP/system/OS/sys_arch.c ****   system.
 482:Middlewares/Third_Party/LwIP/system/OS/sys_arch.c **** 
 483:Middlewares/Third_Party/LwIP/system/OS/sys_arch.c ****   Note: This function is based on FreeRTOS API, because no equivalent CMSIS-RTOS
 484:Middlewares/Third_Party/LwIP/system/OS/sys_arch.c ****         API is available
 485:Middlewares/Third_Party/LwIP/system/OS/sys_arch.c **** */
 486:Middlewares/Third_Party/LwIP/system/OS/sys_arch.c **** sys_prot_t sys_arch_protect(void)
 487:Middlewares/Third_Party/LwIP/system/OS/sys_arch.c **** {
 1016              		.loc 1 487 1 is_stmt 1 view -0
 1017              		.cfi_startproc
 1018              		@ args = 0, pretend = 0, frame = 0
 1019              		@ frame_needed = 0, uses_anonymous_args = 0
 1020 0000 08B5     		push	{r3, lr}
 1021              	.LCFI34:
 1022              		.cfi_def_cfa_offset 8
 1023              		.cfi_offset 3, -8
 1024              		.cfi_offset 14, -4
 488:Middlewares/Third_Party/LwIP/system/OS/sys_arch.c **** #if (osCMSIS < 0x20000U)
 489:Middlewares/Third_Party/LwIP/system/OS/sys_arch.c ****   osMutexWait(lwip_sys_mutex, osWaitForever);
 1025              		.loc 1 489 3 view .LVU213
 1026 0002 4FF0FF31 		mov	r1, #-1
 1027 0006 034B     		ldr	r3, .L73
 1028 0008 1868     		ldr	r0, [r3]
 1029 000a FFF7FEFF 		bl	osMutexWait
 1030              	.LVL87:
 490:Middlewares/Third_Party/LwIP/system/OS/sys_arch.c **** #else
 491:Middlewares/Third_Party/LwIP/system/OS/sys_arch.c ****   osMutexAcquire(lwip_sys_mutex, osWaitForever);
 492:Middlewares/Third_Party/LwIP/system/OS/sys_arch.c **** #endif
 493:Middlewares/Third_Party/LwIP/system/OS/sys_arch.c ****   return (sys_prot_t)1;
 1031              		.loc 1 493 3 view .LVU214
 494:Middlewares/Third_Party/LwIP/system/OS/sys_arch.c **** }
 1032              		.loc 1 494 1 is_stmt 0 view .LVU215
 1033 000e 0120     		movs	r0, #1
 1034 0010 08BD     		pop	{r3, pc}
 1035              	.L74:
 1036 0012 00BF     		.align	2
 1037              	.L73:
 1038 0014 00000000 		.word	lwip_sys_mutex
 1039              		.cfi_endproc
 1040              	.LFE385:
 1042              		.section	.text.sys_arch_unprotect,"ax",%progbits
 1043              		.align	1
 1044              		.global	sys_arch_unprotect
 1045              		.syntax unified
 1046              		.thumb
 1047              		.thumb_func
 1049              	sys_arch_unprotect:
ARM GAS  C:\usertemp\cc5MZ8xZ.s 			page 28


 1050              	.LVL88:
 1051              	.LFB386:
 495:Middlewares/Third_Party/LwIP/system/OS/sys_arch.c **** 
 496:Middlewares/Third_Party/LwIP/system/OS/sys_arch.c **** 
 497:Middlewares/Third_Party/LwIP/system/OS/sys_arch.c **** /*
 498:Middlewares/Third_Party/LwIP/system/OS/sys_arch.c ****   This optional function does a "fast" set of critical region protection to the
 499:Middlewares/Third_Party/LwIP/system/OS/sys_arch.c ****   value specified by pval. See the documentation for sys_arch_protect() for
 500:Middlewares/Third_Party/LwIP/system/OS/sys_arch.c ****   more information. This function is only required if your port is supporting
 501:Middlewares/Third_Party/LwIP/system/OS/sys_arch.c ****   an operating system.
 502:Middlewares/Third_Party/LwIP/system/OS/sys_arch.c **** 
 503:Middlewares/Third_Party/LwIP/system/OS/sys_arch.c ****   Note: This function is based on FreeRTOS API, because no equivalent CMSIS-RTOS
 504:Middlewares/Third_Party/LwIP/system/OS/sys_arch.c ****         API is available
 505:Middlewares/Third_Party/LwIP/system/OS/sys_arch.c **** */
 506:Middlewares/Third_Party/LwIP/system/OS/sys_arch.c **** void sys_arch_unprotect(sys_prot_t pval)
 507:Middlewares/Third_Party/LwIP/system/OS/sys_arch.c **** {
 1052              		.loc 1 507 1 is_stmt 1 view -0
 1053              		.cfi_startproc
 1054              		@ args = 0, pretend = 0, frame = 0
 1055              		@ frame_needed = 0, uses_anonymous_args = 0
 1056              		.loc 1 507 1 is_stmt 0 view .LVU217
 1057 0000 08B5     		push	{r3, lr}
 1058              	.LCFI35:
 1059              		.cfi_def_cfa_offset 8
 1060              		.cfi_offset 3, -8
 1061              		.cfi_offset 14, -4
 508:Middlewares/Third_Party/LwIP/system/OS/sys_arch.c ****   ( void ) pval;
 1062              		.loc 1 508 3 is_stmt 1 view .LVU218
 509:Middlewares/Third_Party/LwIP/system/OS/sys_arch.c ****   osMutexRelease(lwip_sys_mutex);
 1063              		.loc 1 509 3 view .LVU219
 1064 0002 024B     		ldr	r3, .L77
 1065 0004 1868     		ldr	r0, [r3]
 1066              	.LVL89:
 1067              		.loc 1 509 3 is_stmt 0 view .LVU220
 1068 0006 FFF7FEFF 		bl	osMutexRelease
 1069              	.LVL90:
 510:Middlewares/Third_Party/LwIP/system/OS/sys_arch.c **** }
 1070              		.loc 1 510 1 view .LVU221
 1071 000a 08BD     		pop	{r3, pc}
 1072              	.L78:
 1073              		.align	2
 1074              	.L77:
 1075 000c 00000000 		.word	lwip_sys_mutex
 1076              		.cfi_endproc
 1077              	.LFE386:
 1079              		.global	os_mutex_def_lwip_sys_mutex
 1080              		.section	.rodata.os_mutex_def_lwip_sys_mutex,"a"
 1081              		.align	2
 1084              	os_mutex_def_lwip_sys_mutex:
 1085 0000 00000000 		.space	8
 1085      00000000 
 1086              		.global	lwip_sys_mutex
 1087              		.section	.bss.lwip_sys_mutex,"aw",%nobits
 1088              		.align	2
 1091              	lwip_sys_mutex:
 1092 0000 00000000 		.space	4
 1093              		.global	errno
 1094              		.section	.bss.errno,"aw",%nobits
ARM GAS  C:\usertemp\cc5MZ8xZ.s 			page 29


 1095              		.align	2
 1098              	errno:
 1099 0000 00000000 		.space	4
 1100              		.text
 1101              	.Letext0:
 1102              		.file 2 "D:/armtoolchain/arm-gnu-toolchain-13.3.rel1-mingw-w64-i686-arm-none-eabi/arm-none-eabi/in
 1103              		.file 3 "Middlewares/Third_Party/LwIP/system/arch/cc.h"
 1104              		.file 4 "D:/armtoolchain/arm-gnu-toolchain-13.3.rel1-mingw-w64-i686-arm-none-eabi/arm-none-eabi/in
 1105              		.file 5 "Middlewares/Third_Party/LwIP/src/include/lwip/arch.h"
 1106              		.file 6 "Middlewares/Third_Party/LwIP/src/include/lwip/err.h"
 1107              		.file 7 "Middlewares/Third_Party/FreeRTOS/Source/portable/GCC/ARM_CM4F/portmacro.h"
 1108              		.file 8 "Middlewares/Third_Party/FreeRTOS/Source/include/FreeRTOS.h"
 1109              		.file 9 "Middlewares/Third_Party/FreeRTOS/Source/include/task.h"
 1110              		.file 10 "Middlewares/Third_Party/FreeRTOS/Source/include/queue.h"
 1111              		.file 11 "Middlewares/Third_Party/FreeRTOS/Source/include/semphr.h"
 1112              		.file 12 "Middlewares/Third_Party/FreeRTOS/Source/CMSIS_RTOS/cmsis_os.h"
 1113              		.file 13 "Middlewares/Third_Party/LwIP/system/arch/sys_arch.h"
 1114              		.file 14 "Middlewares/Third_Party/LwIP/src/include/lwip/sys.h"
 1115              		.file 15 "Middlewares/Third_Party/LwIP/src/include/lwip/memp.h"
ARM GAS  C:\usertemp\cc5MZ8xZ.s 			page 30


DEFINED SYMBOLS
                            *ABS*:00000000 sys_arch.c
C:\usertemp\cc5MZ8xZ.s:20     .text.sys_mbox_new:00000000 $t
C:\usertemp\cc5MZ8xZ.s:26     .text.sys_mbox_new:00000000 sys_mbox_new
C:\usertemp\cc5MZ8xZ.s:85     .text.sys_mbox_free:00000000 $t
C:\usertemp\cc5MZ8xZ.s:91     .text.sys_mbox_free:00000000 sys_mbox_free
C:\usertemp\cc5MZ8xZ.s:124    .text.sys_mbox_post:00000000 $t
C:\usertemp\cc5MZ8xZ.s:130    .text.sys_mbox_post:00000000 sys_mbox_post
C:\usertemp\cc5MZ8xZ.s:167    .text.sys_mbox_trypost:00000000 $t
C:\usertemp\cc5MZ8xZ.s:173    .text.sys_mbox_trypost:00000000 sys_mbox_trypost
C:\usertemp\cc5MZ8xZ.s:211    .text.sys_mbox_trypost_fromisr:00000000 $t
C:\usertemp\cc5MZ8xZ.s:217    .text.sys_mbox_trypost_fromisr:00000000 sys_mbox_trypost_fromisr
C:\usertemp\cc5MZ8xZ.s:240    .text.sys_arch_mbox_fetch:00000000 $t
C:\usertemp\cc5MZ8xZ.s:246    .text.sys_arch_mbox_fetch:00000000 sys_arch_mbox_fetch
C:\usertemp\cc5MZ8xZ.s:354    .text.sys_arch_mbox_tryfetch:00000000 $t
C:\usertemp\cc5MZ8xZ.s:360    .text.sys_arch_mbox_tryfetch:00000000 sys_arch_mbox_tryfetch
C:\usertemp\cc5MZ8xZ.s:422    .text.sys_mbox_valid:00000000 $t
C:\usertemp\cc5MZ8xZ.s:428    .text.sys_mbox_valid:00000000 sys_mbox_valid
C:\usertemp\cc5MZ8xZ.s:457    .text.sys_mbox_set_invalid:00000000 $t
C:\usertemp\cc5MZ8xZ.s:463    .text.sys_mbox_set_invalid:00000000 sys_mbox_set_invalid
C:\usertemp\cc5MZ8xZ.s:481    .text.sys_sem_new:00000000 $t
C:\usertemp\cc5MZ8xZ.s:487    .text.sys_sem_new:00000000 sys_sem_new
C:\usertemp\cc5MZ8xZ.s:557    .text.sys_arch_sem_wait:00000000 $t
C:\usertemp\cc5MZ8xZ.s:563    .text.sys_arch_sem_wait:00000000 sys_arch_sem_wait
C:\usertemp\cc5MZ8xZ.s:638    .text.sys_sem_signal:00000000 $t
C:\usertemp\cc5MZ8xZ.s:644    .text.sys_sem_signal:00000000 sys_sem_signal
C:\usertemp\cc5MZ8xZ.s:669    .text.sys_sem_free:00000000 $t
C:\usertemp\cc5MZ8xZ.s:675    .text.sys_sem_free:00000000 sys_sem_free
C:\usertemp\cc5MZ8xZ.s:700    .text.sys_sem_valid:00000000 $t
C:\usertemp\cc5MZ8xZ.s:706    .text.sys_sem_valid:00000000 sys_sem_valid
C:\usertemp\cc5MZ8xZ.s:735    .text.sys_sem_set_invalid:00000000 $t
C:\usertemp\cc5MZ8xZ.s:741    .text.sys_sem_set_invalid:00000000 sys_sem_set_invalid
C:\usertemp\cc5MZ8xZ.s:759    .text.sys_init:00000000 $t
C:\usertemp\cc5MZ8xZ.s:765    .text.sys_init:00000000 sys_init
C:\usertemp\cc5MZ8xZ.s:789    .text.sys_init:00000010 $d
C:\usertemp\cc5MZ8xZ.s:1084   .rodata.os_mutex_def_lwip_sys_mutex:00000000 os_mutex_def_lwip_sys_mutex
C:\usertemp\cc5MZ8xZ.s:1091   .bss.lwip_sys_mutex:00000000 lwip_sys_mutex
C:\usertemp\cc5MZ8xZ.s:795    .text.sys_mutex_new:00000000 $t
C:\usertemp\cc5MZ8xZ.s:801    .text.sys_mutex_new:00000000 sys_mutex_new
C:\usertemp\cc5MZ8xZ.s:855    .text.sys_mutex_free:00000000 $t
C:\usertemp\cc5MZ8xZ.s:861    .text.sys_mutex_free:00000000 sys_mutex_free
C:\usertemp\cc5MZ8xZ.s:886    .text.sys_mutex_lock:00000000 $t
C:\usertemp\cc5MZ8xZ.s:892    .text.sys_mutex_lock:00000000 sys_mutex_lock
C:\usertemp\cc5MZ8xZ.s:918    .text.sys_mutex_unlock:00000000 $t
C:\usertemp\cc5MZ8xZ.s:924    .text.sys_mutex_unlock:00000000 sys_mutex_unlock
C:\usertemp\cc5MZ8xZ.s:949    .text.sys_thread_new:00000000 $t
C:\usertemp\cc5MZ8xZ.s:955    .text.sys_thread_new:00000000 sys_thread_new
C:\usertemp\cc5MZ8xZ.s:1008   .text.sys_arch_protect:00000000 $t
C:\usertemp\cc5MZ8xZ.s:1014   .text.sys_arch_protect:00000000 sys_arch_protect
C:\usertemp\cc5MZ8xZ.s:1038   .text.sys_arch_protect:00000014 $d
C:\usertemp\cc5MZ8xZ.s:1043   .text.sys_arch_unprotect:00000000 $t
C:\usertemp\cc5MZ8xZ.s:1049   .text.sys_arch_unprotect:00000000 sys_arch_unprotect
C:\usertemp\cc5MZ8xZ.s:1075   .text.sys_arch_unprotect:0000000c $d
C:\usertemp\cc5MZ8xZ.s:1081   .rodata.os_mutex_def_lwip_sys_mutex:00000000 $d
C:\usertemp\cc5MZ8xZ.s:1088   .bss.lwip_sys_mutex:00000000 $d
C:\usertemp\cc5MZ8xZ.s:1098   .bss.errno:00000000 errno
C:\usertemp\cc5MZ8xZ.s:1095   .bss.errno:00000000 $d
ARM GAS  C:\usertemp\cc5MZ8xZ.s 			page 31



UNDEFINED SYMBOLS
osMessageCreate
osMessageWaiting
osMessageDelete
osMessagePut
osKernelSysTick
osMessageGet
osSemaphoreCreate
osSemaphoreWait
osSemaphoreRelease
osSemaphoreDelete
osMutexCreate
osMutexDelete
osMutexWait
osMutexRelease
osThreadCreate
