ARM GAS  C:\usertemp\ccUDQ5mr.s 			page 1


   1              		.cpu cortex-m7
   2              		.arch armv7e-m
   3              		.fpu fpv5-d16
   4              		.eabi_attribute 28, 1
   5              		.eabi_attribute 20, 1
   6              		.eabi_attribute 21, 1
   7              		.eabi_attribute 23, 3
   8              		.eabi_attribute 24, 1
   9              		.eabi_attribute 25, 1
  10              		.eabi_attribute 26, 1
  11              		.eabi_attribute 30, 1
  12              		.eabi_attribute 34, 1
  13              		.eabi_attribute 18, 4
  14              		.file	"tftLCD.c"
  15              		.text
  16              	.Ltext0:
  17              		.cfi_sections	.debug_frame
  18              		.file 1 "Drivers/LCD_FMC/src/tftLCD.c"
  19              		.section	.text.delay_us,"ax",%progbits
  20              		.align	1
  21              		.global	delay_us
  22              		.syntax unified
  23              		.thumb
  24              		.thumb_func
  26              	delay_us:
  27              	.LVL0:
  28              	.LFB333:
   1:Drivers/LCD_FMC/src/tftLCD.c **** //
   2:Drivers/LCD_FMC/src/tftLCD.c **** // Created by Alex-Hua on 2024/7/26.
   3:Drivers/LCD_FMC/src/tftLCD.c **** //
   4:Drivers/LCD_FMC/src/tftLCD.c **** 
   5:Drivers/LCD_FMC/src/tftLCD.c **** #include "tftLCD.h"
   6:Drivers/LCD_FMC/src/tftLCD.c **** #include "font.h"
   7:Drivers/LCD_FMC/src/tftLCD.c **** //
   8:Drivers/LCD_FMC/src/tftLCD.c **** //本程序只供学习使用，未经作者许可，不得用于其它任何用途
   9:Drivers/LCD_FMC/src/tftLCD.c **** //ALIENTEK STM32开发板
  10:Drivers/LCD_FMC/src/tftLCD.c **** //2.8寸/3.5寸/4.3寸/7寸 TFT液晶驱动
  11:Drivers/LCD_FMC/src/tftLCD.c **** //支持驱动IC型号包括:ILI9341/NT35310/NT35510/SSD1963等
  12:Drivers/LCD_FMC/src/tftLCD.c **** //正点原子@ALIENTEK
  13:Drivers/LCD_FMC/src/tftLCD.c **** //技术论坛:www.openedv.com
  14:Drivers/LCD_FMC/src/tftLCD.c **** //创建日期:2017/4/8
  15:Drivers/LCD_FMC/src/tftLCD.c **** //版本：V4.0
  16:Drivers/LCD_FMC/src/tftLCD.c **** //版权所有，盗版必究。
  17:Drivers/LCD_FMC/src/tftLCD.c **** //Copyright(C) 广州市星翼电子科技有限公司 2014-2024
  18:Drivers/LCD_FMC/src/tftLCD.c **** //All rights reserved
  19:Drivers/LCD_FMC/src/tftLCD.c **** //*******************************************************************************
  20:Drivers/LCD_FMC/src/tftLCD.c **** //V4.0 20211111
  21:Drivers/LCD_FMC/src/tftLCD.c **** //1，去掉大部分不常用驱动IC的支持
  22:Drivers/LCD_FMC/src/tftLCD.c **** //2，新增对ST7789驱动IC的支持
  23:Drivers/LCD_FMC/src/tftLCD.c **** //3，优化代码结构（精简源码）
  24:Drivers/LCD_FMC/src/tftLCD.c **** //
  25:Drivers/LCD_FMC/src/tftLCD.c **** 
  26:Drivers/LCD_FMC/src/tftLCD.c **** //LCD的画笔颜色和背景色
  27:Drivers/LCD_FMC/src/tftLCD.c **** uint32_t POINT_COLOR=0xFF000000;		//画笔颜色
  28:Drivers/LCD_FMC/src/tftLCD.c **** uint32_t BACK_COLOR =0xFFFFFFFF;  	//背景色
  29:Drivers/LCD_FMC/src/tftLCD.c **** 
  30:Drivers/LCD_FMC/src/tftLCD.c **** //管理LCD重要参数
ARM GAS  C:\usertemp\ccUDQ5mr.s 			page 2


  31:Drivers/LCD_FMC/src/tftLCD.c **** //默认为竖屏
  32:Drivers/LCD_FMC/src/tftLCD.c **** _lcd_dev lcddev;
  33:Drivers/LCD_FMC/src/tftLCD.c **** 
  34:Drivers/LCD_FMC/src/tftLCD.c **** //MCU频率为168MHz时的us延时
  35:Drivers/LCD_FMC/src/tftLCD.c **** void delay_us(uint32_t nus)
  36:Drivers/LCD_FMC/src/tftLCD.c **** {
  29              		.loc 1 36 1 view -0
  30              		.cfi_startproc
  31              		@ args = 0, pretend = 0, frame = 0
  32              		@ frame_needed = 0, uses_anonymous_args = 0
  33              		@ link register save eliminated.
  37:Drivers/LCD_FMC/src/tftLCD.c ****     uint32_t Delay = nus * 168/4;
  34              		.loc 1 37 5 view .LVU1
  35              		.loc 1 37 26 is_stmt 0 view .LVU2
  36 0000 A823     		movs	r3, #168
  37 0002 03FB00F0 		mul	r0, r3, r0
  38              	.LVL1:
  39              		.loc 1 37 14 view .LVU3
  40 0006 8008     		lsrs	r0, r0, #2
  41              	.LVL2:
  42              	.L2:
  38:Drivers/LCD_FMC/src/tftLCD.c ****     do
  43              		.loc 1 38 5 is_stmt 1 view .LVU4
  39:Drivers/LCD_FMC/src/tftLCD.c ****     {
  40:Drivers/LCD_FMC/src/tftLCD.c ****         __NOP();
  44              		.loc 1 40 9 view .LVU5
  45              		.syntax unified
  46              	@ 40 "Drivers/LCD_FMC/src/tftLCD.c" 1
  47 0008 00BF     		nop
  48              	@ 0 "" 2
  41:Drivers/LCD_FMC/src/tftLCD.c ****     }
  42:Drivers/LCD_FMC/src/tftLCD.c ****     while (Delay --);
  49              		.loc 1 42 12 discriminator 1 view .LVU6
  50              		.thumb
  51              		.syntax unified
  52 000a 0346     		mov	r3, r0
  53              		.loc 1 42 18 is_stmt 0 discriminator 1 view .LVU7
  54 000c 0138     		subs	r0, r0, #1
  55              	.LVL3:
  56              		.loc 1 42 12 discriminator 1 view .LVU8
  57 000e 002B     		cmp	r3, #0
  58 0010 FAD1     		bne	.L2
  43:Drivers/LCD_FMC/src/tftLCD.c **** }
  59              		.loc 1 43 1 view .LVU9
  60 0012 7047     		bx	lr
  61              		.cfi_endproc
  62              	.LFE333:
  64              		.section	.text.LCD_WR_REG,"ax",%progbits
  65              		.align	1
  66              		.global	LCD_WR_REG
  67              		.syntax unified
  68              		.thumb
  69              		.thumb_func
  71              	LCD_WR_REG:
  72              	.LVL4:
  73              	.LFB334:
  44:Drivers/LCD_FMC/src/tftLCD.c **** /**/
ARM GAS  C:\usertemp\ccUDQ5mr.s 			page 3


  45:Drivers/LCD_FMC/src/tftLCD.c **** //写寄存器函数
  46:Drivers/LCD_FMC/src/tftLCD.c **** //regval:寄存器值
  47:Drivers/LCD_FMC/src/tftLCD.c **** void LCD_WR_REG(volatile uint16_t regval)
  48:Drivers/LCD_FMC/src/tftLCD.c **** {
  74              		.loc 1 48 1 is_stmt 1 view -0
  75              		.cfi_startproc
  76              		@ args = 0, pretend = 0, frame = 8
  77              		@ frame_needed = 0, uses_anonymous_args = 0
  78              		@ link register save eliminated.
  79              		.loc 1 48 1 is_stmt 0 view .LVU11
  80 0000 82B0     		sub	sp, sp, #8
  81              	.LCFI0:
  82              		.cfi_def_cfa_offset 8
  83 0002 ADF80600 		strh	r0, [sp, #6]	@ movhi
  49:Drivers/LCD_FMC/src/tftLCD.c ****     regval=regval;							//使用-O2优化的时候,必须插入的延时
  84              		.loc 1 49 5 is_stmt 1 view .LVU12
  85              		.loc 1 49 11 is_stmt 0 view .LVU13
  86 0006 BDF80630 		ldrh	r3, [sp, #6]
  87 000a 9BB2     		uxth	r3, r3
  88 000c ADF80630 		strh	r3, [sp, #6]	@ movhi
  50:Drivers/LCD_FMC/src/tftLCD.c ****     LCD->LCD_REG=regval;				//写入要写的寄存器序号
  89              		.loc 1 50 5 is_stmt 1 view .LVU14
  90              		.loc 1 50 17 is_stmt 0 view .LVU15
  91 0010 BDF80630 		ldrh	r3, [sp, #6]
  92 0014 9BB2     		uxth	r3, r3
  93 0016 4FF0C842 		mov	r2, #1677721600
  94 001a A2F87E30 		strh	r3, [r2, #126]	@ movhi
  51:Drivers/LCD_FMC/src/tftLCD.c **** }
  95              		.loc 1 51 1 view .LVU16
  96 001e 02B0     		add	sp, sp, #8
  97              	.LCFI1:
  98              		.cfi_def_cfa_offset 0
  99              		@ sp needed
 100 0020 7047     		bx	lr
 101              		.cfi_endproc
 102              	.LFE334:
 104              		.section	.text.LCD_WR_DATA,"ax",%progbits
 105              		.align	1
 106              		.global	LCD_WR_DATA
 107              		.syntax unified
 108              		.thumb
 109              		.thumb_func
 111              	LCD_WR_DATA:
 112              	.LVL5:
 113              	.LFB335:
  52:Drivers/LCD_FMC/src/tftLCD.c **** 
  53:Drivers/LCD_FMC/src/tftLCD.c **** //写LCD数据
  54:Drivers/LCD_FMC/src/tftLCD.c **** //data:要写入的值
  55:Drivers/LCD_FMC/src/tftLCD.c **** void LCD_WR_DATA(volatile uint16_t data)
  56:Drivers/LCD_FMC/src/tftLCD.c **** {
 114              		.loc 1 56 1 is_stmt 1 view -0
 115              		.cfi_startproc
 116              		@ args = 0, pretend = 0, frame = 8
 117              		@ frame_needed = 0, uses_anonymous_args = 0
 118              		@ link register save eliminated.
 119              		.loc 1 56 1 is_stmt 0 view .LVU18
 120 0000 82B0     		sub	sp, sp, #8
ARM GAS  C:\usertemp\ccUDQ5mr.s 			page 4


 121              	.LCFI2:
 122              		.cfi_def_cfa_offset 8
 123 0002 ADF80600 		strh	r0, [sp, #6]	@ movhi
  57:Drivers/LCD_FMC/src/tftLCD.c ****     data=data;									//使用-O2优化的时候,必须插入的延时
 124              		.loc 1 57 5 is_stmt 1 view .LVU19
 125              		.loc 1 57 9 is_stmt 0 view .LVU20
 126 0006 BDF80630 		ldrh	r3, [sp, #6]
 127 000a 9BB2     		uxth	r3, r3
 128 000c ADF80630 		strh	r3, [sp, #6]	@ movhi
  58:Drivers/LCD_FMC/src/tftLCD.c ****     LCD->LCD_RAM=data;
 129              		.loc 1 58 5 is_stmt 1 view .LVU21
 130              		.loc 1 58 17 is_stmt 0 view .LVU22
 131 0010 BDF80630 		ldrh	r3, [sp, #6]
 132 0014 9BB2     		uxth	r3, r3
 133 0016 4FF0C842 		mov	r2, #1677721600
 134 001a A2F88030 		strh	r3, [r2, #128]	@ movhi
  59:Drivers/LCD_FMC/src/tftLCD.c **** }
 135              		.loc 1 59 1 view .LVU23
 136 001e 02B0     		add	sp, sp, #8
 137              	.LCFI3:
 138              		.cfi_def_cfa_offset 0
 139              		@ sp needed
 140 0020 7047     		bx	lr
 141              		.cfi_endproc
 142              	.LFE335:
 144              		.section	.text.LCD_RD_DATA,"ax",%progbits
 145              		.align	1
 146              		.global	LCD_RD_DATA
 147              		.syntax unified
 148              		.thumb
 149              		.thumb_func
 151              	LCD_RD_DATA:
 152              	.LFB336:
  60:Drivers/LCD_FMC/src/tftLCD.c **** 
  61:Drivers/LCD_FMC/src/tftLCD.c **** //读LCD数据
  62:Drivers/LCD_FMC/src/tftLCD.c **** //返回值:读到的值
  63:Drivers/LCD_FMC/src/tftLCD.c **** uint16_t LCD_RD_DATA(void)
  64:Drivers/LCD_FMC/src/tftLCD.c **** {
 153              		.loc 1 64 1 is_stmt 1 view -0
 154              		.cfi_startproc
 155              		@ args = 0, pretend = 0, frame = 8
 156              		@ frame_needed = 0, uses_anonymous_args = 0
 157              		@ link register save eliminated.
 158 0000 82B0     		sub	sp, sp, #8
 159              	.LCFI4:
 160              		.cfi_def_cfa_offset 8
  65:Drivers/LCD_FMC/src/tftLCD.c ****     volatile uint16_t ram;			//防止被优化
 161              		.loc 1 65 5 view .LVU25
  66:Drivers/LCD_FMC/src/tftLCD.c ****     ram=LCD->LCD_RAM;
 162              		.loc 1 66 5 view .LVU26
 163              		.loc 1 66 12 is_stmt 0 view .LVU27
 164 0002 4FF0C843 		mov	r3, #1677721600
 165 0006 B3F88030 		ldrh	r3, [r3, #128]
 166 000a 9BB2     		uxth	r3, r3
 167              		.loc 1 66 8 view .LVU28
 168 000c ADF80630 		strh	r3, [sp, #6]	@ movhi
  67:Drivers/LCD_FMC/src/tftLCD.c ****     return ram;
ARM GAS  C:\usertemp\ccUDQ5mr.s 			page 5


 169              		.loc 1 67 5 is_stmt 1 view .LVU29
 170              		.loc 1 67 12 is_stmt 0 view .LVU30
 171 0010 BDF80600 		ldrh	r0, [sp, #6]
  68:Drivers/LCD_FMC/src/tftLCD.c **** }
 172              		.loc 1 68 1 view .LVU31
 173 0014 80B2     		uxth	r0, r0
 174 0016 02B0     		add	sp, sp, #8
 175              	.LCFI5:
 176              		.cfi_def_cfa_offset 0
 177              		@ sp needed
 178 0018 7047     		bx	lr
 179              		.cfi_endproc
 180              	.LFE336:
 182              		.section	.text.LCD_WriteReg,"ax",%progbits
 183              		.align	1
 184              		.global	LCD_WriteReg
 185              		.syntax unified
 186              		.thumb
 187              		.thumb_func
 189              	LCD_WriteReg:
 190              	.LVL6:
 191              	.LFB337:
  69:Drivers/LCD_FMC/src/tftLCD.c **** 
  70:Drivers/LCD_FMC/src/tftLCD.c **** //写寄存器
  71:Drivers/LCD_FMC/src/tftLCD.c **** //LCD_Reg:寄存器地址
  72:Drivers/LCD_FMC/src/tftLCD.c **** //LCD_RegValue:要写入的数据
  73:Drivers/LCD_FMC/src/tftLCD.c **** void LCD_WriteReg(uint16_t LCD_Reg,uint16_t LCD_RegValue)
  74:Drivers/LCD_FMC/src/tftLCD.c **** {
 192              		.loc 1 74 1 is_stmt 1 view -0
 193              		.cfi_startproc
 194              		@ args = 0, pretend = 0, frame = 0
 195              		@ frame_needed = 0, uses_anonymous_args = 0
 196              		@ link register save eliminated.
  75:Drivers/LCD_FMC/src/tftLCD.c ****     LCD->LCD_REG = LCD_Reg;			//写入要写的寄存器序号
 197              		.loc 1 75 5 view .LVU33
 198              		.loc 1 75 18 is_stmt 0 view .LVU34
 199 0000 4FF0C843 		mov	r3, #1677721600
 200 0004 A3F87E00 		strh	r0, [r3, #126]	@ movhi
  76:Drivers/LCD_FMC/src/tftLCD.c ****     LCD->LCD_RAM = LCD_RegValue;//写入数据
 201              		.loc 1 76 5 is_stmt 1 view .LVU35
 202              		.loc 1 76 18 is_stmt 0 view .LVU36
 203 0008 A3F88010 		strh	r1, [r3, #128]	@ movhi
  77:Drivers/LCD_FMC/src/tftLCD.c **** }
 204              		.loc 1 77 1 view .LVU37
 205 000c 7047     		bx	lr
 206              		.cfi_endproc
 207              	.LFE337:
 209              		.section	.text.LCD_ReadReg,"ax",%progbits
 210              		.align	1
 211              		.global	LCD_ReadReg
 212              		.syntax unified
 213              		.thumb
 214              		.thumb_func
 216              	LCD_ReadReg:
 217              	.LVL7:
 218              	.LFB338:
  78:Drivers/LCD_FMC/src/tftLCD.c **** 
ARM GAS  C:\usertemp\ccUDQ5mr.s 			page 6


  79:Drivers/LCD_FMC/src/tftLCD.c **** //读寄存器
  80:Drivers/LCD_FMC/src/tftLCD.c **** //LCD_Reg:寄存器地址
  81:Drivers/LCD_FMC/src/tftLCD.c **** //返回值:读到的数据
  82:Drivers/LCD_FMC/src/tftLCD.c **** uint16_t LCD_ReadReg(uint16_t LCD_Reg)
  83:Drivers/LCD_FMC/src/tftLCD.c **** {
 219              		.loc 1 83 1 is_stmt 1 view -0
 220              		.cfi_startproc
 221              		@ args = 0, pretend = 0, frame = 0
 222              		@ frame_needed = 0, uses_anonymous_args = 0
 223              		.loc 1 83 1 is_stmt 0 view .LVU39
 224 0000 08B5     		push	{r3, lr}
 225              	.LCFI6:
 226              		.cfi_def_cfa_offset 8
 227              		.cfi_offset 3, -8
 228              		.cfi_offset 14, -4
  84:Drivers/LCD_FMC/src/tftLCD.c ****     LCD_WR_REG(LCD_Reg);				//写入要读的寄存器序号
 229              		.loc 1 84 5 is_stmt 1 view .LVU40
 230 0002 FFF7FEFF 		bl	LCD_WR_REG
 231              	.LVL8:
  85:Drivers/LCD_FMC/src/tftLCD.c ****     delay_us(5);
 232              		.loc 1 85 5 view .LVU41
 233 0006 0520     		movs	r0, #5
 234 0008 FFF7FEFF 		bl	delay_us
 235              	.LVL9:
  86:Drivers/LCD_FMC/src/tftLCD.c ****     return LCD_RD_DATA();				//返回读到的值
 236              		.loc 1 86 5 view .LVU42
 237              		.loc 1 86 12 is_stmt 0 view .LVU43
 238 000c FFF7FEFF 		bl	LCD_RD_DATA
 239              	.LVL10:
  87:Drivers/LCD_FMC/src/tftLCD.c **** }
 240              		.loc 1 87 1 view .LVU44
 241 0010 08BD     		pop	{r3, pc}
 242              		.cfi_endproc
 243              	.LFE338:
 245              		.section	.text.LCD_WriteRAM_Prepare,"ax",%progbits
 246              		.align	1
 247              		.global	LCD_WriteRAM_Prepare
 248              		.syntax unified
 249              		.thumb
 250              		.thumb_func
 252              	LCD_WriteRAM_Prepare:
 253              	.LFB339:
  88:Drivers/LCD_FMC/src/tftLCD.c **** 
  89:Drivers/LCD_FMC/src/tftLCD.c **** //开始写GRAM
  90:Drivers/LCD_FMC/src/tftLCD.c **** void LCD_WriteRAM_Prepare(void)
  91:Drivers/LCD_FMC/src/tftLCD.c **** {
 254              		.loc 1 91 1 is_stmt 1 view -0
 255              		.cfi_startproc
 256              		@ args = 0, pretend = 0, frame = 0
 257              		@ frame_needed = 0, uses_anonymous_args = 0
 258              		@ link register save eliminated.
  92:Drivers/LCD_FMC/src/tftLCD.c ****     LCD->LCD_REG=lcddev.wramcmd;
 259              		.loc 1 92 5 view .LVU46
 260              		.loc 1 92 24 is_stmt 0 view .LVU47
 261 0000 034B     		ldr	r3, .L13
 262 0002 1A89     		ldrh	r2, [r3, #8]
 263              		.loc 1 92 17 view .LVU48
ARM GAS  C:\usertemp\ccUDQ5mr.s 			page 7


 264 0004 4FF0C843 		mov	r3, #1677721600
 265 0008 A3F87E20 		strh	r2, [r3, #126]	@ movhi
  93:Drivers/LCD_FMC/src/tftLCD.c **** }
 266              		.loc 1 93 1 view .LVU49
 267 000c 7047     		bx	lr
 268              	.L14:
 269 000e 00BF     		.align	2
 270              	.L13:
 271 0010 00000000 		.word	lcddev
 272              		.cfi_endproc
 273              	.LFE339:
 275              		.section	.text.LCD_WriteRAM,"ax",%progbits
 276              		.align	1
 277              		.global	LCD_WriteRAM
 278              		.syntax unified
 279              		.thumb
 280              		.thumb_func
 282              	LCD_WriteRAM:
 283              	.LVL11:
 284              	.LFB340:
  94:Drivers/LCD_FMC/src/tftLCD.c **** 
  95:Drivers/LCD_FMC/src/tftLCD.c **** //LCD写GRAM
  96:Drivers/LCD_FMC/src/tftLCD.c **** //RGB_Code:颜色值
  97:Drivers/LCD_FMC/src/tftLCD.c **** void LCD_WriteRAM(uint16_t RGB_Code)
  98:Drivers/LCD_FMC/src/tftLCD.c **** {
 285              		.loc 1 98 1 is_stmt 1 view -0
 286              		.cfi_startproc
 287              		@ args = 0, pretend = 0, frame = 0
 288              		@ frame_needed = 0, uses_anonymous_args = 0
 289              		@ link register save eliminated.
  99:Drivers/LCD_FMC/src/tftLCD.c ****     LCD->LCD_RAM = RGB_Code;		//写十六位GRAM
 290              		.loc 1 99 5 view .LVU51
 291              		.loc 1 99 18 is_stmt 0 view .LVU52
 292 0000 4FF0C843 		mov	r3, #1677721600
 293 0004 A3F88000 		strh	r0, [r3, #128]	@ movhi
 100:Drivers/LCD_FMC/src/tftLCD.c **** }
 294              		.loc 1 100 1 view .LVU53
 295 0008 7047     		bx	lr
 296              		.cfi_endproc
 297              	.LFE340:
 299              		.section	.text.LCD_BGR2RGB,"ax",%progbits
 300              		.align	1
 301              		.global	LCD_BGR2RGB
 302              		.syntax unified
 303              		.thumb
 304              		.thumb_func
 306              	LCD_BGR2RGB:
 307              	.LVL12:
 308              	.LFB341:
 101:Drivers/LCD_FMC/src/tftLCD.c **** 
 102:Drivers/LCD_FMC/src/tftLCD.c **** //从ILI93xx读出的数据为GBR格式，而我们写入的时候为RGB格式。
 103:Drivers/LCD_FMC/src/tftLCD.c **** //通过该函数转换
 104:Drivers/LCD_FMC/src/tftLCD.c **** //c:GBR格式的颜色值
 105:Drivers/LCD_FMC/src/tftLCD.c **** //返回值：RGB格式的颜色值
 106:Drivers/LCD_FMC/src/tftLCD.c **** uint16_t LCD_BGR2RGB(uint16_t c)
 107:Drivers/LCD_FMC/src/tftLCD.c **** {
 309              		.loc 1 107 1 is_stmt 1 view -0
ARM GAS  C:\usertemp\ccUDQ5mr.s 			page 8


 310              		.cfi_startproc
 311              		@ args = 0, pretend = 0, frame = 0
 312              		@ frame_needed = 0, uses_anonymous_args = 0
 313              		@ link register save eliminated.
 108:Drivers/LCD_FMC/src/tftLCD.c ****     uint16_t  r,g,b,rgb;
 314              		.loc 1 108 5 view .LVU55
 109:Drivers/LCD_FMC/src/tftLCD.c ****     b=(c>>0)&0x1f;
 315              		.loc 1 109 5 view .LVU56
 110:Drivers/LCD_FMC/src/tftLCD.c ****     g=(c>>5)&0x3f;
 316              		.loc 1 110 5 view .LVU57
 317              		.loc 1 110 13 is_stmt 0 view .LVU58
 318 0000 4309     		lsrs	r3, r0, #5
 319              	.LVL13:
 111:Drivers/LCD_FMC/src/tftLCD.c ****     r=(c>>11)&0x1f;
 320              		.loc 1 111 5 is_stmt 1 view .LVU59
 112:Drivers/LCD_FMC/src/tftLCD.c ****     rgb=(b<<11)+(g<<5)+(r<<0);
 321              		.loc 1 112 5 view .LVU60
 322              		.loc 1 112 19 is_stmt 0 view .LVU61
 323 0002 5B01     		lsls	r3, r3, #5
 324              	.LVL14:
 325              		.loc 1 112 19 view .LVU62
 326 0004 03F4FC63 		and	r3, r3, #2016
 327              		.loc 1 112 16 view .LVU63
 328 0008 03EBC023 		add	r3, r3, r0, lsl #11
 329 000c 9BB2     		uxth	r3, r3
 330              		.loc 1 112 8 view .LVU64
 331 000e 03EBD020 		add	r0, r3, r0, lsr #11
 332              	.LVL15:
 113:Drivers/LCD_FMC/src/tftLCD.c ****     return(rgb);
 333              		.loc 1 113 5 is_stmt 1 view .LVU65
 114:Drivers/LCD_FMC/src/tftLCD.c **** }
 334              		.loc 1 114 1 is_stmt 0 view .LVU66
 335 0012 80B2     		uxth	r0, r0
 336              		.loc 1 114 1 view .LVU67
 337 0014 7047     		bx	lr
 338              		.cfi_endproc
 339              	.LFE341:
 341              		.section	.text.opt_delay,"ax",%progbits
 342              		.align	1
 343              		.global	opt_delay
 344              		.syntax unified
 345              		.thumb
 346              		.thumb_func
 348              	opt_delay:
 349              	.LFB342:
 115:Drivers/LCD_FMC/src/tftLCD.c **** 
 116:Drivers/LCD_FMC/src/tftLCD.c **** //当mdk -O1时间优化时需要设置
 117:Drivers/LCD_FMC/src/tftLCD.c **** //延时i
 118:Drivers/LCD_FMC/src/tftLCD.c **** void opt_delay(uint8_t i)
 119:Drivers/LCD_FMC/src/tftLCD.c **** {
 350              		.loc 1 119 1 is_stmt 1 view -0
 351              		.cfi_startproc
 352              		@ args = 0, pretend = 0, frame = 0
 353              		@ frame_needed = 0, uses_anonymous_args = 0
 354              		@ link register save eliminated.
 355              	.LVL16:
 356              	.L18:
ARM GAS  C:\usertemp\ccUDQ5mr.s 			page 9


 120:Drivers/LCD_FMC/src/tftLCD.c ****     while(i--);
 357              		.loc 1 120 11 discriminator 1 view .LVU69
 358 0000 0346     		mov	r3, r0
 359              		.loc 1 120 12 is_stmt 0 discriminator 1 view .LVU70
 360 0002 0138     		subs	r0, r0, #1
 361 0004 C0B2     		uxtb	r0, r0
 362              	.LVL17:
 363              		.loc 1 120 11 discriminator 1 view .LVU71
 364 0006 002B     		cmp	r3, #0
 365 0008 FAD1     		bne	.L18
 121:Drivers/LCD_FMC/src/tftLCD.c **** }
 366              		.loc 1 121 1 view .LVU72
 367 000a 7047     		bx	lr
 368              		.cfi_endproc
 369              	.LFE342:
 371              		.section	.text.LCD_DisplayOn,"ax",%progbits
 372              		.align	1
 373              		.global	LCD_DisplayOn
 374              		.syntax unified
 375              		.thumb
 376              		.thumb_func
 378              	LCD_DisplayOn:
 379              	.LFB344:
 122:Drivers/LCD_FMC/src/tftLCD.c **** 
 123:Drivers/LCD_FMC/src/tftLCD.c **** //读取个某点的颜色值
 124:Drivers/LCD_FMC/src/tftLCD.c **** //x,y:坐标
 125:Drivers/LCD_FMC/src/tftLCD.c **** //返回值:此点的颜色
 126:Drivers/LCD_FMC/src/tftLCD.c **** uint32_t LCD_ReadPoint(uint16_t x,uint16_t y)
 127:Drivers/LCD_FMC/src/tftLCD.c **** {
 128:Drivers/LCD_FMC/src/tftLCD.c ****     uint16_t r=0,g=0,b=0;
 129:Drivers/LCD_FMC/src/tftLCD.c ****     if(x>=lcddev.width||y>=lcddev.height)return 0;			//超过了范围,直接返回
 130:Drivers/LCD_FMC/src/tftLCD.c ****     LCD_SetCursor(x,y);
 131:Drivers/LCD_FMC/src/tftLCD.c ****     if (lcddev.id == 0X5510)    												//5510 发送读GRAM指令
 132:Drivers/LCD_FMC/src/tftLCD.c ****     {
 133:Drivers/LCD_FMC/src/tftLCD.c ****         LCD_WR_REG(0X2E00);
 134:Drivers/LCD_FMC/src/tftLCD.c ****     }
 135:Drivers/LCD_FMC/src/tftLCD.c ****     else                        												//其他IC(9341/5310/1963/7789)发送读GRAM指令
 136:Drivers/LCD_FMC/src/tftLCD.c ****     {
 137:Drivers/LCD_FMC/src/tftLCD.c ****         LCD_WR_REG(0X2E);
 138:Drivers/LCD_FMC/src/tftLCD.c ****     }
 139:Drivers/LCD_FMC/src/tftLCD.c ****     r=LCD_RD_DATA();																		//dummy Read
 140:Drivers/LCD_FMC/src/tftLCD.c ****     if (lcddev.id == 0X1963)    												//对1963来说,是真读
 141:Drivers/LCD_FMC/src/tftLCD.c ****     {
 142:Drivers/LCD_FMC/src/tftLCD.c ****         return r;               												//1963直接读就可以
 143:Drivers/LCD_FMC/src/tftLCD.c ****     }
 144:Drivers/LCD_FMC/src/tftLCD.c ****     opt_delay(2);
 145:Drivers/LCD_FMC/src/tftLCD.c ****     r = LCD_RD_DATA();          												//实际坐标颜色
 146:Drivers/LCD_FMC/src/tftLCD.c **** 
 147:Drivers/LCD_FMC/src/tftLCD.c ****     //9341/5310/5510/7789 要分2次读出
 148:Drivers/LCD_FMC/src/tftLCD.c ****     opt_delay(2);
 149:Drivers/LCD_FMC/src/tftLCD.c ****     b = LCD_RD_DATA();
 150:Drivers/LCD_FMC/src/tftLCD.c ****     g = r & 0XFF;               												//对于9341/5310/5510/7789, 第一次读取的是RG的
 151:Drivers/LCD_FMC/src/tftLCD.c ****     g <<= 8;																						//9341/5310/5510/7789 需要公式转换一下
 152:Drivers/LCD_FMC/src/tftLCD.c ****     return (((r >> 11) << 11) | ((g >> 10) << 5) | (b >> 11));
 153:Drivers/LCD_FMC/src/tftLCD.c **** }
 154:Drivers/LCD_FMC/src/tftLCD.c **** 
 155:Drivers/LCD_FMC/src/tftLCD.c **** //LCD开启显示
ARM GAS  C:\usertemp\ccUDQ5mr.s 			page 10


 156:Drivers/LCD_FMC/src/tftLCD.c **** void LCD_DisplayOn(void)
 157:Drivers/LCD_FMC/src/tftLCD.c **** {
 380              		.loc 1 157 1 is_stmt 1 view -0
 381              		.cfi_startproc
 382              		@ args = 0, pretend = 0, frame = 0
 383              		@ frame_needed = 0, uses_anonymous_args = 0
 384 0000 08B5     		push	{r3, lr}
 385              	.LCFI7:
 386              		.cfi_def_cfa_offset 8
 387              		.cfi_offset 3, -8
 388              		.cfi_offset 14, -4
 158:Drivers/LCD_FMC/src/tftLCD.c ****     if (lcddev.id == 0X5510)    //5510开启显示指令
 389              		.loc 1 158 5 view .LVU74
 390              		.loc 1 158 15 is_stmt 0 view .LVU75
 391 0002 074B     		ldr	r3, .L24
 392 0004 9A88     		ldrh	r2, [r3, #4]
 393              		.loc 1 158 8 view .LVU76
 394 0006 45F21053 		movw	r3, #21776
 395 000a 9A42     		cmp	r2, r3
 396 000c 03D0     		beq	.L23
 159:Drivers/LCD_FMC/src/tftLCD.c ****     {
 160:Drivers/LCD_FMC/src/tftLCD.c ****         LCD_WR_REG(0X2900);     //开启显示
 161:Drivers/LCD_FMC/src/tftLCD.c ****     }
 162:Drivers/LCD_FMC/src/tftLCD.c ****     else                        //9341/5310/1963/7789 等发送开启显示指令
 163:Drivers/LCD_FMC/src/tftLCD.c ****     {
 164:Drivers/LCD_FMC/src/tftLCD.c ****         LCD_WR_REG(0X29);       //开启显示
 397              		.loc 1 164 9 is_stmt 1 view .LVU77
 398 000e 2920     		movs	r0, #41
 399 0010 FFF7FEFF 		bl	LCD_WR_REG
 400              	.LVL18:
 401              	.L19:
 165:Drivers/LCD_FMC/src/tftLCD.c ****     }
 166:Drivers/LCD_FMC/src/tftLCD.c **** }
 402              		.loc 1 166 1 is_stmt 0 view .LVU78
 403 0014 08BD     		pop	{r3, pc}
 404              	.L23:
 160:Drivers/LCD_FMC/src/tftLCD.c ****     }
 405              		.loc 1 160 9 is_stmt 1 view .LVU79
 406 0016 4FF42450 		mov	r0, #10496
 407 001a FFF7FEFF 		bl	LCD_WR_REG
 408              	.LVL19:
 409 001e F9E7     		b	.L19
 410              	.L25:
 411              		.align	2
 412              	.L24:
 413 0020 00000000 		.word	lcddev
 414              		.cfi_endproc
 415              	.LFE344:
 417              		.section	.text.LCD_DisplayOff,"ax",%progbits
 418              		.align	1
 419              		.global	LCD_DisplayOff
 420              		.syntax unified
 421              		.thumb
 422              		.thumb_func
 424              	LCD_DisplayOff:
 425              	.LFB345:
 167:Drivers/LCD_FMC/src/tftLCD.c **** 
ARM GAS  C:\usertemp\ccUDQ5mr.s 			page 11


 168:Drivers/LCD_FMC/src/tftLCD.c **** //LCD关闭显示
 169:Drivers/LCD_FMC/src/tftLCD.c **** void LCD_DisplayOff(void)
 170:Drivers/LCD_FMC/src/tftLCD.c **** {
 426              		.loc 1 170 1 view -0
 427              		.cfi_startproc
 428              		@ args = 0, pretend = 0, frame = 0
 429              		@ frame_needed = 0, uses_anonymous_args = 0
 430 0000 08B5     		push	{r3, lr}
 431              	.LCFI8:
 432              		.cfi_def_cfa_offset 8
 433              		.cfi_offset 3, -8
 434              		.cfi_offset 14, -4
 171:Drivers/LCD_FMC/src/tftLCD.c ****     if (lcddev.id == 0X5510)    //5510关闭显示指令
 435              		.loc 1 171 5 view .LVU81
 436              		.loc 1 171 15 is_stmt 0 view .LVU82
 437 0002 074B     		ldr	r3, .L31
 438 0004 9A88     		ldrh	r2, [r3, #4]
 439              		.loc 1 171 8 view .LVU83
 440 0006 45F21053 		movw	r3, #21776
 441 000a 9A42     		cmp	r2, r3
 442 000c 03D0     		beq	.L30
 172:Drivers/LCD_FMC/src/tftLCD.c ****     {
 173:Drivers/LCD_FMC/src/tftLCD.c ****         LCD_WR_REG(0X2800);     //关闭显示
 174:Drivers/LCD_FMC/src/tftLCD.c ****     }
 175:Drivers/LCD_FMC/src/tftLCD.c ****     else                        //9341/5310/1963/7789 等发送关闭显示指令
 176:Drivers/LCD_FMC/src/tftLCD.c ****     {
 177:Drivers/LCD_FMC/src/tftLCD.c ****         LCD_WR_REG(0X28);       //关闭显示
 443              		.loc 1 177 9 is_stmt 1 view .LVU84
 444 000e 2820     		movs	r0, #40
 445 0010 FFF7FEFF 		bl	LCD_WR_REG
 446              	.LVL20:
 447              	.L26:
 178:Drivers/LCD_FMC/src/tftLCD.c ****     }
 179:Drivers/LCD_FMC/src/tftLCD.c **** }
 448              		.loc 1 179 1 is_stmt 0 view .LVU85
 449 0014 08BD     		pop	{r3, pc}
 450              	.L30:
 173:Drivers/LCD_FMC/src/tftLCD.c ****     }
 451              		.loc 1 173 9 is_stmt 1 view .LVU86
 452 0016 4FF42050 		mov	r0, #10240
 453 001a FFF7FEFF 		bl	LCD_WR_REG
 454              	.LVL21:
 455 001e F9E7     		b	.L26
 456              	.L32:
 457              		.align	2
 458              	.L31:
 459 0020 00000000 		.word	lcddev
 460              		.cfi_endproc
 461              	.LFE345:
 463              		.section	.text.LCD_SetCursor,"ax",%progbits
 464              		.align	1
 465              		.global	LCD_SetCursor
 466              		.syntax unified
 467              		.thumb
 468              		.thumb_func
 470              	LCD_SetCursor:
 471              	.LVL22:
ARM GAS  C:\usertemp\ccUDQ5mr.s 			page 12


 472              	.LFB346:
 180:Drivers/LCD_FMC/src/tftLCD.c **** 
 181:Drivers/LCD_FMC/src/tftLCD.c **** //设置光标位置
 182:Drivers/LCD_FMC/src/tftLCD.c **** //Xpos:横坐标
 183:Drivers/LCD_FMC/src/tftLCD.c **** //Ypos:纵坐标
 184:Drivers/LCD_FMC/src/tftLCD.c **** void LCD_SetCursor(uint16_t Xpos, uint16_t Ypos)
 185:Drivers/LCD_FMC/src/tftLCD.c **** {
 473              		.loc 1 185 1 view -0
 474              		.cfi_startproc
 475              		@ args = 0, pretend = 0, frame = 0
 476              		@ frame_needed = 0, uses_anonymous_args = 0
 477              		.loc 1 185 1 is_stmt 0 view .LVU88
 478 0000 70B5     		push	{r4, r5, r6, lr}
 479              	.LCFI9:
 480              		.cfi_def_cfa_offset 16
 481              		.cfi_offset 4, -16
 482              		.cfi_offset 5, -12
 483              		.cfi_offset 6, -8
 484              		.cfi_offset 14, -4
 485 0002 0546     		mov	r5, r0
 486 0004 0C46     		mov	r4, r1
 186:Drivers/LCD_FMC/src/tftLCD.c ****     if (lcddev.id == 0X1963)
 487              		.loc 1 186 5 is_stmt 1 view .LVU89
 488              		.loc 1 186 15 is_stmt 0 view .LVU90
 489 0006 404B     		ldr	r3, .L42
 490 0008 9B88     		ldrh	r3, [r3, #4]
 491              		.loc 1 186 8 view .LVU91
 492 000a 41F66312 		movw	r2, #6499
 493 000e 9342     		cmp	r3, r2
 494 0010 17D0     		beq	.L40
 187:Drivers/LCD_FMC/src/tftLCD.c ****     {
 188:Drivers/LCD_FMC/src/tftLCD.c ****         if (lcddev.dir == 0)   //x坐标需要变换
 189:Drivers/LCD_FMC/src/tftLCD.c ****         {
 190:Drivers/LCD_FMC/src/tftLCD.c ****             Xpos = lcddev.width - 1 - Xpos;
 191:Drivers/LCD_FMC/src/tftLCD.c ****             LCD_WR_REG(lcddev.setxcmd);
 192:Drivers/LCD_FMC/src/tftLCD.c ****             LCD_WR_DATA(0);
 193:Drivers/LCD_FMC/src/tftLCD.c ****             LCD_WR_DATA(0);
 194:Drivers/LCD_FMC/src/tftLCD.c ****             LCD_WR_DATA(Xpos >> 8);
 195:Drivers/LCD_FMC/src/tftLCD.c ****             LCD_WR_DATA(Xpos & 0XFF);
 196:Drivers/LCD_FMC/src/tftLCD.c ****         }
 197:Drivers/LCD_FMC/src/tftLCD.c ****         else
 198:Drivers/LCD_FMC/src/tftLCD.c ****         {
 199:Drivers/LCD_FMC/src/tftLCD.c ****             LCD_WR_REG(lcddev.setxcmd);
 200:Drivers/LCD_FMC/src/tftLCD.c ****             LCD_WR_DATA(Xpos >> 8);
 201:Drivers/LCD_FMC/src/tftLCD.c ****             LCD_WR_DATA(Xpos & 0XFF);
 202:Drivers/LCD_FMC/src/tftLCD.c ****             LCD_WR_DATA((lcddev.width - 1) >> 8);
 203:Drivers/LCD_FMC/src/tftLCD.c ****             LCD_WR_DATA((lcddev.width - 1) & 0XFF);
 204:Drivers/LCD_FMC/src/tftLCD.c ****         }
 205:Drivers/LCD_FMC/src/tftLCD.c **** 
 206:Drivers/LCD_FMC/src/tftLCD.c ****         LCD_WR_REG(lcddev.setycmd);
 207:Drivers/LCD_FMC/src/tftLCD.c ****         LCD_WR_DATA(Ypos >> 8);
 208:Drivers/LCD_FMC/src/tftLCD.c ****         LCD_WR_DATA(Ypos & 0XFF);
 209:Drivers/LCD_FMC/src/tftLCD.c ****         LCD_WR_DATA((lcddev.height - 1) >> 8);
 210:Drivers/LCD_FMC/src/tftLCD.c ****         LCD_WR_DATA((lcddev.height - 1) & 0XFF);
 211:Drivers/LCD_FMC/src/tftLCD.c **** 
 212:Drivers/LCD_FMC/src/tftLCD.c ****     }
 213:Drivers/LCD_FMC/src/tftLCD.c ****     else if (lcddev.id == 0X5510)
ARM GAS  C:\usertemp\ccUDQ5mr.s 			page 13


 495              		.loc 1 213 10 is_stmt 1 view .LVU92
 496              		.loc 1 213 13 is_stmt 0 view .LVU93
 497 0012 45F21052 		movw	r2, #21776
 498 0016 9342     		cmp	r3, r2
 499 0018 57D0     		beq	.L41
 214:Drivers/LCD_FMC/src/tftLCD.c ****     {
 215:Drivers/LCD_FMC/src/tftLCD.c ****         LCD_WR_REG(lcddev.setxcmd);
 216:Drivers/LCD_FMC/src/tftLCD.c ****         LCD_WR_DATA(Xpos >> 8);
 217:Drivers/LCD_FMC/src/tftLCD.c ****         LCD_WR_REG(lcddev.setxcmd + 1);
 218:Drivers/LCD_FMC/src/tftLCD.c ****         LCD_WR_DATA(Xpos & 0XFF);
 219:Drivers/LCD_FMC/src/tftLCD.c ****         LCD_WR_REG(lcddev.setycmd);
 220:Drivers/LCD_FMC/src/tftLCD.c ****         LCD_WR_DATA(Ypos >> 8);
 221:Drivers/LCD_FMC/src/tftLCD.c ****         LCD_WR_REG(lcddev.setycmd + 1);
 222:Drivers/LCD_FMC/src/tftLCD.c ****         LCD_WR_DATA(Ypos & 0XFF);
 223:Drivers/LCD_FMC/src/tftLCD.c ****     }
 224:Drivers/LCD_FMC/src/tftLCD.c ****     else     //9341/5310/7789等设置坐标
 225:Drivers/LCD_FMC/src/tftLCD.c ****     {
 226:Drivers/LCD_FMC/src/tftLCD.c ****         LCD_WR_REG(lcddev.setxcmd);
 500              		.loc 1 226 9 is_stmt 1 view .LVU94
 501 001a 3B4E     		ldr	r6, .L42
 502 001c 7089     		ldrh	r0, [r6, #10]
 503              	.LVL23:
 504              		.loc 1 226 9 is_stmt 0 view .LVU95
 505 001e FFF7FEFF 		bl	LCD_WR_REG
 506              	.LVL24:
 227:Drivers/LCD_FMC/src/tftLCD.c ****         LCD_WR_DATA(Xpos >> 8);
 507              		.loc 1 227 9 is_stmt 1 view .LVU96
 508 0022 280A     		lsrs	r0, r5, #8
 509 0024 FFF7FEFF 		bl	LCD_WR_DATA
 510              	.LVL25:
 228:Drivers/LCD_FMC/src/tftLCD.c ****         LCD_WR_DATA(Xpos & 0XFF);
 511              		.loc 1 228 9 view .LVU97
 512 0028 E8B2     		uxtb	r0, r5
 513 002a FFF7FEFF 		bl	LCD_WR_DATA
 514              	.LVL26:
 229:Drivers/LCD_FMC/src/tftLCD.c ****         LCD_WR_REG(lcddev.setycmd);
 515              		.loc 1 229 9 view .LVU98
 516 002e B089     		ldrh	r0, [r6, #12]
 517 0030 FFF7FEFF 		bl	LCD_WR_REG
 518              	.LVL27:
 230:Drivers/LCD_FMC/src/tftLCD.c ****         LCD_WR_DATA(Ypos >> 8);
 519              		.loc 1 230 9 view .LVU99
 520 0034 200A     		lsrs	r0, r4, #8
 521 0036 FFF7FEFF 		bl	LCD_WR_DATA
 522              	.LVL28:
 231:Drivers/LCD_FMC/src/tftLCD.c ****         LCD_WR_DATA(Ypos & 0XFF);
 523              		.loc 1 231 9 view .LVU100
 524 003a E0B2     		uxtb	r0, r4
 525 003c FFF7FEFF 		bl	LCD_WR_DATA
 526              	.LVL29:
 527              	.L33:
 232:Drivers/LCD_FMC/src/tftLCD.c ****     }
 233:Drivers/LCD_FMC/src/tftLCD.c **** }
 528              		.loc 1 233 1 is_stmt 0 view .LVU101
 529 0040 70BD     		pop	{r4, r5, r6, pc}
 530              	.LVL30:
 531              	.L40:
ARM GAS  C:\usertemp\ccUDQ5mr.s 			page 14


 188:Drivers/LCD_FMC/src/tftLCD.c ****         {
 532              		.loc 1 188 9 is_stmt 1 view .LVU102
 188:Drivers/LCD_FMC/src/tftLCD.c ****         {
 533              		.loc 1 188 19 is_stmt 0 view .LVU103
 534 0042 314B     		ldr	r3, .L42
 535 0044 9B79     		ldrb	r3, [r3, #6]	@ zero_extendqisi2
 188:Drivers/LCD_FMC/src/tftLCD.c ****         {
 536              		.loc 1 188 12 view .LVU104
 537 0046 53BB     		cbnz	r3, .L35
 190:Drivers/LCD_FMC/src/tftLCD.c ****             LCD_WR_REG(lcddev.setxcmd);
 538              		.loc 1 190 13 is_stmt 1 view .LVU105
 190:Drivers/LCD_FMC/src/tftLCD.c ****             LCD_WR_REG(lcddev.setxcmd);
 539              		.loc 1 190 26 is_stmt 0 view .LVU106
 540 0048 2F4A     		ldr	r2, .L42
 541 004a 1388     		ldrh	r3, [r2]
 190:Drivers/LCD_FMC/src/tftLCD.c ****             LCD_WR_REG(lcddev.setxcmd);
 542              		.loc 1 190 37 view .LVU107
 543 004c 1D1A     		subs	r5, r3, r0
 544 004e ADB2     		uxth	r5, r5
 190:Drivers/LCD_FMC/src/tftLCD.c ****             LCD_WR_REG(lcddev.setxcmd);
 545              		.loc 1 190 18 view .LVU108
 546 0050 013D     		subs	r5, r5, #1
 547 0052 ADB2     		uxth	r5, r5
 548              	.LVL31:
 191:Drivers/LCD_FMC/src/tftLCD.c ****             LCD_WR_DATA(0);
 549              		.loc 1 191 13 is_stmt 1 view .LVU109
 550 0054 5089     		ldrh	r0, [r2, #10]
 551 0056 FFF7FEFF 		bl	LCD_WR_REG
 552              	.LVL32:
 192:Drivers/LCD_FMC/src/tftLCD.c ****             LCD_WR_DATA(0);
 553              		.loc 1 192 13 view .LVU110
 554 005a 0020     		movs	r0, #0
 555 005c FFF7FEFF 		bl	LCD_WR_DATA
 556              	.LVL33:
 193:Drivers/LCD_FMC/src/tftLCD.c ****             LCD_WR_DATA(Xpos >> 8);
 557              		.loc 1 193 13 view .LVU111
 558 0060 0020     		movs	r0, #0
 559 0062 FFF7FEFF 		bl	LCD_WR_DATA
 560              	.LVL34:
 194:Drivers/LCD_FMC/src/tftLCD.c ****             LCD_WR_DATA(Xpos & 0XFF);
 561              		.loc 1 194 13 view .LVU112
 562 0066 280A     		lsrs	r0, r5, #8
 563 0068 FFF7FEFF 		bl	LCD_WR_DATA
 564              	.LVL35:
 195:Drivers/LCD_FMC/src/tftLCD.c ****         }
 565              		.loc 1 195 13 view .LVU113
 566 006c E8B2     		uxtb	r0, r5
 567 006e FFF7FEFF 		bl	LCD_WR_DATA
 568              	.LVL36:
 569              	.L36:
 206:Drivers/LCD_FMC/src/tftLCD.c ****         LCD_WR_DATA(Ypos >> 8);
 570              		.loc 1 206 9 view .LVU114
 571 0072 254D     		ldr	r5, .L42
 572 0074 A889     		ldrh	r0, [r5, #12]
 573 0076 FFF7FEFF 		bl	LCD_WR_REG
 574              	.LVL37:
 207:Drivers/LCD_FMC/src/tftLCD.c ****         LCD_WR_DATA(Ypos & 0XFF);
ARM GAS  C:\usertemp\ccUDQ5mr.s 			page 15


 575              		.loc 1 207 9 view .LVU115
 576 007a 200A     		lsrs	r0, r4, #8
 577 007c FFF7FEFF 		bl	LCD_WR_DATA
 578              	.LVL38:
 208:Drivers/LCD_FMC/src/tftLCD.c ****         LCD_WR_DATA((lcddev.height - 1) >> 8);
 579              		.loc 1 208 9 view .LVU116
 580 0080 E0B2     		uxtb	r0, r4
 581 0082 FFF7FEFF 		bl	LCD_WR_DATA
 582              	.LVL39:
 209:Drivers/LCD_FMC/src/tftLCD.c ****         LCD_WR_DATA((lcddev.height - 1) & 0XFF);
 583              		.loc 1 209 9 view .LVU117
 209:Drivers/LCD_FMC/src/tftLCD.c ****         LCD_WR_DATA((lcddev.height - 1) & 0XFF);
 584              		.loc 1 209 28 is_stmt 0 view .LVU118
 585 0086 6888     		ldrh	r0, [r5, #2]
 209:Drivers/LCD_FMC/src/tftLCD.c ****         LCD_WR_DATA((lcddev.height - 1) & 0XFF);
 586              		.loc 1 209 36 view .LVU119
 587 0088 0138     		subs	r0, r0, #1
 209:Drivers/LCD_FMC/src/tftLCD.c ****         LCD_WR_DATA((lcddev.height - 1) & 0XFF);
 588              		.loc 1 209 9 view .LVU120
 589 008a C0F30F20 		ubfx	r0, r0, #8, #16
 590 008e FFF7FEFF 		bl	LCD_WR_DATA
 591              	.LVL40:
 210:Drivers/LCD_FMC/src/tftLCD.c **** 
 592              		.loc 1 210 9 is_stmt 1 view .LVU121
 210:Drivers/LCD_FMC/src/tftLCD.c **** 
 593              		.loc 1 210 28 is_stmt 0 view .LVU122
 594 0092 6888     		ldrh	r0, [r5, #2]
 210:Drivers/LCD_FMC/src/tftLCD.c **** 
 595              		.loc 1 210 36 view .LVU123
 596 0094 0138     		subs	r0, r0, #1
 210:Drivers/LCD_FMC/src/tftLCD.c **** 
 597              		.loc 1 210 9 view .LVU124
 598 0096 C0B2     		uxtb	r0, r0
 599 0098 FFF7FEFF 		bl	LCD_WR_DATA
 600              	.LVL41:
 601 009c D0E7     		b	.L33
 602              	.LVL42:
 603              	.L35:
 199:Drivers/LCD_FMC/src/tftLCD.c ****             LCD_WR_DATA(Xpos >> 8);
 604              		.loc 1 199 13 is_stmt 1 view .LVU125
 605 009e 1A4E     		ldr	r6, .L42
 606 00a0 7089     		ldrh	r0, [r6, #10]
 607              	.LVL43:
 199:Drivers/LCD_FMC/src/tftLCD.c ****             LCD_WR_DATA(Xpos >> 8);
 608              		.loc 1 199 13 is_stmt 0 view .LVU126
 609 00a2 FFF7FEFF 		bl	LCD_WR_REG
 610              	.LVL44:
 200:Drivers/LCD_FMC/src/tftLCD.c ****             LCD_WR_DATA(Xpos & 0XFF);
 611              		.loc 1 200 13 is_stmt 1 view .LVU127
 612 00a6 280A     		lsrs	r0, r5, #8
 613 00a8 FFF7FEFF 		bl	LCD_WR_DATA
 614              	.LVL45:
 201:Drivers/LCD_FMC/src/tftLCD.c ****             LCD_WR_DATA((lcddev.width - 1) >> 8);
 615              		.loc 1 201 13 view .LVU128
 616 00ac E8B2     		uxtb	r0, r5
 617 00ae FFF7FEFF 		bl	LCD_WR_DATA
 618              	.LVL46:
ARM GAS  C:\usertemp\ccUDQ5mr.s 			page 16


 202:Drivers/LCD_FMC/src/tftLCD.c ****             LCD_WR_DATA((lcddev.width - 1) & 0XFF);
 619              		.loc 1 202 13 view .LVU129
 202:Drivers/LCD_FMC/src/tftLCD.c ****             LCD_WR_DATA((lcddev.width - 1) & 0XFF);
 620              		.loc 1 202 32 is_stmt 0 view .LVU130
 621 00b2 3088     		ldrh	r0, [r6]
 202:Drivers/LCD_FMC/src/tftLCD.c ****             LCD_WR_DATA((lcddev.width - 1) & 0XFF);
 622              		.loc 1 202 39 view .LVU131
 623 00b4 0138     		subs	r0, r0, #1
 202:Drivers/LCD_FMC/src/tftLCD.c ****             LCD_WR_DATA((lcddev.width - 1) & 0XFF);
 624              		.loc 1 202 13 view .LVU132
 625 00b6 C0F30F20 		ubfx	r0, r0, #8, #16
 626 00ba FFF7FEFF 		bl	LCD_WR_DATA
 627              	.LVL47:
 203:Drivers/LCD_FMC/src/tftLCD.c ****         }
 628              		.loc 1 203 13 is_stmt 1 view .LVU133
 203:Drivers/LCD_FMC/src/tftLCD.c ****         }
 629              		.loc 1 203 32 is_stmt 0 view .LVU134
 630 00be 3088     		ldrh	r0, [r6]
 203:Drivers/LCD_FMC/src/tftLCD.c ****         }
 631              		.loc 1 203 39 view .LVU135
 632 00c0 0138     		subs	r0, r0, #1
 203:Drivers/LCD_FMC/src/tftLCD.c ****         }
 633              		.loc 1 203 13 view .LVU136
 634 00c2 C0B2     		uxtb	r0, r0
 635 00c4 FFF7FEFF 		bl	LCD_WR_DATA
 636              	.LVL48:
 637 00c8 D3E7     		b	.L36
 638              	.LVL49:
 639              	.L41:
 215:Drivers/LCD_FMC/src/tftLCD.c ****         LCD_WR_DATA(Xpos >> 8);
 640              		.loc 1 215 9 is_stmt 1 view .LVU137
 641 00ca 0F4E     		ldr	r6, .L42
 642 00cc 7089     		ldrh	r0, [r6, #10]
 643              	.LVL50:
 215:Drivers/LCD_FMC/src/tftLCD.c ****         LCD_WR_DATA(Xpos >> 8);
 644              		.loc 1 215 9 is_stmt 0 view .LVU138
 645 00ce FFF7FEFF 		bl	LCD_WR_REG
 646              	.LVL51:
 216:Drivers/LCD_FMC/src/tftLCD.c ****         LCD_WR_REG(lcddev.setxcmd + 1);
 647              		.loc 1 216 9 is_stmt 1 view .LVU139
 648 00d2 280A     		lsrs	r0, r5, #8
 649 00d4 FFF7FEFF 		bl	LCD_WR_DATA
 650              	.LVL52:
 217:Drivers/LCD_FMC/src/tftLCD.c ****         LCD_WR_DATA(Xpos & 0XFF);
 651              		.loc 1 217 9 view .LVU140
 217:Drivers/LCD_FMC/src/tftLCD.c ****         LCD_WR_DATA(Xpos & 0XFF);
 652              		.loc 1 217 26 is_stmt 0 view .LVU141
 653 00d8 7089     		ldrh	r0, [r6, #10]
 217:Drivers/LCD_FMC/src/tftLCD.c ****         LCD_WR_DATA(Xpos & 0XFF);
 654              		.loc 1 217 9 view .LVU142
 655 00da 0130     		adds	r0, r0, #1
 656 00dc 80B2     		uxth	r0, r0
 657 00de FFF7FEFF 		bl	LCD_WR_REG
 658              	.LVL53:
 218:Drivers/LCD_FMC/src/tftLCD.c ****         LCD_WR_REG(lcddev.setycmd);
 659              		.loc 1 218 9 is_stmt 1 view .LVU143
 660 00e2 E8B2     		uxtb	r0, r5
ARM GAS  C:\usertemp\ccUDQ5mr.s 			page 17


 661 00e4 FFF7FEFF 		bl	LCD_WR_DATA
 662              	.LVL54:
 219:Drivers/LCD_FMC/src/tftLCD.c ****         LCD_WR_DATA(Ypos >> 8);
 663              		.loc 1 219 9 view .LVU144
 664 00e8 B089     		ldrh	r0, [r6, #12]
 665 00ea FFF7FEFF 		bl	LCD_WR_REG
 666              	.LVL55:
 220:Drivers/LCD_FMC/src/tftLCD.c ****         LCD_WR_REG(lcddev.setycmd + 1);
 667              		.loc 1 220 9 view .LVU145
 668 00ee 200A     		lsrs	r0, r4, #8
 669 00f0 FFF7FEFF 		bl	LCD_WR_DATA
 670              	.LVL56:
 221:Drivers/LCD_FMC/src/tftLCD.c ****         LCD_WR_DATA(Ypos & 0XFF);
 671              		.loc 1 221 9 view .LVU146
 221:Drivers/LCD_FMC/src/tftLCD.c ****         LCD_WR_DATA(Ypos & 0XFF);
 672              		.loc 1 221 26 is_stmt 0 view .LVU147
 673 00f4 B089     		ldrh	r0, [r6, #12]
 221:Drivers/LCD_FMC/src/tftLCD.c ****         LCD_WR_DATA(Ypos & 0XFF);
 674              		.loc 1 221 9 view .LVU148
 675 00f6 0130     		adds	r0, r0, #1
 676 00f8 80B2     		uxth	r0, r0
 677 00fa FFF7FEFF 		bl	LCD_WR_REG
 678              	.LVL57:
 222:Drivers/LCD_FMC/src/tftLCD.c ****     }
 679              		.loc 1 222 9 is_stmt 1 view .LVU149
 680 00fe E0B2     		uxtb	r0, r4
 681 0100 FFF7FEFF 		bl	LCD_WR_DATA
 682              	.LVL58:
 683 0104 9CE7     		b	.L33
 684              	.L43:
 685 0106 00BF     		.align	2
 686              	.L42:
 687 0108 00000000 		.word	lcddev
 688              		.cfi_endproc
 689              	.LFE346:
 691              		.section	.text.LCD_ReadPoint,"ax",%progbits
 692              		.align	1
 693              		.global	LCD_ReadPoint
 694              		.syntax unified
 695              		.thumb
 696              		.thumb_func
 698              	LCD_ReadPoint:
 699              	.LVL59:
 700              	.LFB343:
 127:Drivers/LCD_FMC/src/tftLCD.c ****     uint16_t r=0,g=0,b=0;
 701              		.loc 1 127 1 view -0
 702              		.cfi_startproc
 703              		@ args = 0, pretend = 0, frame = 0
 704              		@ frame_needed = 0, uses_anonymous_args = 0
 128:Drivers/LCD_FMC/src/tftLCD.c ****     if(x>=lcddev.width||y>=lcddev.height)return 0;			//超过了范围,直接返回
 705              		.loc 1 128 5 view .LVU151
 129:Drivers/LCD_FMC/src/tftLCD.c ****     LCD_SetCursor(x,y);
 706              		.loc 1 129 5 view .LVU152
 129:Drivers/LCD_FMC/src/tftLCD.c ****     LCD_SetCursor(x,y);
 707              		.loc 1 129 17 is_stmt 0 view .LVU153
 708 0000 1A4B     		ldr	r3, .L57
 709 0002 1B88     		ldrh	r3, [r3]
ARM GAS  C:\usertemp\ccUDQ5mr.s 			page 18


 129:Drivers/LCD_FMC/src/tftLCD.c ****     LCD_SetCursor(x,y);
 710              		.loc 1 129 7 view .LVU154
 711 0004 8342     		cmp	r3, r0
 712 0006 2ED9     		bls	.L49
 129:Drivers/LCD_FMC/src/tftLCD.c ****     LCD_SetCursor(x,y);
 713              		.loc 1 129 34 discriminator 2 view .LVU155
 714 0008 184B     		ldr	r3, .L57
 715 000a 5B88     		ldrh	r3, [r3, #2]
 129:Drivers/LCD_FMC/src/tftLCD.c ****     LCD_SetCursor(x,y);
 716              		.loc 1 129 23 discriminator 2 view .LVU156
 717 000c 8B42     		cmp	r3, r1
 718 000e 01D8     		bhi	.L55
 129:Drivers/LCD_FMC/src/tftLCD.c ****     LCD_SetCursor(x,y);
 719              		.loc 1 129 49 discriminator 3 view .LVU157
 720 0010 0020     		movs	r0, #0
 721              	.LVL60:
 153:Drivers/LCD_FMC/src/tftLCD.c **** 
 722              		.loc 1 153 1 view .LVU158
 723 0012 7047     		bx	lr
 724              	.LVL61:
 725              	.L55:
 127:Drivers/LCD_FMC/src/tftLCD.c ****     uint16_t r=0,g=0,b=0;
 726              		.loc 1 127 1 view .LVU159
 727 0014 10B5     		push	{r4, lr}
 728              	.LCFI10:
 729              		.cfi_def_cfa_offset 8
 730              		.cfi_offset 4, -8
 731              		.cfi_offset 14, -4
 130:Drivers/LCD_FMC/src/tftLCD.c ****     if (lcddev.id == 0X5510)    												//5510 发送读GRAM指令
 732              		.loc 1 130 5 is_stmt 1 view .LVU160
 733 0016 FFF7FEFF 		bl	LCD_SetCursor
 734              	.LVL62:
 131:Drivers/LCD_FMC/src/tftLCD.c ****     {
 735              		.loc 1 131 5 view .LVU161
 131:Drivers/LCD_FMC/src/tftLCD.c ****     {
 736              		.loc 1 131 15 is_stmt 0 view .LVU162
 737 001a 144B     		ldr	r3, .L57
 738 001c 9A88     		ldrh	r2, [r3, #4]
 131:Drivers/LCD_FMC/src/tftLCD.c ****     {
 739              		.loc 1 131 8 view .LVU163
 740 001e 45F21053 		movw	r3, #21776
 741 0022 9A42     		cmp	r2, r3
 742 0024 1AD0     		beq	.L56
 137:Drivers/LCD_FMC/src/tftLCD.c ****     }
 743              		.loc 1 137 9 is_stmt 1 view .LVU164
 744 0026 2E20     		movs	r0, #46
 745 0028 FFF7FEFF 		bl	LCD_WR_REG
 746              	.LVL63:
 747              	.L47:
 139:Drivers/LCD_FMC/src/tftLCD.c ****     if (lcddev.id == 0X1963)    												//对1963来说,是真读
 748              		.loc 1 139 5 view .LVU165
 139:Drivers/LCD_FMC/src/tftLCD.c ****     if (lcddev.id == 0X1963)    												//对1963来说,是真读
 749              		.loc 1 139 7 is_stmt 0 view .LVU166
 750 002c FFF7FEFF 		bl	LCD_RD_DATA
 751              	.LVL64:
 140:Drivers/LCD_FMC/src/tftLCD.c ****     {
 752              		.loc 1 140 5 is_stmt 1 view .LVU167
ARM GAS  C:\usertemp\ccUDQ5mr.s 			page 19


 140:Drivers/LCD_FMC/src/tftLCD.c ****     {
 753              		.loc 1 140 15 is_stmt 0 view .LVU168
 754 0030 0E4B     		ldr	r3, .L57
 755 0032 9A88     		ldrh	r2, [r3, #4]
 140:Drivers/LCD_FMC/src/tftLCD.c ****     {
 756              		.loc 1 140 8 view .LVU169
 757 0034 41F66313 		movw	r3, #6499
 758 0038 9A42     		cmp	r2, r3
 759 003a 0ED0     		beq	.L44
 144:Drivers/LCD_FMC/src/tftLCD.c ****     r = LCD_RD_DATA();          												//实际坐标颜色
 760              		.loc 1 144 5 is_stmt 1 view .LVU170
 145:Drivers/LCD_FMC/src/tftLCD.c **** 
 761              		.loc 1 145 5 view .LVU171
 145:Drivers/LCD_FMC/src/tftLCD.c **** 
 762              		.loc 1 145 9 is_stmt 0 view .LVU172
 763 003c FFF7FEFF 		bl	LCD_RD_DATA
 764              	.LVL65:
 145:Drivers/LCD_FMC/src/tftLCD.c **** 
 765              		.loc 1 145 9 view .LVU173
 766 0040 0446     		mov	r4, r0
 767              	.LVL66:
 148:Drivers/LCD_FMC/src/tftLCD.c ****     b = LCD_RD_DATA();
 768              		.loc 1 148 5 is_stmt 1 view .LVU174
 149:Drivers/LCD_FMC/src/tftLCD.c ****     g = r & 0XFF;               												//对于9341/5310/5510/7789, 第一次读取的是RG的
 769              		.loc 1 149 5 view .LVU175
 149:Drivers/LCD_FMC/src/tftLCD.c ****     g = r & 0XFF;               												//对于9341/5310/5510/7789, 第一次读取的是RG的
 770              		.loc 1 149 9 is_stmt 0 view .LVU176
 771 0042 FFF7FEFF 		bl	LCD_RD_DATA
 772              	.LVL67:
 150:Drivers/LCD_FMC/src/tftLCD.c ****     g <<= 8;																						//9341/5310/5510/7789 需要公式转换一下
 773              		.loc 1 150 5 is_stmt 1 view .LVU177
 151:Drivers/LCD_FMC/src/tftLCD.c ****     return (((r >> 11) << 11) | ((g >> 10) << 5) | (b >> 11));
 774              		.loc 1 151 5 view .LVU178
 152:Drivers/LCD_FMC/src/tftLCD.c **** }
 775              		.loc 1 152 5 view .LVU179
 152:Drivers/LCD_FMC/src/tftLCD.c **** }
 776              		.loc 1 152 17 is_stmt 0 view .LVU180
 777 0046 C4F3CF23 		ubfx	r3, r4, #11, #16
 152:Drivers/LCD_FMC/src/tftLCD.c **** }
 778              		.loc 1 152 37 view .LVU181
 779 004a C4F38504 		ubfx	r4, r4, #2, #6
 780              	.LVL68:
 152:Drivers/LCD_FMC/src/tftLCD.c **** }
 781              		.loc 1 152 44 view .LVU182
 782 004e 6401     		lsls	r4, r4, #5
 152:Drivers/LCD_FMC/src/tftLCD.c **** }
 783              		.loc 1 152 31 view .LVU183
 784 0050 44EAC324 		orr	r4, r4, r3, lsl #11
 152:Drivers/LCD_FMC/src/tftLCD.c **** }
 785              		.loc 1 152 55 view .LVU184
 786 0054 C0F3CF20 		ubfx	r0, r0, #11, #16
 787              	.LVL69:
 152:Drivers/LCD_FMC/src/tftLCD.c **** }
 788              		.loc 1 152 50 view .LVU185
 789 0058 2043     		orrs	r0, r0, r4
 790              	.LVL70:
 791              	.L44:
ARM GAS  C:\usertemp\ccUDQ5mr.s 			page 20


 153:Drivers/LCD_FMC/src/tftLCD.c **** 
 792              		.loc 1 153 1 view .LVU186
 793 005a 10BD     		pop	{r4, pc}
 794              	.LVL71:
 795              	.L56:
 133:Drivers/LCD_FMC/src/tftLCD.c ****     }
 796              		.loc 1 133 9 is_stmt 1 view .LVU187
 797 005c 4FF43850 		mov	r0, #11776
 798 0060 FFF7FEFF 		bl	LCD_WR_REG
 799              	.LVL72:
 800 0064 E2E7     		b	.L47
 801              	.LVL73:
 802              	.L49:
 803              	.LCFI11:
 804              		.cfi_def_cfa_offset 0
 805              		.cfi_restore 4
 806              		.cfi_restore 14
 129:Drivers/LCD_FMC/src/tftLCD.c ****     LCD_SetCursor(x,y);
 807              		.loc 1 129 49 is_stmt 0 discriminator 3 view .LVU188
 808 0066 0020     		movs	r0, #0
 809              	.LVL74:
 129:Drivers/LCD_FMC/src/tftLCD.c ****     LCD_SetCursor(x,y);
 810              		.loc 1 129 49 discriminator 3 view .LVU189
 811 0068 7047     		bx	lr
 812              	.L58:
 813 006a 00BF     		.align	2
 814              	.L57:
 815 006c 00000000 		.word	lcddev
 816              		.cfi_endproc
 817              	.LFE343:
 819              		.section	.text.LCD_Scan_Dir,"ax",%progbits
 820              		.align	1
 821              		.global	LCD_Scan_Dir
 822              		.syntax unified
 823              		.thumb
 824              		.thumb_func
 826              	LCD_Scan_Dir:
 827              	.LVL75:
 828              	.LFB347:
 234:Drivers/LCD_FMC/src/tftLCD.c **** 
 235:Drivers/LCD_FMC/src/tftLCD.c **** //设置LCD的自动扫描方向
 236:Drivers/LCD_FMC/src/tftLCD.c **** //dir:0~7,代表8个方向(具体定义见lcd.h)
 237:Drivers/LCD_FMC/src/tftLCD.c **** //9341/5310/5510/1963/7789等IC已经实际测试
 238:Drivers/LCD_FMC/src/tftLCD.c **** //注意:其他函数可能会受到此函数设置的影响(尤其是9341),
 239:Drivers/LCD_FMC/src/tftLCD.c **** //所以,一般设置为L2R_U2D即可,如果设置为其他扫描方式,可能导致显示不正常
 240:Drivers/LCD_FMC/src/tftLCD.c **** void LCD_Scan_Dir(uint8_t dir)
 241:Drivers/LCD_FMC/src/tftLCD.c **** {
 829              		.loc 1 241 1 is_stmt 1 view -0
 830              		.cfi_startproc
 831              		@ args = 0, pretend = 0, frame = 0
 832              		@ frame_needed = 0, uses_anonymous_args = 0
 833              		.loc 1 241 1 is_stmt 0 view .LVU191
 834 0000 10B5     		push	{r4, lr}
 835              	.LCFI12:
 836              		.cfi_def_cfa_offset 8
 837              		.cfi_offset 4, -8
 838              		.cfi_offset 14, -4
ARM GAS  C:\usertemp\ccUDQ5mr.s 			page 21


 242:Drivers/LCD_FMC/src/tftLCD.c ****     uint16_t regval=0;
 839              		.loc 1 242 5 is_stmt 1 view .LVU192
 840              	.LVL76:
 243:Drivers/LCD_FMC/src/tftLCD.c ****     uint16_t dirreg=0;
 841              		.loc 1 243 5 view .LVU193
 244:Drivers/LCD_FMC/src/tftLCD.c ****     uint16_t temp;
 842              		.loc 1 244 5 view .LVU194
 245:Drivers/LCD_FMC/src/tftLCD.c ****     //横屏时，对1963不改变扫描方向, 其他IC改变扫描方向！竖屏时1963改变方
 246:Drivers/LCD_FMC/src/tftLCD.c ****     if ((lcddev.dir == 1 && lcddev.id != 0X1963) || (lcddev.dir == 0 && lcddev.id == 0X1963))
 843              		.loc 1 246 5 view .LVU195
 844              		.loc 1 246 16 is_stmt 0 view .LVU196
 845 0002 744B     		ldr	r3, .L93
 846 0004 9B79     		ldrb	r3, [r3, #6]	@ zero_extendqisi2
 847              		.loc 1 246 8 view .LVU197
 848 0006 012B     		cmp	r3, #1
 849 0008 10D0     		beq	.L90
 850              	.L60:
 851              		.loc 1 246 50 discriminator 3 view .LVU198
 852 000a 2BB9     		cbnz	r3, .L62
 853              		.loc 1 246 79 discriminator 4 view .LVU199
 854 000c 714B     		ldr	r3, .L93
 855 000e 9A88     		ldrh	r2, [r3, #4]
 856              		.loc 1 246 70 discriminator 4 view .LVU200
 857 0010 41F66313 		movw	r3, #6499
 858 0014 9A42     		cmp	r2, r3
 859 0016 0FD0     		beq	.L61
 860              	.L62:
 247:Drivers/LCD_FMC/src/tftLCD.c ****     {
 248:Drivers/LCD_FMC/src/tftLCD.c ****         switch (dir)   //方向转换
 249:Drivers/LCD_FMC/src/tftLCD.c ****         {
 250:Drivers/LCD_FMC/src/tftLCD.c ****             case 0:
 251:Drivers/LCD_FMC/src/tftLCD.c ****                 dir = 6;
 252:Drivers/LCD_FMC/src/tftLCD.c ****                 break;
 253:Drivers/LCD_FMC/src/tftLCD.c **** 
 254:Drivers/LCD_FMC/src/tftLCD.c ****             case 1:
 255:Drivers/LCD_FMC/src/tftLCD.c ****                 dir = 7;
 256:Drivers/LCD_FMC/src/tftLCD.c ****                 break;
 257:Drivers/LCD_FMC/src/tftLCD.c **** 
 258:Drivers/LCD_FMC/src/tftLCD.c ****             case 2:
 259:Drivers/LCD_FMC/src/tftLCD.c ****                 dir = 4;
 260:Drivers/LCD_FMC/src/tftLCD.c ****                 break;
 261:Drivers/LCD_FMC/src/tftLCD.c **** 
 262:Drivers/LCD_FMC/src/tftLCD.c ****             case 3:
 263:Drivers/LCD_FMC/src/tftLCD.c ****                 dir = 5;
 264:Drivers/LCD_FMC/src/tftLCD.c ****                 break;
 265:Drivers/LCD_FMC/src/tftLCD.c **** 
 266:Drivers/LCD_FMC/src/tftLCD.c ****             case 4:
 267:Drivers/LCD_FMC/src/tftLCD.c ****                 dir = 1;
 268:Drivers/LCD_FMC/src/tftLCD.c ****                 break;
 269:Drivers/LCD_FMC/src/tftLCD.c **** 
 270:Drivers/LCD_FMC/src/tftLCD.c ****             case 5:
 271:Drivers/LCD_FMC/src/tftLCD.c ****                 dir = 0;
 272:Drivers/LCD_FMC/src/tftLCD.c ****                 break;
 273:Drivers/LCD_FMC/src/tftLCD.c **** 
 274:Drivers/LCD_FMC/src/tftLCD.c ****             case 6:
 275:Drivers/LCD_FMC/src/tftLCD.c ****                 dir = 3;
 276:Drivers/LCD_FMC/src/tftLCD.c ****                 break;
ARM GAS  C:\usertemp\ccUDQ5mr.s 			page 22


 277:Drivers/LCD_FMC/src/tftLCD.c **** 
 278:Drivers/LCD_FMC/src/tftLCD.c ****             case 7:
 279:Drivers/LCD_FMC/src/tftLCD.c ****                 dir = 2;
 280:Drivers/LCD_FMC/src/tftLCD.c ****                 break;
 281:Drivers/LCD_FMC/src/tftLCD.c ****         }
 282:Drivers/LCD_FMC/src/tftLCD.c ****     }
 283:Drivers/LCD_FMC/src/tftLCD.c **** 
 284:Drivers/LCD_FMC/src/tftLCD.c ****     switch (dir)
 861              		.loc 1 284 5 is_stmt 1 view .LVU201
 862 0018 0138     		subs	r0, r0, #1
 863              	.LVL77:
 864              		.loc 1 284 5 is_stmt 0 view .LVU202
 865 001a 0628     		cmp	r0, #6
 866 001c 00F28480 		bhi	.L87
 867 0020 DFE800F0 		tbb	[pc, r0]
 868              	.L73:
 869 0024 72       		.byte	(.L79-.L73)/2
 870 0025 70       		.byte	(.L78-.L73)/2
 871 0026 6E       		.byte	(.L77-.L73)/2
 872 0027 6C       		.byte	(.L76-.L73)/2
 873 0028 6A       		.byte	(.L75-.L73)/2
 874 0029 68       		.byte	(.L74-.L73)/2
 875 002a 14       		.byte	(.L72-.L73)/2
 876              	.LVL78:
 877 002b 00       		.p2align 1
 878              	.L90:
 246:Drivers/LCD_FMC/src/tftLCD.c ****     {
 879              		.loc 1 246 35 discriminator 1 view .LVU203
 880 002c 694A     		ldr	r2, .L93
 881 002e 9188     		ldrh	r1, [r2, #4]
 246:Drivers/LCD_FMC/src/tftLCD.c ****     {
 882              		.loc 1 246 26 discriminator 1 view .LVU204
 883 0030 41F66312 		movw	r2, #6499
 884 0034 9142     		cmp	r1, r2
 885 0036 E8D0     		beq	.L60
 886              	.L61:
 248:Drivers/LCD_FMC/src/tftLCD.c ****         {
 887              		.loc 1 248 9 is_stmt 1 view .LVU205
 888 0038 0728     		cmp	r0, #7
 889 003a 73D8     		bhi	.L86
 890 003c DFE800F0 		tbb	[pc, r0]
 891              	.L65:
 892 0040 6E       		.byte	(.L71-.L65)/2
 893 0041 70       		.byte	(.L70-.L65)/2
 894 0042 6A       		.byte	(.L69-.L65)/2
 895 0043 6C       		.byte	(.L68-.L65)/2
 896 0044 04       		.byte	(.L67-.L65)/2
 897 0045 72       		.byte	(.L86-.L65)/2
 898 0046 68       		.byte	(.L66-.L65)/2
 899 0047 66       		.byte	(.L64-.L65)/2
 900              		.p2align 1
 901              	.L67:
 285:Drivers/LCD_FMC/src/tftLCD.c ****     {
 286:Drivers/LCD_FMC/src/tftLCD.c ****         case L2R_U2D://从左到右,从上到下
 287:Drivers/LCD_FMC/src/tftLCD.c ****             regval |= (0 << 7) | (0 << 6) | (0 << 5);
 288:Drivers/LCD_FMC/src/tftLCD.c ****             break;
 289:Drivers/LCD_FMC/src/tftLCD.c **** 
ARM GAS  C:\usertemp\ccUDQ5mr.s 			page 23


 290:Drivers/LCD_FMC/src/tftLCD.c ****         case L2R_D2U://从左到右,从下到上
 291:Drivers/LCD_FMC/src/tftLCD.c ****             regval |= (1 << 7) | (0 << 6) | (0 << 5);
 902              		.loc 1 291 20 is_stmt 0 view .LVU206
 903 0048 8024     		movs	r4, #128
 904 004a 00E0     		b	.L63
 905              	.LVL79:
 906              	.L72:
 292:Drivers/LCD_FMC/src/tftLCD.c ****             break;
 293:Drivers/LCD_FMC/src/tftLCD.c **** 
 294:Drivers/LCD_FMC/src/tftLCD.c ****         case R2L_U2D://从右到左,从上到下
 295:Drivers/LCD_FMC/src/tftLCD.c ****             regval |= (0 << 7) | (1 << 6) | (0 << 5);
 296:Drivers/LCD_FMC/src/tftLCD.c ****             break;
 297:Drivers/LCD_FMC/src/tftLCD.c **** 
 298:Drivers/LCD_FMC/src/tftLCD.c ****         case R2L_D2U://从右到左,从下到上
 299:Drivers/LCD_FMC/src/tftLCD.c ****             regval |= (1 << 7) | (1 << 6) | (0 << 5);
 300:Drivers/LCD_FMC/src/tftLCD.c ****             break;
 301:Drivers/LCD_FMC/src/tftLCD.c **** 
 302:Drivers/LCD_FMC/src/tftLCD.c ****         case U2D_L2R://从上到下,从左到右
 303:Drivers/LCD_FMC/src/tftLCD.c ****             regval |= (0 << 7) | (0 << 6) | (1 << 5);
 304:Drivers/LCD_FMC/src/tftLCD.c ****             break;
 305:Drivers/LCD_FMC/src/tftLCD.c **** 
 306:Drivers/LCD_FMC/src/tftLCD.c ****         case U2D_R2L://从上到下,从右到左
 307:Drivers/LCD_FMC/src/tftLCD.c ****             regval |= (0 << 7) | (1 << 6) | (1 << 5);
 308:Drivers/LCD_FMC/src/tftLCD.c ****             break;
 309:Drivers/LCD_FMC/src/tftLCD.c **** 
 310:Drivers/LCD_FMC/src/tftLCD.c ****         case D2U_L2R://从下到上,从左到右
 311:Drivers/LCD_FMC/src/tftLCD.c ****             regval |= (1 << 7) | (0 << 6) | (1 << 5);
 312:Drivers/LCD_FMC/src/tftLCD.c ****             break;
 313:Drivers/LCD_FMC/src/tftLCD.c **** 
 314:Drivers/LCD_FMC/src/tftLCD.c ****         case D2U_R2L://从下到上,从右到左
 315:Drivers/LCD_FMC/src/tftLCD.c ****             regval |= (1 << 7) | (1 << 6) | (1 << 5);
 907              		.loc 1 315 20 view .LVU207
 908 004c E024     		movs	r4, #224
 909              	.LVL80:
 910              	.L63:
 316:Drivers/LCD_FMC/src/tftLCD.c ****             break;
 317:Drivers/LCD_FMC/src/tftLCD.c ****     }
 318:Drivers/LCD_FMC/src/tftLCD.c **** 
 319:Drivers/LCD_FMC/src/tftLCD.c ****     if (lcddev.id == 0X5510)dirreg = 0X3600;
 911              		.loc 1 319 5 is_stmt 1 view .LVU208
 912              		.loc 1 319 15 is_stmt 0 view .LVU209
 913 004e 614B     		ldr	r3, .L93
 914 0050 9B88     		ldrh	r3, [r3, #4]
 915              		.loc 1 319 8 view .LVU210
 916 0052 45F21052 		movw	r2, #21776
 917 0056 9342     		cmp	r3, r2
 918 0058 68D0     		beq	.L91
 320:Drivers/LCD_FMC/src/tftLCD.c ****     else dirreg = 0X36;
 919              		.loc 1 320 17 view .LVU211
 920 005a 3620     		movs	r0, #54
 921              	.L80:
 922              	.LVL81:
 321:Drivers/LCD_FMC/src/tftLCD.c **** 
 322:Drivers/LCD_FMC/src/tftLCD.c ****     if (lcddev.id == 0X9341 || lcddev.id == 0X7789)   //9341 & 7789 要设置BGR位
 923              		.loc 1 322 5 is_stmt 1 view .LVU212
 924              		.loc 1 322 8 is_stmt 0 view .LVU213
 925 005c 49F24131 		movw	r1, #37697
ARM GAS  C:\usertemp\ccUDQ5mr.s 			page 24


 926 0060 47F28972 		movw	r2, #30601
 927 0064 9342     		cmp	r3, r2
 928 0066 18BF     		it	ne
 929 0068 8B42     		cmpne	r3, r1
 930 006a 01D1     		bne	.L81
 323:Drivers/LCD_FMC/src/tftLCD.c ****     {
 324:Drivers/LCD_FMC/src/tftLCD.c ****         regval |= 0X08;
 931              		.loc 1 324 9 is_stmt 1 view .LVU214
 932              		.loc 1 324 16 is_stmt 0 view .LVU215
 933 006c 44F00804 		orr	r4, r4, #8
 934              	.LVL82:
 935              	.L81:
 325:Drivers/LCD_FMC/src/tftLCD.c ****     }
 326:Drivers/LCD_FMC/src/tftLCD.c **** 
 327:Drivers/LCD_FMC/src/tftLCD.c ****     LCD_WriteReg(dirreg, regval);
 936              		.loc 1 327 5 is_stmt 1 view .LVU216
 937 0070 2146     		mov	r1, r4
 938 0072 FFF7FEFF 		bl	LCD_WriteReg
 939              	.LVL83:
 328:Drivers/LCD_FMC/src/tftLCD.c **** 
 329:Drivers/LCD_FMC/src/tftLCD.c ****     if (lcddev.id != 0X1963)   												//1963不做坐标处理
 940              		.loc 1 329 5 view .LVU217
 941              		.loc 1 329 15 is_stmt 0 view .LVU218
 942 0076 574B     		ldr	r3, .L93
 943 0078 9B88     		ldrh	r3, [r3, #4]
 944              		.loc 1 329 8 view .LVU219
 945 007a 41F66312 		movw	r2, #6499
 946 007e 9342     		cmp	r3, r2
 947 0080 0AD0     		beq	.L82
 330:Drivers/LCD_FMC/src/tftLCD.c ****     {
 331:Drivers/LCD_FMC/src/tftLCD.c ****         if (regval & 0X20)
 948              		.loc 1 331 9 is_stmt 1 view .LVU220
 949              		.loc 1 331 12 is_stmt 0 view .LVU221
 950 0082 14F0200F 		tst	r4, #32
 951 0086 54D0     		beq	.L83
 332:Drivers/LCD_FMC/src/tftLCD.c ****         {
 333:Drivers/LCD_FMC/src/tftLCD.c ****             if (lcddev.width < lcddev.height)   			//交换X,Y
 952              		.loc 1 333 13 is_stmt 1 view .LVU222
 953              		.loc 1 333 23 is_stmt 0 view .LVU223
 954 0088 524A     		ldr	r2, .L93
 955 008a 1188     		ldrh	r1, [r2]
 956              		.loc 1 333 38 view .LVU224
 957 008c 5288     		ldrh	r2, [r2, #2]
 958              		.loc 1 333 16 view .LVU225
 959 008e 9142     		cmp	r1, r2
 960 0090 02D2     		bcs	.L82
 334:Drivers/LCD_FMC/src/tftLCD.c ****             {
 335:Drivers/LCD_FMC/src/tftLCD.c ****                 temp = lcddev.width;
 961              		.loc 1 335 17 is_stmt 1 view .LVU226
 962              	.LVL84:
 336:Drivers/LCD_FMC/src/tftLCD.c ****                 lcddev.width = lcddev.height;
 963              		.loc 1 336 17 view .LVU227
 964              		.loc 1 336 30 is_stmt 0 view .LVU228
 965 0092 5048     		ldr	r0, .L93
 966 0094 0280     		strh	r2, [r0]	@ movhi
 337:Drivers/LCD_FMC/src/tftLCD.c ****                 lcddev.height = temp;
 967              		.loc 1 337 17 is_stmt 1 view .LVU229
ARM GAS  C:\usertemp\ccUDQ5mr.s 			page 25


 968              		.loc 1 337 31 is_stmt 0 view .LVU230
 969 0096 4180     		strh	r1, [r0, #2]	@ movhi
 970              	.LVL85:
 971              	.L82:
 338:Drivers/LCD_FMC/src/tftLCD.c ****             }
 339:Drivers/LCD_FMC/src/tftLCD.c ****         }
 340:Drivers/LCD_FMC/src/tftLCD.c ****         else
 341:Drivers/LCD_FMC/src/tftLCD.c ****         {
 342:Drivers/LCD_FMC/src/tftLCD.c ****             if (lcddev.width > lcddev.height)   			//交换X,Y
 343:Drivers/LCD_FMC/src/tftLCD.c ****             {
 344:Drivers/LCD_FMC/src/tftLCD.c ****                 temp = lcddev.width;
 345:Drivers/LCD_FMC/src/tftLCD.c ****                 lcddev.width = lcddev.height;
 346:Drivers/LCD_FMC/src/tftLCD.c ****                 lcddev.height = temp;
 347:Drivers/LCD_FMC/src/tftLCD.c ****             }
 348:Drivers/LCD_FMC/src/tftLCD.c ****         }
 349:Drivers/LCD_FMC/src/tftLCD.c ****     }
 350:Drivers/LCD_FMC/src/tftLCD.c **** 
 351:Drivers/LCD_FMC/src/tftLCD.c ****     //设置显示区域(开窗)大小
 352:Drivers/LCD_FMC/src/tftLCD.c ****     if (lcddev.id == 0X5510)
 972              		.loc 1 352 5 is_stmt 1 view .LVU231
 973              		.loc 1 352 8 is_stmt 0 view .LVU232
 974 0098 45F21052 		movw	r2, #21776
 975 009c 9342     		cmp	r3, r2
 976 009e 51D0     		beq	.L92
 353:Drivers/LCD_FMC/src/tftLCD.c ****     {
 354:Drivers/LCD_FMC/src/tftLCD.c ****         LCD_WR_REG(lcddev.setxcmd);
 355:Drivers/LCD_FMC/src/tftLCD.c ****         LCD_WR_DATA(0);
 356:Drivers/LCD_FMC/src/tftLCD.c ****         LCD_WR_REG(lcddev.setxcmd + 1);
 357:Drivers/LCD_FMC/src/tftLCD.c ****         LCD_WR_DATA(0);
 358:Drivers/LCD_FMC/src/tftLCD.c ****         LCD_WR_REG(lcddev.setxcmd + 2);
 359:Drivers/LCD_FMC/src/tftLCD.c ****         LCD_WR_DATA((lcddev.width - 1) >> 8);
 360:Drivers/LCD_FMC/src/tftLCD.c ****         LCD_WR_REG(lcddev.setxcmd + 3);
 361:Drivers/LCD_FMC/src/tftLCD.c ****         LCD_WR_DATA((lcddev.width - 1) & 0XFF);
 362:Drivers/LCD_FMC/src/tftLCD.c ****         LCD_WR_REG(lcddev.setycmd);
 363:Drivers/LCD_FMC/src/tftLCD.c ****         LCD_WR_DATA(0);
 364:Drivers/LCD_FMC/src/tftLCD.c ****         LCD_WR_REG(lcddev.setycmd + 1);
 365:Drivers/LCD_FMC/src/tftLCD.c ****         LCD_WR_DATA(0);
 366:Drivers/LCD_FMC/src/tftLCD.c ****         LCD_WR_REG(lcddev.setycmd + 2);
 367:Drivers/LCD_FMC/src/tftLCD.c ****         LCD_WR_DATA((lcddev.height - 1) >> 8);
 368:Drivers/LCD_FMC/src/tftLCD.c ****         LCD_WR_REG(lcddev.setycmd + 3);
 369:Drivers/LCD_FMC/src/tftLCD.c ****         LCD_WR_DATA((lcddev.height - 1) & 0XFF);
 370:Drivers/LCD_FMC/src/tftLCD.c ****     }
 371:Drivers/LCD_FMC/src/tftLCD.c ****     else
 372:Drivers/LCD_FMC/src/tftLCD.c ****     {
 373:Drivers/LCD_FMC/src/tftLCD.c ****         LCD_WR_REG(lcddev.setxcmd);
 977              		.loc 1 373 9 is_stmt 1 view .LVU233
 978 00a0 4C4C     		ldr	r4, .L93
 979              	.LVL86:
 980              		.loc 1 373 9 is_stmt 0 view .LVU234
 981 00a2 6089     		ldrh	r0, [r4, #10]
 982 00a4 FFF7FEFF 		bl	LCD_WR_REG
 983              	.LVL87:
 374:Drivers/LCD_FMC/src/tftLCD.c ****         LCD_WR_DATA(0);
 984              		.loc 1 374 9 is_stmt 1 view .LVU235
 985 00a8 0020     		movs	r0, #0
 986 00aa FFF7FEFF 		bl	LCD_WR_DATA
 987              	.LVL88:
ARM GAS  C:\usertemp\ccUDQ5mr.s 			page 26


 375:Drivers/LCD_FMC/src/tftLCD.c ****         LCD_WR_DATA(0);
 988              		.loc 1 375 9 view .LVU236
 989 00ae 0020     		movs	r0, #0
 990 00b0 FFF7FEFF 		bl	LCD_WR_DATA
 991              	.LVL89:
 376:Drivers/LCD_FMC/src/tftLCD.c ****         LCD_WR_DATA((lcddev.width - 1) >> 8);
 992              		.loc 1 376 9 view .LVU237
 993              		.loc 1 376 28 is_stmt 0 view .LVU238
 994 00b4 2088     		ldrh	r0, [r4]
 995              		.loc 1 376 35 view .LVU239
 996 00b6 0138     		subs	r0, r0, #1
 997              		.loc 1 376 9 view .LVU240
 998 00b8 C0F30F20 		ubfx	r0, r0, #8, #16
 999 00bc FFF7FEFF 		bl	LCD_WR_DATA
 1000              	.LVL90:
 377:Drivers/LCD_FMC/src/tftLCD.c ****         LCD_WR_DATA((lcddev.width - 1) & 0XFF);
 1001              		.loc 1 377 9 is_stmt 1 view .LVU241
 1002              		.loc 1 377 28 is_stmt 0 view .LVU242
 1003 00c0 2088     		ldrh	r0, [r4]
 1004              		.loc 1 377 35 view .LVU243
 1005 00c2 0138     		subs	r0, r0, #1
 1006              		.loc 1 377 9 view .LVU244
 1007 00c4 C0B2     		uxtb	r0, r0
 1008 00c6 FFF7FEFF 		bl	LCD_WR_DATA
 1009              	.LVL91:
 378:Drivers/LCD_FMC/src/tftLCD.c ****         LCD_WR_REG(lcddev.setycmd);
 1010              		.loc 1 378 9 is_stmt 1 view .LVU245
 1011 00ca A089     		ldrh	r0, [r4, #12]
 1012 00cc FFF7FEFF 		bl	LCD_WR_REG
 1013              	.LVL92:
 379:Drivers/LCD_FMC/src/tftLCD.c ****         LCD_WR_DATA(0);
 1014              		.loc 1 379 9 view .LVU246
 1015 00d0 0020     		movs	r0, #0
 1016 00d2 FFF7FEFF 		bl	LCD_WR_DATA
 1017              	.LVL93:
 380:Drivers/LCD_FMC/src/tftLCD.c ****         LCD_WR_DATA(0);
 1018              		.loc 1 380 9 view .LVU247
 1019 00d6 0020     		movs	r0, #0
 1020 00d8 FFF7FEFF 		bl	LCD_WR_DATA
 1021              	.LVL94:
 381:Drivers/LCD_FMC/src/tftLCD.c ****         LCD_WR_DATA((lcddev.height - 1) >> 8);
 1022              		.loc 1 381 9 view .LVU248
 1023              		.loc 1 381 28 is_stmt 0 view .LVU249
 1024 00dc 6088     		ldrh	r0, [r4, #2]
 1025              		.loc 1 381 36 view .LVU250
 1026 00de 0138     		subs	r0, r0, #1
 1027              		.loc 1 381 9 view .LVU251
 1028 00e0 C0F30F20 		ubfx	r0, r0, #8, #16
 1029 00e4 FFF7FEFF 		bl	LCD_WR_DATA
 1030              	.LVL95:
 382:Drivers/LCD_FMC/src/tftLCD.c ****         LCD_WR_DATA((lcddev.height - 1) & 0XFF);
 1031              		.loc 1 382 9 is_stmt 1 view .LVU252
 1032              		.loc 1 382 28 is_stmt 0 view .LVU253
 1033 00e8 6088     		ldrh	r0, [r4, #2]
 1034              		.loc 1 382 36 view .LVU254
 1035 00ea 0138     		subs	r0, r0, #1
 1036              		.loc 1 382 9 view .LVU255
ARM GAS  C:\usertemp\ccUDQ5mr.s 			page 27


 1037 00ec C0B2     		uxtb	r0, r0
 1038 00ee FFF7FEFF 		bl	LCD_WR_DATA
 1039              	.LVL96:
 1040              	.L59:
 383:Drivers/LCD_FMC/src/tftLCD.c ****     }
 384:Drivers/LCD_FMC/src/tftLCD.c **** }
 1041              		.loc 1 384 1 view .LVU256
 1042 00f2 10BD     		pop	{r4, pc}
 1043              	.LVL97:
 1044              	.L74:
 311:Drivers/LCD_FMC/src/tftLCD.c ****             break;
 1045              		.loc 1 311 20 view .LVU257
 1046 00f4 A024     		movs	r4, #160
 1047 00f6 AAE7     		b	.L63
 1048              	.L75:
 307:Drivers/LCD_FMC/src/tftLCD.c ****             break;
 1049              		.loc 1 307 20 view .LVU258
 1050 00f8 6024     		movs	r4, #96
 1051 00fa A8E7     		b	.L63
 1052              	.L76:
 303:Drivers/LCD_FMC/src/tftLCD.c ****             break;
 1053              		.loc 1 303 20 view .LVU259
 1054 00fc 2024     		movs	r4, #32
 1055 00fe A6E7     		b	.L63
 1056              	.L77:
 299:Drivers/LCD_FMC/src/tftLCD.c ****             break;
 1057              		.loc 1 299 20 view .LVU260
 1058 0100 C024     		movs	r4, #192
 1059 0102 A4E7     		b	.L63
 1060              	.L78:
 295:Drivers/LCD_FMC/src/tftLCD.c ****             break;
 1061              		.loc 1 295 20 view .LVU261
 1062 0104 4024     		movs	r4, #64
 1063 0106 A2E7     		b	.L63
 1064              	.L79:
 291:Drivers/LCD_FMC/src/tftLCD.c ****             break;
 1065              		.loc 1 291 20 view .LVU262
 1066 0108 8024     		movs	r4, #128
 1067 010a A0E7     		b	.L63
 1068              	.LVL98:
 1069              	.L64:
 295:Drivers/LCD_FMC/src/tftLCD.c ****             break;
 1070              		.loc 1 295 20 view .LVU263
 1071 010c 4024     		movs	r4, #64
 1072 010e 9EE7     		b	.L63
 1073              	.L66:
 299:Drivers/LCD_FMC/src/tftLCD.c ****             break;
 1074              		.loc 1 299 20 view .LVU264
 1075 0110 C024     		movs	r4, #192
 1076 0112 9CE7     		b	.L63
 1077              	.L69:
 303:Drivers/LCD_FMC/src/tftLCD.c ****             break;
 1078              		.loc 1 303 20 view .LVU265
 1079 0114 2024     		movs	r4, #32
 1080 0116 9AE7     		b	.L63
 1081              	.L68:
 307:Drivers/LCD_FMC/src/tftLCD.c ****             break;
ARM GAS  C:\usertemp\ccUDQ5mr.s 			page 28


 1082              		.loc 1 307 20 view .LVU266
 1083 0118 6024     		movs	r4, #96
 1084 011a 98E7     		b	.L63
 1085              	.L71:
 311:Drivers/LCD_FMC/src/tftLCD.c ****             break;
 1086              		.loc 1 311 20 view .LVU267
 1087 011c A024     		movs	r4, #160
 1088 011e 96E7     		b	.L63
 1089              	.L70:
 315:Drivers/LCD_FMC/src/tftLCD.c ****             break;
 1090              		.loc 1 315 20 view .LVU268
 1091 0120 E024     		movs	r4, #224
 1092 0122 94E7     		b	.L63
 1093              	.L86:
 248:Drivers/LCD_FMC/src/tftLCD.c ****         {
 1094              		.loc 1 248 9 view .LVU269
 1095 0124 0024     		movs	r4, #0
 1096 0126 92E7     		b	.L63
 1097              	.LVL99:
 1098              	.L87:
 284:Drivers/LCD_FMC/src/tftLCD.c ****     {
 1099              		.loc 1 284 5 view .LVU270
 1100 0128 0024     		movs	r4, #0
 1101 012a 90E7     		b	.L63
 1102              	.LVL100:
 1103              	.L91:
 319:Drivers/LCD_FMC/src/tftLCD.c ****     else dirreg = 0X36;
 1104              		.loc 1 319 36 discriminator 1 view .LVU271
 1105 012c 4FF45850 		mov	r0, #13824
 1106 0130 94E7     		b	.L80
 1107              	.LVL101:
 1108              	.L83:
 342:Drivers/LCD_FMC/src/tftLCD.c ****             {
 1109              		.loc 1 342 13 is_stmt 1 view .LVU272
 342:Drivers/LCD_FMC/src/tftLCD.c ****             {
 1110              		.loc 1 342 23 is_stmt 0 view .LVU273
 1111 0132 284A     		ldr	r2, .L93
 1112 0134 1188     		ldrh	r1, [r2]
 342:Drivers/LCD_FMC/src/tftLCD.c ****             {
 1113              		.loc 1 342 38 view .LVU274
 1114 0136 5288     		ldrh	r2, [r2, #2]
 342:Drivers/LCD_FMC/src/tftLCD.c ****             {
 1115              		.loc 1 342 16 view .LVU275
 1116 0138 9142     		cmp	r1, r2
 1117 013a ADD9     		bls	.L82
 344:Drivers/LCD_FMC/src/tftLCD.c ****                 lcddev.width = lcddev.height;
 1118              		.loc 1 344 17 is_stmt 1 view .LVU276
 1119              	.LVL102:
 345:Drivers/LCD_FMC/src/tftLCD.c ****                 lcddev.height = temp;
 1120              		.loc 1 345 17 view .LVU277
 345:Drivers/LCD_FMC/src/tftLCD.c ****                 lcddev.height = temp;
 1121              		.loc 1 345 30 is_stmt 0 view .LVU278
 1122 013c 2548     		ldr	r0, .L93
 1123 013e 0280     		strh	r2, [r0]	@ movhi
 346:Drivers/LCD_FMC/src/tftLCD.c ****             }
 1124              		.loc 1 346 17 is_stmt 1 view .LVU279
 346:Drivers/LCD_FMC/src/tftLCD.c ****             }
ARM GAS  C:\usertemp\ccUDQ5mr.s 			page 29


 1125              		.loc 1 346 31 is_stmt 0 view .LVU280
 1126 0140 4180     		strh	r1, [r0, #2]	@ movhi
 1127 0142 A9E7     		b	.L82
 1128              	.LVL103:
 1129              	.L92:
 354:Drivers/LCD_FMC/src/tftLCD.c ****         LCD_WR_DATA(0);
 1130              		.loc 1 354 9 is_stmt 1 view .LVU281
 1131 0144 234C     		ldr	r4, .L93
 1132              	.LVL104:
 354:Drivers/LCD_FMC/src/tftLCD.c ****         LCD_WR_DATA(0);
 1133              		.loc 1 354 9 is_stmt 0 view .LVU282
 1134 0146 6089     		ldrh	r0, [r4, #10]
 1135 0148 FFF7FEFF 		bl	LCD_WR_REG
 1136              	.LVL105:
 355:Drivers/LCD_FMC/src/tftLCD.c ****         LCD_WR_REG(lcddev.setxcmd + 1);
 1137              		.loc 1 355 9 is_stmt 1 view .LVU283
 1138 014c 0020     		movs	r0, #0
 1139 014e FFF7FEFF 		bl	LCD_WR_DATA
 1140              	.LVL106:
 356:Drivers/LCD_FMC/src/tftLCD.c ****         LCD_WR_DATA(0);
 1141              		.loc 1 356 9 view .LVU284
 356:Drivers/LCD_FMC/src/tftLCD.c ****         LCD_WR_DATA(0);
 1142              		.loc 1 356 26 is_stmt 0 view .LVU285
 1143 0152 6089     		ldrh	r0, [r4, #10]
 356:Drivers/LCD_FMC/src/tftLCD.c ****         LCD_WR_DATA(0);
 1144              		.loc 1 356 9 view .LVU286
 1145 0154 0130     		adds	r0, r0, #1
 1146 0156 80B2     		uxth	r0, r0
 1147 0158 FFF7FEFF 		bl	LCD_WR_REG
 1148              	.LVL107:
 357:Drivers/LCD_FMC/src/tftLCD.c ****         LCD_WR_REG(lcddev.setxcmd + 2);
 1149              		.loc 1 357 9 is_stmt 1 view .LVU287
 1150 015c 0020     		movs	r0, #0
 1151 015e FFF7FEFF 		bl	LCD_WR_DATA
 1152              	.LVL108:
 358:Drivers/LCD_FMC/src/tftLCD.c ****         LCD_WR_DATA((lcddev.width - 1) >> 8);
 1153              		.loc 1 358 9 view .LVU288
 358:Drivers/LCD_FMC/src/tftLCD.c ****         LCD_WR_DATA((lcddev.width - 1) >> 8);
 1154              		.loc 1 358 26 is_stmt 0 view .LVU289
 1155 0162 6089     		ldrh	r0, [r4, #10]
 358:Drivers/LCD_FMC/src/tftLCD.c ****         LCD_WR_DATA((lcddev.width - 1) >> 8);
 1156              		.loc 1 358 9 view .LVU290
 1157 0164 0230     		adds	r0, r0, #2
 1158 0166 80B2     		uxth	r0, r0
 1159 0168 FFF7FEFF 		bl	LCD_WR_REG
 1160              	.LVL109:
 359:Drivers/LCD_FMC/src/tftLCD.c ****         LCD_WR_REG(lcddev.setxcmd + 3);
 1161              		.loc 1 359 9 is_stmt 1 view .LVU291
 359:Drivers/LCD_FMC/src/tftLCD.c ****         LCD_WR_REG(lcddev.setxcmd + 3);
 1162              		.loc 1 359 28 is_stmt 0 view .LVU292
 1163 016c 2088     		ldrh	r0, [r4]
 359:Drivers/LCD_FMC/src/tftLCD.c ****         LCD_WR_REG(lcddev.setxcmd + 3);
 1164              		.loc 1 359 35 view .LVU293
 1165 016e 0138     		subs	r0, r0, #1
 359:Drivers/LCD_FMC/src/tftLCD.c ****         LCD_WR_REG(lcddev.setxcmd + 3);
 1166              		.loc 1 359 9 view .LVU294
 1167 0170 C0F30F20 		ubfx	r0, r0, #8, #16
ARM GAS  C:\usertemp\ccUDQ5mr.s 			page 30


 1168 0174 FFF7FEFF 		bl	LCD_WR_DATA
 1169              	.LVL110:
 360:Drivers/LCD_FMC/src/tftLCD.c ****         LCD_WR_DATA((lcddev.width - 1) & 0XFF);
 1170              		.loc 1 360 9 is_stmt 1 view .LVU295
 360:Drivers/LCD_FMC/src/tftLCD.c ****         LCD_WR_DATA((lcddev.width - 1) & 0XFF);
 1171              		.loc 1 360 26 is_stmt 0 view .LVU296
 1172 0178 6089     		ldrh	r0, [r4, #10]
 360:Drivers/LCD_FMC/src/tftLCD.c ****         LCD_WR_DATA((lcddev.width - 1) & 0XFF);
 1173              		.loc 1 360 9 view .LVU297
 1174 017a 0330     		adds	r0, r0, #3
 1175 017c 80B2     		uxth	r0, r0
 1176 017e FFF7FEFF 		bl	LCD_WR_REG
 1177              	.LVL111:
 361:Drivers/LCD_FMC/src/tftLCD.c ****         LCD_WR_REG(lcddev.setycmd);
 1178              		.loc 1 361 9 is_stmt 1 view .LVU298
 361:Drivers/LCD_FMC/src/tftLCD.c ****         LCD_WR_REG(lcddev.setycmd);
 1179              		.loc 1 361 28 is_stmt 0 view .LVU299
 1180 0182 2088     		ldrh	r0, [r4]
 361:Drivers/LCD_FMC/src/tftLCD.c ****         LCD_WR_REG(lcddev.setycmd);
 1181              		.loc 1 361 35 view .LVU300
 1182 0184 0138     		subs	r0, r0, #1
 361:Drivers/LCD_FMC/src/tftLCD.c ****         LCD_WR_REG(lcddev.setycmd);
 1183              		.loc 1 361 9 view .LVU301
 1184 0186 C0B2     		uxtb	r0, r0
 1185 0188 FFF7FEFF 		bl	LCD_WR_DATA
 1186              	.LVL112:
 362:Drivers/LCD_FMC/src/tftLCD.c ****         LCD_WR_DATA(0);
 1187              		.loc 1 362 9 is_stmt 1 view .LVU302
 1188 018c A089     		ldrh	r0, [r4, #12]
 1189 018e FFF7FEFF 		bl	LCD_WR_REG
 1190              	.LVL113:
 363:Drivers/LCD_FMC/src/tftLCD.c ****         LCD_WR_REG(lcddev.setycmd + 1);
 1191              		.loc 1 363 9 view .LVU303
 1192 0192 0020     		movs	r0, #0
 1193 0194 FFF7FEFF 		bl	LCD_WR_DATA
 1194              	.LVL114:
 364:Drivers/LCD_FMC/src/tftLCD.c ****         LCD_WR_DATA(0);
 1195              		.loc 1 364 9 view .LVU304
 364:Drivers/LCD_FMC/src/tftLCD.c ****         LCD_WR_DATA(0);
 1196              		.loc 1 364 26 is_stmt 0 view .LVU305
 1197 0198 A089     		ldrh	r0, [r4, #12]
 364:Drivers/LCD_FMC/src/tftLCD.c ****         LCD_WR_DATA(0);
 1198              		.loc 1 364 9 view .LVU306
 1199 019a 0130     		adds	r0, r0, #1
 1200 019c 80B2     		uxth	r0, r0
 1201 019e FFF7FEFF 		bl	LCD_WR_REG
 1202              	.LVL115:
 365:Drivers/LCD_FMC/src/tftLCD.c ****         LCD_WR_REG(lcddev.setycmd + 2);
 1203              		.loc 1 365 9 is_stmt 1 view .LVU307
 1204 01a2 0020     		movs	r0, #0
 1205 01a4 FFF7FEFF 		bl	LCD_WR_DATA
 1206              	.LVL116:
 366:Drivers/LCD_FMC/src/tftLCD.c ****         LCD_WR_DATA((lcddev.height - 1) >> 8);
 1207              		.loc 1 366 9 view .LVU308
 366:Drivers/LCD_FMC/src/tftLCD.c ****         LCD_WR_DATA((lcddev.height - 1) >> 8);
 1208              		.loc 1 366 26 is_stmt 0 view .LVU309
 1209 01a8 A089     		ldrh	r0, [r4, #12]
ARM GAS  C:\usertemp\ccUDQ5mr.s 			page 31


 366:Drivers/LCD_FMC/src/tftLCD.c ****         LCD_WR_DATA((lcddev.height - 1) >> 8);
 1210              		.loc 1 366 9 view .LVU310
 1211 01aa 0230     		adds	r0, r0, #2
 1212 01ac 80B2     		uxth	r0, r0
 1213 01ae FFF7FEFF 		bl	LCD_WR_REG
 1214              	.LVL117:
 367:Drivers/LCD_FMC/src/tftLCD.c ****         LCD_WR_REG(lcddev.setycmd + 3);
 1215              		.loc 1 367 9 is_stmt 1 view .LVU311
 367:Drivers/LCD_FMC/src/tftLCD.c ****         LCD_WR_REG(lcddev.setycmd + 3);
 1216              		.loc 1 367 28 is_stmt 0 view .LVU312
 1217 01b2 6088     		ldrh	r0, [r4, #2]
 367:Drivers/LCD_FMC/src/tftLCD.c ****         LCD_WR_REG(lcddev.setycmd + 3);
 1218              		.loc 1 367 36 view .LVU313
 1219 01b4 0138     		subs	r0, r0, #1
 367:Drivers/LCD_FMC/src/tftLCD.c ****         LCD_WR_REG(lcddev.setycmd + 3);
 1220              		.loc 1 367 9 view .LVU314
 1221 01b6 C0F30F20 		ubfx	r0, r0, #8, #16
 1222 01ba FFF7FEFF 		bl	LCD_WR_DATA
 1223              	.LVL118:
 368:Drivers/LCD_FMC/src/tftLCD.c ****         LCD_WR_DATA((lcddev.height - 1) & 0XFF);
 1224              		.loc 1 368 9 is_stmt 1 view .LVU315
 368:Drivers/LCD_FMC/src/tftLCD.c ****         LCD_WR_DATA((lcddev.height - 1) & 0XFF);
 1225              		.loc 1 368 26 is_stmt 0 view .LVU316
 1226 01be A089     		ldrh	r0, [r4, #12]
 368:Drivers/LCD_FMC/src/tftLCD.c ****         LCD_WR_DATA((lcddev.height - 1) & 0XFF);
 1227              		.loc 1 368 9 view .LVU317
 1228 01c0 0330     		adds	r0, r0, #3
 1229 01c2 80B2     		uxth	r0, r0
 1230 01c4 FFF7FEFF 		bl	LCD_WR_REG
 1231              	.LVL119:
 369:Drivers/LCD_FMC/src/tftLCD.c ****     }
 1232              		.loc 1 369 9 is_stmt 1 view .LVU318
 369:Drivers/LCD_FMC/src/tftLCD.c ****     }
 1233              		.loc 1 369 28 is_stmt 0 view .LVU319
 1234 01c8 6088     		ldrh	r0, [r4, #2]
 369:Drivers/LCD_FMC/src/tftLCD.c ****     }
 1235              		.loc 1 369 36 view .LVU320
 1236 01ca 0138     		subs	r0, r0, #1
 369:Drivers/LCD_FMC/src/tftLCD.c ****     }
 1237              		.loc 1 369 9 view .LVU321
 1238 01cc C0B2     		uxtb	r0, r0
 1239 01ce FFF7FEFF 		bl	LCD_WR_DATA
 1240              	.LVL120:
 1241 01d2 8EE7     		b	.L59
 1242              	.L94:
 1243              		.align	2
 1244              	.L93:
 1245 01d4 00000000 		.word	lcddev
 1246              		.cfi_endproc
 1247              	.LFE347:
 1249              		.section	.text.LCD_DrawPoint,"ax",%progbits
 1250              		.align	1
 1251              		.global	LCD_DrawPoint
 1252              		.syntax unified
 1253              		.thumb
 1254              		.thumb_func
 1256              	LCD_DrawPoint:
ARM GAS  C:\usertemp\ccUDQ5mr.s 			page 32


 1257              	.LVL121:
 1258              	.LFB348:
 385:Drivers/LCD_FMC/src/tftLCD.c **** 
 386:Drivers/LCD_FMC/src/tftLCD.c **** //画点
 387:Drivers/LCD_FMC/src/tftLCD.c **** //x,y:坐标
 388:Drivers/LCD_FMC/src/tftLCD.c **** //POINT_COLOR:此点的颜色
 389:Drivers/LCD_FMC/src/tftLCD.c **** void LCD_DrawPoint(uint16_t x,uint16_t y)
 390:Drivers/LCD_FMC/src/tftLCD.c **** {
 1259              		.loc 1 390 1 is_stmt 1 view -0
 1260              		.cfi_startproc
 1261              		@ args = 0, pretend = 0, frame = 0
 1262              		@ frame_needed = 0, uses_anonymous_args = 0
 1263              		.loc 1 390 1 is_stmt 0 view .LVU323
 1264 0000 08B5     		push	{r3, lr}
 1265              	.LCFI13:
 1266              		.cfi_def_cfa_offset 8
 1267              		.cfi_offset 3, -8
 1268              		.cfi_offset 14, -4
 391:Drivers/LCD_FMC/src/tftLCD.c ****     LCD_SetCursor(x,y);		//设置光标位置
 1269              		.loc 1 391 5 is_stmt 1 view .LVU324
 1270 0002 FFF7FEFF 		bl	LCD_SetCursor
 1271              	.LVL122:
 392:Drivers/LCD_FMC/src/tftLCD.c ****     LCD_WriteRAM_Prepare();	//开始写入GRAM
 1272              		.loc 1 392 5 view .LVU325
 1273 0006 FFF7FEFF 		bl	LCD_WriteRAM_Prepare
 1274              	.LVL123:
 393:Drivers/LCD_FMC/src/tftLCD.c ****     LCD->LCD_RAM=POINT_COLOR;
 1275              		.loc 1 393 5 view .LVU326
 1276              		.loc 1 393 17 is_stmt 0 view .LVU327
 1277 000a 034B     		ldr	r3, .L97
 1278 000c 1A88     		ldrh	r2, [r3]
 1279 000e 4FF0C843 		mov	r3, #1677721600
 1280 0012 A3F88020 		strh	r2, [r3, #128]	@ movhi
 394:Drivers/LCD_FMC/src/tftLCD.c **** }
 1281              		.loc 1 394 1 view .LVU328
 1282 0016 08BD     		pop	{r3, pc}
 1283              	.L98:
 1284              		.align	2
 1285              	.L97:
 1286 0018 00000000 		.word	POINT_COLOR
 1287              		.cfi_endproc
 1288              	.LFE348:
 1290              		.section	.text.LCD_Fast_DrawPoint,"ax",%progbits
 1291              		.align	1
 1292              		.global	LCD_Fast_DrawPoint
 1293              		.syntax unified
 1294              		.thumb
 1295              		.thumb_func
 1297              	LCD_Fast_DrawPoint:
 1298              	.LVL124:
 1299              	.LFB349:
 395:Drivers/LCD_FMC/src/tftLCD.c **** 
 396:Drivers/LCD_FMC/src/tftLCD.c **** //快速画点
 397:Drivers/LCD_FMC/src/tftLCD.c **** //x,y:坐标
 398:Drivers/LCD_FMC/src/tftLCD.c **** //color:颜色
 399:Drivers/LCD_FMC/src/tftLCD.c **** void LCD_Fast_DrawPoint(uint16_t x,uint16_t y,uint32_t color)
 400:Drivers/LCD_FMC/src/tftLCD.c **** {
ARM GAS  C:\usertemp\ccUDQ5mr.s 			page 33


 1300              		.loc 1 400 1 is_stmt 1 view -0
 1301              		.cfi_startproc
 1302              		@ args = 0, pretend = 0, frame = 0
 1303              		@ frame_needed = 0, uses_anonymous_args = 0
 1304              		.loc 1 400 1 is_stmt 0 view .LVU330
 1305 0000 2DE9F041 		push	{r4, r5, r6, r7, r8, lr}
 1306              	.LCFI14:
 1307              		.cfi_def_cfa_offset 24
 1308              		.cfi_offset 4, -24
 1309              		.cfi_offset 5, -20
 1310              		.cfi_offset 6, -16
 1311              		.cfi_offset 7, -12
 1312              		.cfi_offset 8, -8
 1313              		.cfi_offset 14, -4
 1314 0004 0446     		mov	r4, r0
 1315 0006 0E46     		mov	r6, r1
 1316 0008 1546     		mov	r5, r2
 401:Drivers/LCD_FMC/src/tftLCD.c ****     if (lcddev.id == 0X5510)
 1317              		.loc 1 401 5 is_stmt 1 view .LVU331
 1318              		.loc 1 401 15 is_stmt 0 view .LVU332
 1319 000a 3A4B     		ldr	r3, .L106
 1320 000c 9B88     		ldrh	r3, [r3, #4]
 1321              		.loc 1 401 8 view .LVU333
 1322 000e 45F2105C 		movw	ip, #21776
 1323 0012 6345     		cmp	r3, ip
 1324 0014 3BD0     		beq	.L105
 402:Drivers/LCD_FMC/src/tftLCD.c ****     {
 403:Drivers/LCD_FMC/src/tftLCD.c ****         LCD_WR_REG(lcddev.setxcmd);
 404:Drivers/LCD_FMC/src/tftLCD.c ****         LCD_WR_DATA(x >> 8);
 405:Drivers/LCD_FMC/src/tftLCD.c ****         LCD_WR_REG(lcddev.setxcmd + 1);
 406:Drivers/LCD_FMC/src/tftLCD.c ****         LCD_WR_DATA(x & 0XFF);
 407:Drivers/LCD_FMC/src/tftLCD.c ****         LCD_WR_REG(lcddev.setycmd);
 408:Drivers/LCD_FMC/src/tftLCD.c ****         LCD_WR_DATA(y >> 8);
 409:Drivers/LCD_FMC/src/tftLCD.c ****         LCD_WR_REG(lcddev.setycmd + 1);
 410:Drivers/LCD_FMC/src/tftLCD.c ****         LCD_WR_DATA(y & 0XFF);
 411:Drivers/LCD_FMC/src/tftLCD.c ****     }
 412:Drivers/LCD_FMC/src/tftLCD.c ****     else if (lcddev.id == 0X1963)
 1325              		.loc 1 412 10 is_stmt 1 view .LVU334
 1326              		.loc 1 412 13 is_stmt 0 view .LVU335
 1327 0016 41F66312 		movw	r2, #6499
 1328              	.LVL125:
 1329              		.loc 1 412 13 view .LVU336
 1330 001a 9342     		cmp	r3, r2
 1331 001c 55D1     		bne	.L102
 413:Drivers/LCD_FMC/src/tftLCD.c ****     {
 414:Drivers/LCD_FMC/src/tftLCD.c ****         if (lcddev.dir == 0)x = lcddev.width - 1 - x;
 1332              		.loc 1 414 9 is_stmt 1 view .LVU337
 1333              		.loc 1 414 19 is_stmt 0 view .LVU338
 1334 001e 354B     		ldr	r3, .L106
 1335 0020 9B79     		ldrb	r3, [r3, #6]	@ zero_extendqisi2
 1336              		.loc 1 414 12 view .LVU339
 1337 0022 2BB9     		cbnz	r3, .L103
 1338              		.loc 1 414 29 is_stmt 1 discriminator 1 view .LVU340
 1339              		.loc 1 414 39 is_stmt 0 discriminator 1 view .LVU341
 1340 0024 334B     		ldr	r3, .L106
 1341 0026 1B88     		ldrh	r3, [r3]
 1342              		.loc 1 414 50 discriminator 1 view .LVU342
ARM GAS  C:\usertemp\ccUDQ5mr.s 			page 34


 1343 0028 1B1A     		subs	r3, r3, r0
 1344 002a 9BB2     		uxth	r3, r3
 1345              		.loc 1 414 31 discriminator 1 view .LVU343
 1346 002c 013B     		subs	r3, r3, #1
 1347 002e 9CB2     		uxth	r4, r3
 1348              	.LVL126:
 1349              	.L103:
 415:Drivers/LCD_FMC/src/tftLCD.c **** 
 416:Drivers/LCD_FMC/src/tftLCD.c ****         LCD_WR_REG(lcddev.setxcmd);
 1350              		.loc 1 416 9 is_stmt 1 view .LVU344
 1351 0030 304F     		ldr	r7, .L106
 1352 0032 7889     		ldrh	r0, [r7, #10]
 1353 0034 FFF7FEFF 		bl	LCD_WR_REG
 1354              	.LVL127:
 417:Drivers/LCD_FMC/src/tftLCD.c ****         LCD_WR_DATA(x >> 8);
 1355              		.loc 1 417 9 view .LVU345
 1356 0038 4FEA1428 		lsr	r8, r4, #8
 1357 003c 4046     		mov	r0, r8
 1358 003e FFF7FEFF 		bl	LCD_WR_DATA
 1359              	.LVL128:
 418:Drivers/LCD_FMC/src/tftLCD.c ****         LCD_WR_DATA(x & 0XFF);
 1360              		.loc 1 418 9 view .LVU346
 1361 0042 E4B2     		uxtb	r4, r4
 1362              	.LVL129:
 1363              		.loc 1 418 9 is_stmt 0 view .LVU347
 1364 0044 2046     		mov	r0, r4
 1365 0046 FFF7FEFF 		bl	LCD_WR_DATA
 1366              	.LVL130:
 419:Drivers/LCD_FMC/src/tftLCD.c ****         LCD_WR_DATA(x >> 8);
 1367              		.loc 1 419 9 is_stmt 1 view .LVU348
 1368 004a 4046     		mov	r0, r8
 1369 004c FFF7FEFF 		bl	LCD_WR_DATA
 1370              	.LVL131:
 420:Drivers/LCD_FMC/src/tftLCD.c ****         LCD_WR_DATA(x & 0XFF);
 1371              		.loc 1 420 9 view .LVU349
 1372 0050 2046     		mov	r0, r4
 1373 0052 FFF7FEFF 		bl	LCD_WR_DATA
 1374              	.LVL132:
 421:Drivers/LCD_FMC/src/tftLCD.c ****         LCD_WR_REG(lcddev.setycmd);
 1375              		.loc 1 421 9 view .LVU350
 1376 0056 B889     		ldrh	r0, [r7, #12]
 1377 0058 FFF7FEFF 		bl	LCD_WR_REG
 1378              	.LVL133:
 422:Drivers/LCD_FMC/src/tftLCD.c ****         LCD_WR_DATA(y >> 8);
 1379              		.loc 1 422 9 view .LVU351
 1380 005c 340A     		lsrs	r4, r6, #8
 1381 005e 2046     		mov	r0, r4
 1382 0060 FFF7FEFF 		bl	LCD_WR_DATA
 1383              	.LVL134:
 423:Drivers/LCD_FMC/src/tftLCD.c ****         LCD_WR_DATA(y & 0XFF);
 1384              		.loc 1 423 9 view .LVU352
 1385 0064 F6B2     		uxtb	r6, r6
 1386              	.LVL135:
 1387              		.loc 1 423 9 is_stmt 0 view .LVU353
 1388 0066 3046     		mov	r0, r6
 1389 0068 FFF7FEFF 		bl	LCD_WR_DATA
 1390              	.LVL136:
ARM GAS  C:\usertemp\ccUDQ5mr.s 			page 35


 424:Drivers/LCD_FMC/src/tftLCD.c ****         LCD_WR_DATA(y >> 8);
 1391              		.loc 1 424 9 is_stmt 1 view .LVU354
 1392 006c 2046     		mov	r0, r4
 1393 006e FFF7FEFF 		bl	LCD_WR_DATA
 1394              	.LVL137:
 425:Drivers/LCD_FMC/src/tftLCD.c ****         LCD_WR_DATA(y & 0XFF);
 1395              		.loc 1 425 9 view .LVU355
 1396 0072 3046     		mov	r0, r6
 1397 0074 FFF7FEFF 		bl	LCD_WR_DATA
 1398              	.LVL138:
 1399              	.L101:
 426:Drivers/LCD_FMC/src/tftLCD.c ****     }
 427:Drivers/LCD_FMC/src/tftLCD.c ****     else     															//9341/5310/7789等设置坐标
 428:Drivers/LCD_FMC/src/tftLCD.c ****     {
 429:Drivers/LCD_FMC/src/tftLCD.c ****         LCD_WR_REG(lcddev.setxcmd);
 430:Drivers/LCD_FMC/src/tftLCD.c ****         LCD_WR_DATA(x >> 8);
 431:Drivers/LCD_FMC/src/tftLCD.c ****         LCD_WR_DATA(x & 0XFF);
 432:Drivers/LCD_FMC/src/tftLCD.c ****         LCD_WR_REG(lcddev.setycmd);
 433:Drivers/LCD_FMC/src/tftLCD.c ****         LCD_WR_DATA(y >> 8);
 434:Drivers/LCD_FMC/src/tftLCD.c ****         LCD_WR_DATA(y & 0XFF);
 435:Drivers/LCD_FMC/src/tftLCD.c ****     }
 436:Drivers/LCD_FMC/src/tftLCD.c **** 
 437:Drivers/LCD_FMC/src/tftLCD.c ****     LCD->LCD_REG=lcddev.wramcmd;
 1400              		.loc 1 437 5 view .LVU356
 1401              		.loc 1 437 24 is_stmt 0 view .LVU357
 1402 0078 1E4B     		ldr	r3, .L106
 1403 007a 1989     		ldrh	r1, [r3, #8]
 1404              		.loc 1 437 17 view .LVU358
 1405 007c 4FF0C843 		mov	r3, #1677721600
 1406 0080 A3F87E10 		strh	r1, [r3, #126]	@ movhi
 438:Drivers/LCD_FMC/src/tftLCD.c ****     LCD->LCD_RAM=color;
 1407              		.loc 1 438 5 is_stmt 1 view .LVU359
 1408              		.loc 1 438 17 is_stmt 0 view .LVU360
 1409 0084 AAB2     		uxth	r2, r5
 1410 0086 A3F88020 		strh	r2, [r3, #128]	@ movhi
 439:Drivers/LCD_FMC/src/tftLCD.c **** }
 1411              		.loc 1 439 1 view .LVU361
 1412 008a BDE8F081 		pop	{r4, r5, r6, r7, r8, pc}
 1413              	.LVL139:
 1414              	.L105:
 403:Drivers/LCD_FMC/src/tftLCD.c ****         LCD_WR_DATA(x >> 8);
 1415              		.loc 1 403 9 is_stmt 1 view .LVU362
 1416 008e 194F     		ldr	r7, .L106
 1417 0090 7889     		ldrh	r0, [r7, #10]
 1418              	.LVL140:
 403:Drivers/LCD_FMC/src/tftLCD.c ****         LCD_WR_DATA(x >> 8);
 1419              		.loc 1 403 9 is_stmt 0 view .LVU363
 1420 0092 FFF7FEFF 		bl	LCD_WR_REG
 1421              	.LVL141:
 404:Drivers/LCD_FMC/src/tftLCD.c ****         LCD_WR_REG(lcddev.setxcmd + 1);
 1422              		.loc 1 404 9 is_stmt 1 view .LVU364
 1423 0096 200A     		lsrs	r0, r4, #8
 1424 0098 FFF7FEFF 		bl	LCD_WR_DATA
 1425              	.LVL142:
 405:Drivers/LCD_FMC/src/tftLCD.c ****         LCD_WR_DATA(x & 0XFF);
 1426              		.loc 1 405 9 view .LVU365
 405:Drivers/LCD_FMC/src/tftLCD.c ****         LCD_WR_DATA(x & 0XFF);
ARM GAS  C:\usertemp\ccUDQ5mr.s 			page 36


 1427              		.loc 1 405 26 is_stmt 0 view .LVU366
 1428 009c 7889     		ldrh	r0, [r7, #10]
 405:Drivers/LCD_FMC/src/tftLCD.c ****         LCD_WR_DATA(x & 0XFF);
 1429              		.loc 1 405 9 view .LVU367
 1430 009e 0130     		adds	r0, r0, #1
 1431 00a0 80B2     		uxth	r0, r0
 1432 00a2 FFF7FEFF 		bl	LCD_WR_REG
 1433              	.LVL143:
 406:Drivers/LCD_FMC/src/tftLCD.c ****         LCD_WR_REG(lcddev.setycmd);
 1434              		.loc 1 406 9 is_stmt 1 view .LVU368
 1435 00a6 E0B2     		uxtb	r0, r4
 1436 00a8 FFF7FEFF 		bl	LCD_WR_DATA
 1437              	.LVL144:
 407:Drivers/LCD_FMC/src/tftLCD.c ****         LCD_WR_DATA(y >> 8);
 1438              		.loc 1 407 9 view .LVU369
 1439 00ac B889     		ldrh	r0, [r7, #12]
 1440 00ae FFF7FEFF 		bl	LCD_WR_REG
 1441              	.LVL145:
 408:Drivers/LCD_FMC/src/tftLCD.c ****         LCD_WR_REG(lcddev.setycmd + 1);
 1442              		.loc 1 408 9 view .LVU370
 1443 00b2 300A     		lsrs	r0, r6, #8
 1444 00b4 FFF7FEFF 		bl	LCD_WR_DATA
 1445              	.LVL146:
 409:Drivers/LCD_FMC/src/tftLCD.c ****         LCD_WR_DATA(y & 0XFF);
 1446              		.loc 1 409 9 view .LVU371
 409:Drivers/LCD_FMC/src/tftLCD.c ****         LCD_WR_DATA(y & 0XFF);
 1447              		.loc 1 409 26 is_stmt 0 view .LVU372
 1448 00b8 B889     		ldrh	r0, [r7, #12]
 409:Drivers/LCD_FMC/src/tftLCD.c ****         LCD_WR_DATA(y & 0XFF);
 1449              		.loc 1 409 9 view .LVU373
 1450 00ba 0130     		adds	r0, r0, #1
 1451 00bc 80B2     		uxth	r0, r0
 1452 00be FFF7FEFF 		bl	LCD_WR_REG
 1453              	.LVL147:
 410:Drivers/LCD_FMC/src/tftLCD.c ****     }
 1454              		.loc 1 410 9 is_stmt 1 view .LVU374
 1455 00c2 F0B2     		uxtb	r0, r6
 1456 00c4 FFF7FEFF 		bl	LCD_WR_DATA
 1457              	.LVL148:
 1458 00c8 D6E7     		b	.L101
 1459              	.LVL149:
 1460              	.L102:
 429:Drivers/LCD_FMC/src/tftLCD.c ****         LCD_WR_DATA(x >> 8);
 1461              		.loc 1 429 9 view .LVU375
 1462 00ca 0A4F     		ldr	r7, .L106
 1463 00cc 7889     		ldrh	r0, [r7, #10]
 1464              	.LVL150:
 429:Drivers/LCD_FMC/src/tftLCD.c ****         LCD_WR_DATA(x >> 8);
 1465              		.loc 1 429 9 is_stmt 0 view .LVU376
 1466 00ce FFF7FEFF 		bl	LCD_WR_REG
 1467              	.LVL151:
 430:Drivers/LCD_FMC/src/tftLCD.c ****         LCD_WR_DATA(x & 0XFF);
 1468              		.loc 1 430 9 is_stmt 1 view .LVU377
 1469 00d2 200A     		lsrs	r0, r4, #8
 1470 00d4 FFF7FEFF 		bl	LCD_WR_DATA
 1471              	.LVL152:
 431:Drivers/LCD_FMC/src/tftLCD.c ****         LCD_WR_REG(lcddev.setycmd);
ARM GAS  C:\usertemp\ccUDQ5mr.s 			page 37


 1472              		.loc 1 431 9 view .LVU378
 1473 00d8 E0B2     		uxtb	r0, r4
 1474 00da FFF7FEFF 		bl	LCD_WR_DATA
 1475              	.LVL153:
 432:Drivers/LCD_FMC/src/tftLCD.c ****         LCD_WR_DATA(y >> 8);
 1476              		.loc 1 432 9 view .LVU379
 1477 00de B889     		ldrh	r0, [r7, #12]
 1478 00e0 FFF7FEFF 		bl	LCD_WR_REG
 1479              	.LVL154:
 433:Drivers/LCD_FMC/src/tftLCD.c ****         LCD_WR_DATA(y & 0XFF);
 1480              		.loc 1 433 9 view .LVU380
 1481 00e4 300A     		lsrs	r0, r6, #8
 1482 00e6 FFF7FEFF 		bl	LCD_WR_DATA
 1483              	.LVL155:
 434:Drivers/LCD_FMC/src/tftLCD.c ****     }
 1484              		.loc 1 434 9 view .LVU381
 1485 00ea F0B2     		uxtb	r0, r6
 1486 00ec FFF7FEFF 		bl	LCD_WR_DATA
 1487              	.LVL156:
 1488 00f0 C2E7     		b	.L101
 1489              	.L107:
 1490 00f2 00BF     		.align	2
 1491              	.L106:
 1492 00f4 00000000 		.word	lcddev
 1493              		.cfi_endproc
 1494              	.LFE349:
 1496              		.section	.text.LCD_SSD_BackLightSet,"ax",%progbits
 1497              		.align	1
 1498              		.global	LCD_SSD_BackLightSet
 1499              		.syntax unified
 1500              		.thumb
 1501              		.thumb_func
 1503              	LCD_SSD_BackLightSet:
 1504              	.LVL157:
 1505              	.LFB350:
 440:Drivers/LCD_FMC/src/tftLCD.c **** 
 441:Drivers/LCD_FMC/src/tftLCD.c **** //SSD1963 背光设置
 442:Drivers/LCD_FMC/src/tftLCD.c **** //pwm:背光等级,0~100.越大越亮.
 443:Drivers/LCD_FMC/src/tftLCD.c **** void LCD_SSD_BackLightSet(uint8_t pwm)
 444:Drivers/LCD_FMC/src/tftLCD.c **** {
 1506              		.loc 1 444 1 view -0
 1507              		.cfi_startproc
 1508              		@ args = 0, pretend = 0, frame = 0
 1509              		@ frame_needed = 0, uses_anonymous_args = 0
 1510              		.loc 1 444 1 is_stmt 0 view .LVU383
 1511 0000 08B5     		push	{r3, lr}
 1512              	.LCFI15:
 1513              		.cfi_def_cfa_offset 8
 1514              		.cfi_offset 3, -8
 1515              		.cfi_offset 14, -4
 1516 0002 2DED028B 		vpush.64	{d8}
 1517              	.LCFI16:
 1518              		.cfi_def_cfa_offset 16
 1519              		.cfi_offset 80, -16
 1520              		.cfi_offset 81, -12
 1521 0006 08EE100A 		vmov	s16, r0	@ int
 445:Drivers/LCD_FMC/src/tftLCD.c ****     LCD_WR_REG(0xBE);												//配置PWM输出
ARM GAS  C:\usertemp\ccUDQ5mr.s 			page 38


 1522              		.loc 1 445 5 is_stmt 1 view .LVU384
 1523 000a BE20     		movs	r0, #190
 1524              	.LVL158:
 1525              		.loc 1 445 5 is_stmt 0 view .LVU385
 1526 000c FFF7FEFF 		bl	LCD_WR_REG
 1527              	.LVL159:
 446:Drivers/LCD_FMC/src/tftLCD.c ****     LCD_WR_DATA(0x05);											//1设置PWM频率
 1528              		.loc 1 446 5 is_stmt 1 view .LVU386
 1529 0010 0520     		movs	r0, #5
 1530 0012 FFF7FEFF 		bl	LCD_WR_DATA
 1531              	.LVL160:
 447:Drivers/LCD_FMC/src/tftLCD.c ****     LCD_WR_DATA(pwm*2.55);									//2设置PWM占空比
 1532              		.loc 1 447 5 view .LVU387
 1533              		.loc 1 447 20 is_stmt 0 view .LVU388
 1534 0016 B8EEC87B 		vcvt.f64.s32	d7, s16
 1535 001a 9FED0D6B 		vldr.64	d6, .L110
 1536 001e 27EE067B 		vmul.f64	d7, d7, d6
 1537              		.loc 1 447 5 view .LVU389
 1538 0022 BCEEC77B 		vcvt.u32.f64	s14, d7
 1539 0026 17EE103A 		vmov	r3, s14	@ int
 1540 002a 98B2     		uxth	r0, r3
 1541 002c FFF7FEFF 		bl	LCD_WR_DATA
 1542              	.LVL161:
 448:Drivers/LCD_FMC/src/tftLCD.c ****     LCD_WR_DATA(0x01);											//3设置C
 1543              		.loc 1 448 5 is_stmt 1 view .LVU390
 1544 0030 0120     		movs	r0, #1
 1545 0032 FFF7FEFF 		bl	LCD_WR_DATA
 1546              	.LVL162:
 449:Drivers/LCD_FMC/src/tftLCD.c ****     LCD_WR_DATA(0xFF);											//4设置D
 1547              		.loc 1 449 5 view .LVU391
 1548 0036 FF20     		movs	r0, #255
 1549 0038 FFF7FEFF 		bl	LCD_WR_DATA
 1550              	.LVL163:
 450:Drivers/LCD_FMC/src/tftLCD.c ****     LCD_WR_DATA(0x00);											//5设置E
 1551              		.loc 1 450 5 view .LVU392
 1552 003c 0020     		movs	r0, #0
 1553 003e FFF7FEFF 		bl	LCD_WR_DATA
 1554              	.LVL164:
 451:Drivers/LCD_FMC/src/tftLCD.c ****     LCD_WR_DATA(0x00);											//6设置F
 1555              		.loc 1 451 5 view .LVU393
 1556 0042 0020     		movs	r0, #0
 1557 0044 FFF7FEFF 		bl	LCD_WR_DATA
 1558              	.LVL165:
 452:Drivers/LCD_FMC/src/tftLCD.c **** }
 1559              		.loc 1 452 1 is_stmt 0 view .LVU394
 1560 0048 BDEC028B 		vldm	sp!, {d8}
 1561              	.LCFI17:
 1562              		.cfi_restore 80
 1563              		.cfi_restore 81
 1564              		.cfi_def_cfa_offset 8
 1565              	.LVL166:
 1566              		.loc 1 452 1 view .LVU395
 1567 004c 08BD     		pop	{r3, pc}
 1568              	.L111:
 1569 004e 00BF     		.align	3
 1570              	.L110:
 1571 0050 66666666 		.word	1717986918
ARM GAS  C:\usertemp\ccUDQ5mr.s 			page 39


 1572 0054 66660440 		.word	1074030182
 1573              		.cfi_endproc
 1574              	.LFE350:
 1576              		.section	.text.LCD_Display_Dir,"ax",%progbits
 1577              		.align	1
 1578              		.global	LCD_Display_Dir
 1579              		.syntax unified
 1580              		.thumb
 1581              		.thumb_func
 1583              	LCD_Display_Dir:
 1584              	.LVL167:
 1585              	.LFB351:
 453:Drivers/LCD_FMC/src/tftLCD.c **** 
 454:Drivers/LCD_FMC/src/tftLCD.c **** //设置LCD显示方向
 455:Drivers/LCD_FMC/src/tftLCD.c **** //dir:0,竖屏；1,横屏
 456:Drivers/LCD_FMC/src/tftLCD.c **** void LCD_Display_Dir(uint8_t dir)
 457:Drivers/LCD_FMC/src/tftLCD.c **** {
 1586              		.loc 1 457 1 is_stmt 1 view -0
 1587              		.cfi_startproc
 1588              		@ args = 0, pretend = 0, frame = 0
 1589              		@ frame_needed = 0, uses_anonymous_args = 0
 1590              		.loc 1 457 1 is_stmt 0 view .LVU397
 1591 0000 08B5     		push	{r3, lr}
 1592              	.LCFI18:
 1593              		.cfi_def_cfa_offset 8
 1594              		.cfi_offset 3, -8
 1595              		.cfi_offset 14, -4
 458:Drivers/LCD_FMC/src/tftLCD.c ****     lcddev.dir = dir;       								//竖屏/横屏
 1596              		.loc 1 458 5 is_stmt 1 view .LVU398
 1597              		.loc 1 458 16 is_stmt 0 view .LVU399
 1598 0002 444B     		ldr	r3, .L127
 1599 0004 9871     		strb	r0, [r3, #6]
 459:Drivers/LCD_FMC/src/tftLCD.c **** 
 460:Drivers/LCD_FMC/src/tftLCD.c ****     if (dir == 0)           								//竖屏
 1600              		.loc 1 460 5 is_stmt 1 view .LVU400
 1601              		.loc 1 460 8 is_stmt 0 view .LVU401
 1602 0006 0028     		cmp	r0, #0
 1603 0008 43D1     		bne	.L113
 461:Drivers/LCD_FMC/src/tftLCD.c ****     {
 462:Drivers/LCD_FMC/src/tftLCD.c ****         lcddev.width = 240;
 1604              		.loc 1 462 9 is_stmt 1 view .LVU402
 1605              		.loc 1 462 22 is_stmt 0 view .LVU403
 1606 000a F022     		movs	r2, #240
 1607 000c 1A80     		strh	r2, [r3]	@ movhi
 463:Drivers/LCD_FMC/src/tftLCD.c ****         lcddev.height = 320;
 1608              		.loc 1 463 9 is_stmt 1 view .LVU404
 1609              		.loc 1 463 23 is_stmt 0 view .LVU405
 1610 000e 4FF4A072 		mov	r2, #320
 1611 0012 5A80     		strh	r2, [r3, #2]	@ movhi
 464:Drivers/LCD_FMC/src/tftLCD.c **** 
 465:Drivers/LCD_FMC/src/tftLCD.c ****         if (lcddev.id == 0x5510)
 1612              		.loc 1 465 9 is_stmt 1 view .LVU406
 1613              		.loc 1 465 19 is_stmt 0 view .LVU407
 1614 0014 9B88     		ldrh	r3, [r3, #4]
 1615              		.loc 1 465 12 view .LVU408
 1616 0016 45F21052 		movw	r2, #21776
 1617 001a 9342     		cmp	r3, r2
ARM GAS  C:\usertemp\ccUDQ5mr.s 			page 40


 1618 001c 12D0     		beq	.L122
 466:Drivers/LCD_FMC/src/tftLCD.c ****         {
 467:Drivers/LCD_FMC/src/tftLCD.c ****             lcddev.wramcmd = 0X2C00;
 468:Drivers/LCD_FMC/src/tftLCD.c ****             lcddev.setxcmd = 0X2A00;
 469:Drivers/LCD_FMC/src/tftLCD.c ****             lcddev.setycmd = 0X2B00;
 470:Drivers/LCD_FMC/src/tftLCD.c ****             lcddev.width = 480;
 471:Drivers/LCD_FMC/src/tftLCD.c ****             lcddev.height = 800;
 472:Drivers/LCD_FMC/src/tftLCD.c ****         }
 473:Drivers/LCD_FMC/src/tftLCD.c ****         else if (lcddev.id == 0X1963)
 1619              		.loc 1 473 14 is_stmt 1 view .LVU409
 1620              		.loc 1 473 17 is_stmt 0 view .LVU410
 1621 001e 41F66312 		movw	r2, #6499
 1622 0022 9342     		cmp	r3, r2
 1623 0024 1FD0     		beq	.L123
 474:Drivers/LCD_FMC/src/tftLCD.c ****         {
 475:Drivers/LCD_FMC/src/tftLCD.c ****             lcddev.wramcmd = 0X2C;  				//设置写入GRAM的指令
 476:Drivers/LCD_FMC/src/tftLCD.c ****             lcddev.setxcmd = 0X2B;  				//设置写X坐标指令
 477:Drivers/LCD_FMC/src/tftLCD.c ****             lcddev.setycmd = 0X2A;  				//设置写Y坐标指令
 478:Drivers/LCD_FMC/src/tftLCD.c ****             lcddev.width = 480;     				//设置宽度480
 479:Drivers/LCD_FMC/src/tftLCD.c ****             lcddev.height = 800;    				//设置高度800
 480:Drivers/LCD_FMC/src/tftLCD.c ****         }
 481:Drivers/LCD_FMC/src/tftLCD.c ****         else                        				//其他IC, 包括: 9341 / 5310 / 7789等IC
 482:Drivers/LCD_FMC/src/tftLCD.c ****         {
 483:Drivers/LCD_FMC/src/tftLCD.c ****             lcddev.wramcmd = 0X2C;
 1624              		.loc 1 483 13 is_stmt 1 view .LVU411
 1625              		.loc 1 483 28 is_stmt 0 view .LVU412
 1626 0026 3B4A     		ldr	r2, .L127
 1627 0028 2C21     		movs	r1, #44
 1628 002a 1181     		strh	r1, [r2, #8]	@ movhi
 484:Drivers/LCD_FMC/src/tftLCD.c ****             lcddev.setxcmd = 0X2A;
 1629              		.loc 1 484 13 is_stmt 1 view .LVU413
 1630              		.loc 1 484 28 is_stmt 0 view .LVU414
 1631 002c 2A21     		movs	r1, #42
 1632 002e 5181     		strh	r1, [r2, #10]	@ movhi
 485:Drivers/LCD_FMC/src/tftLCD.c ****             lcddev.setycmd = 0X2B;
 1633              		.loc 1 485 13 is_stmt 1 view .LVU415
 1634              		.loc 1 485 28 is_stmt 0 view .LVU416
 1635 0030 2B21     		movs	r1, #43
 1636 0032 9181     		strh	r1, [r2, #12]	@ movhi
 1637              	.L115:
 486:Drivers/LCD_FMC/src/tftLCD.c ****         }
 487:Drivers/LCD_FMC/src/tftLCD.c **** 
 488:Drivers/LCD_FMC/src/tftLCD.c ****         if (lcddev.id == 0X5310)    				//如果是5310 则表示是 320*480分辨率
 1638              		.loc 1 488 9 is_stmt 1 view .LVU417
 1639              		.loc 1 488 12 is_stmt 0 view .LVU418
 1640 0034 45F21032 		movw	r2, #21264
 1641 0038 9342     		cmp	r3, r2
 1642 003a 22D0     		beq	.L124
 1643              	.L117:
 489:Drivers/LCD_FMC/src/tftLCD.c ****         {
 490:Drivers/LCD_FMC/src/tftLCD.c ****             lcddev.width = 320;
 491:Drivers/LCD_FMC/src/tftLCD.c ****             lcddev.height = 480;
 492:Drivers/LCD_FMC/src/tftLCD.c ****         }
 493:Drivers/LCD_FMC/src/tftLCD.c ****     }
 494:Drivers/LCD_FMC/src/tftLCD.c ****     else     																//横屏
 495:Drivers/LCD_FMC/src/tftLCD.c ****     {
 496:Drivers/LCD_FMC/src/tftLCD.c ****         lcddev.width = 320;
ARM GAS  C:\usertemp\ccUDQ5mr.s 			page 41


 497:Drivers/LCD_FMC/src/tftLCD.c ****         lcddev.height = 240;
 498:Drivers/LCD_FMC/src/tftLCD.c **** 
 499:Drivers/LCD_FMC/src/tftLCD.c ****         if (lcddev.id == 0x5510)
 500:Drivers/LCD_FMC/src/tftLCD.c ****         {
 501:Drivers/LCD_FMC/src/tftLCD.c ****             lcddev.wramcmd = 0X2C00;
 502:Drivers/LCD_FMC/src/tftLCD.c ****             lcddev.setxcmd = 0X2A00;
 503:Drivers/LCD_FMC/src/tftLCD.c ****             lcddev.setycmd = 0X2B00;
 504:Drivers/LCD_FMC/src/tftLCD.c ****             lcddev.width = 800;
 505:Drivers/LCD_FMC/src/tftLCD.c ****             lcddev.height = 480;
 506:Drivers/LCD_FMC/src/tftLCD.c ****         }
 507:Drivers/LCD_FMC/src/tftLCD.c ****         else if (lcddev.id == 0X1963)
 508:Drivers/LCD_FMC/src/tftLCD.c ****         {
 509:Drivers/LCD_FMC/src/tftLCD.c ****             lcddev.wramcmd = 0X2C;  				//设置写入GRAM的指令
 510:Drivers/LCD_FMC/src/tftLCD.c ****             lcddev.setxcmd = 0X2A;  				//设置写X坐标指令
 511:Drivers/LCD_FMC/src/tftLCD.c ****             lcddev.setycmd = 0X2B;  				//设置写Y坐标指令
 512:Drivers/LCD_FMC/src/tftLCD.c ****             lcddev.width = 800;     				//设置宽度800
 513:Drivers/LCD_FMC/src/tftLCD.c ****             lcddev.height = 480;    				//设置高度480
 514:Drivers/LCD_FMC/src/tftLCD.c ****         }
 515:Drivers/LCD_FMC/src/tftLCD.c ****         else                        				//其他IC, 包括: 9341 / 5310 / 7789等IC
 516:Drivers/LCD_FMC/src/tftLCD.c ****         {
 517:Drivers/LCD_FMC/src/tftLCD.c ****             lcddev.wramcmd = 0X2C;
 518:Drivers/LCD_FMC/src/tftLCD.c ****             lcddev.setxcmd = 0X2A;
 519:Drivers/LCD_FMC/src/tftLCD.c ****             lcddev.setycmd = 0X2B;
 520:Drivers/LCD_FMC/src/tftLCD.c ****         }
 521:Drivers/LCD_FMC/src/tftLCD.c **** 
 522:Drivers/LCD_FMC/src/tftLCD.c ****         if (lcddev.id == 0X5310)    				//如果是5310 则表示是 320*480分辨率
 523:Drivers/LCD_FMC/src/tftLCD.c ****         {
 524:Drivers/LCD_FMC/src/tftLCD.c ****             lcddev.width = 480;
 525:Drivers/LCD_FMC/src/tftLCD.c ****             lcddev.height = 320;
 526:Drivers/LCD_FMC/src/tftLCD.c ****         }
 527:Drivers/LCD_FMC/src/tftLCD.c ****     }
 528:Drivers/LCD_FMC/src/tftLCD.c **** 
 529:Drivers/LCD_FMC/src/tftLCD.c ****     LCD_Scan_Dir(DFT_SCAN_DIR);     				//默认扫描方向
 1644              		.loc 1 529 5 is_stmt 1 view .LVU419
 1645 003c 0020     		movs	r0, #0
 1646              	.LVL168:
 1647              		.loc 1 529 5 is_stmt 0 view .LVU420
 1648 003e FFF7FEFF 		bl	LCD_Scan_Dir
 1649              	.LVL169:
 530:Drivers/LCD_FMC/src/tftLCD.c **** }
 1650              		.loc 1 530 1 view .LVU421
 1651 0042 08BD     		pop	{r3, pc}
 1652              	.LVL170:
 1653              	.L122:
 467:Drivers/LCD_FMC/src/tftLCD.c ****             lcddev.setxcmd = 0X2A00;
 1654              		.loc 1 467 13 is_stmt 1 view .LVU422
 467:Drivers/LCD_FMC/src/tftLCD.c ****             lcddev.setxcmd = 0X2A00;
 1655              		.loc 1 467 28 is_stmt 0 view .LVU423
 1656 0044 334A     		ldr	r2, .L127
 1657 0046 4FF43051 		mov	r1, #11264
 1658 004a 1181     		strh	r1, [r2, #8]	@ movhi
 468:Drivers/LCD_FMC/src/tftLCD.c ****             lcddev.setycmd = 0X2B00;
 1659              		.loc 1 468 13 is_stmt 1 view .LVU424
 468:Drivers/LCD_FMC/src/tftLCD.c ****             lcddev.setycmd = 0X2B00;
 1660              		.loc 1 468 28 is_stmt 0 view .LVU425
 1661 004c 4FF42851 		mov	r1, #10752
 1662 0050 5181     		strh	r1, [r2, #10]	@ movhi
ARM GAS  C:\usertemp\ccUDQ5mr.s 			page 42


 469:Drivers/LCD_FMC/src/tftLCD.c ****             lcddev.width = 480;
 1663              		.loc 1 469 13 is_stmt 1 view .LVU426
 469:Drivers/LCD_FMC/src/tftLCD.c ****             lcddev.width = 480;
 1664              		.loc 1 469 28 is_stmt 0 view .LVU427
 1665 0052 4FF42C51 		mov	r1, #11008
 1666 0056 9181     		strh	r1, [r2, #12]	@ movhi
 470:Drivers/LCD_FMC/src/tftLCD.c ****             lcddev.height = 800;
 1667              		.loc 1 470 13 is_stmt 1 view .LVU428
 470:Drivers/LCD_FMC/src/tftLCD.c ****             lcddev.height = 800;
 1668              		.loc 1 470 26 is_stmt 0 view .LVU429
 1669 0058 4FF4F071 		mov	r1, #480
 1670 005c 1180     		strh	r1, [r2]	@ movhi
 471:Drivers/LCD_FMC/src/tftLCD.c ****         }
 1671              		.loc 1 471 13 is_stmt 1 view .LVU430
 471:Drivers/LCD_FMC/src/tftLCD.c ****         }
 1672              		.loc 1 471 27 is_stmt 0 view .LVU431
 1673 005e 4FF44871 		mov	r1, #800
 1674 0062 5180     		strh	r1, [r2, #2]	@ movhi
 1675 0064 E6E7     		b	.L115
 1676              	.L123:
 475:Drivers/LCD_FMC/src/tftLCD.c ****             lcddev.setxcmd = 0X2B;  				//设置写X坐标指令
 1677              		.loc 1 475 13 is_stmt 1 view .LVU432
 475:Drivers/LCD_FMC/src/tftLCD.c ****             lcddev.setxcmd = 0X2B;  				//设置写X坐标指令
 1678              		.loc 1 475 28 is_stmt 0 view .LVU433
 1679 0066 2B4A     		ldr	r2, .L127
 1680 0068 2C21     		movs	r1, #44
 1681 006a 1181     		strh	r1, [r2, #8]	@ movhi
 476:Drivers/LCD_FMC/src/tftLCD.c ****             lcddev.setycmd = 0X2A;  				//设置写Y坐标指令
 1682              		.loc 1 476 13 is_stmt 1 view .LVU434
 476:Drivers/LCD_FMC/src/tftLCD.c ****             lcddev.setycmd = 0X2A;  				//设置写Y坐标指令
 1683              		.loc 1 476 28 is_stmt 0 view .LVU435
 1684 006c 2B21     		movs	r1, #43
 1685 006e 5181     		strh	r1, [r2, #10]	@ movhi
 477:Drivers/LCD_FMC/src/tftLCD.c ****             lcddev.width = 480;     				//设置宽度480
 1686              		.loc 1 477 13 is_stmt 1 view .LVU436
 477:Drivers/LCD_FMC/src/tftLCD.c ****             lcddev.width = 480;     				//设置宽度480
 1687              		.loc 1 477 28 is_stmt 0 view .LVU437
 1688 0070 2A21     		movs	r1, #42
 1689 0072 9181     		strh	r1, [r2, #12]	@ movhi
 478:Drivers/LCD_FMC/src/tftLCD.c ****             lcddev.height = 800;    				//设置高度800
 1690              		.loc 1 478 13 is_stmt 1 view .LVU438
 478:Drivers/LCD_FMC/src/tftLCD.c ****             lcddev.height = 800;    				//设置高度800
 1691              		.loc 1 478 26 is_stmt 0 view .LVU439
 1692 0074 4FF4F071 		mov	r1, #480
 1693 0078 1180     		strh	r1, [r2]	@ movhi
 479:Drivers/LCD_FMC/src/tftLCD.c ****         }
 1694              		.loc 1 479 13 is_stmt 1 view .LVU440
 479:Drivers/LCD_FMC/src/tftLCD.c ****         }
 1695              		.loc 1 479 27 is_stmt 0 view .LVU441
 1696 007a 4FF44871 		mov	r1, #800
 1697 007e 5180     		strh	r1, [r2, #2]	@ movhi
 1698 0080 D8E7     		b	.L115
 1699              	.L124:
 490:Drivers/LCD_FMC/src/tftLCD.c ****             lcddev.height = 480;
 1700              		.loc 1 490 13 is_stmt 1 view .LVU442
 490:Drivers/LCD_FMC/src/tftLCD.c ****             lcddev.height = 480;
 1701              		.loc 1 490 26 is_stmt 0 view .LVU443
ARM GAS  C:\usertemp\ccUDQ5mr.s 			page 43


 1702 0082 244B     		ldr	r3, .L127
 1703 0084 4FF4A072 		mov	r2, #320
 1704 0088 1A80     		strh	r2, [r3]	@ movhi
 491:Drivers/LCD_FMC/src/tftLCD.c ****         }
 1705              		.loc 1 491 13 is_stmt 1 view .LVU444
 491:Drivers/LCD_FMC/src/tftLCD.c ****         }
 1706              		.loc 1 491 27 is_stmt 0 view .LVU445
 1707 008a 4FF4F072 		mov	r2, #480
 1708 008e 5A80     		strh	r2, [r3, #2]	@ movhi
 1709 0090 D4E7     		b	.L117
 1710              	.L113:
 496:Drivers/LCD_FMC/src/tftLCD.c ****         lcddev.height = 240;
 1711              		.loc 1 496 9 is_stmt 1 view .LVU446
 496:Drivers/LCD_FMC/src/tftLCD.c ****         lcddev.height = 240;
 1712              		.loc 1 496 22 is_stmt 0 view .LVU447
 1713 0092 204B     		ldr	r3, .L127
 1714 0094 4FF4A072 		mov	r2, #320
 1715 0098 1A80     		strh	r2, [r3]	@ movhi
 497:Drivers/LCD_FMC/src/tftLCD.c **** 
 1716              		.loc 1 497 9 is_stmt 1 view .LVU448
 497:Drivers/LCD_FMC/src/tftLCD.c **** 
 1717              		.loc 1 497 23 is_stmt 0 view .LVU449
 1718 009a F022     		movs	r2, #240
 1719 009c 5A80     		strh	r2, [r3, #2]	@ movhi
 499:Drivers/LCD_FMC/src/tftLCD.c ****         {
 1720              		.loc 1 499 9 is_stmt 1 view .LVU450
 499:Drivers/LCD_FMC/src/tftLCD.c ****         {
 1721              		.loc 1 499 19 is_stmt 0 view .LVU451
 1722 009e 9B88     		ldrh	r3, [r3, #4]
 499:Drivers/LCD_FMC/src/tftLCD.c ****         {
 1723              		.loc 1 499 12 view .LVU452
 1724 00a0 45F21052 		movw	r2, #21776
 1725 00a4 9342     		cmp	r3, r2
 1726 00a6 16D0     		beq	.L125
 507:Drivers/LCD_FMC/src/tftLCD.c ****         {
 1727              		.loc 1 507 14 is_stmt 1 view .LVU453
 507:Drivers/LCD_FMC/src/tftLCD.c ****         {
 1728              		.loc 1 507 17 is_stmt 0 view .LVU454
 1729 00a8 41F66312 		movw	r2, #6499
 1730 00ac 9342     		cmp	r3, r2
 1731 00ae 23D0     		beq	.L126
 517:Drivers/LCD_FMC/src/tftLCD.c ****             lcddev.setxcmd = 0X2A;
 1732              		.loc 1 517 13 is_stmt 1 view .LVU455
 517:Drivers/LCD_FMC/src/tftLCD.c ****             lcddev.setxcmd = 0X2A;
 1733              		.loc 1 517 28 is_stmt 0 view .LVU456
 1734 00b0 184A     		ldr	r2, .L127
 1735 00b2 2C21     		movs	r1, #44
 1736 00b4 1181     		strh	r1, [r2, #8]	@ movhi
 518:Drivers/LCD_FMC/src/tftLCD.c ****             lcddev.setycmd = 0X2B;
 1737              		.loc 1 518 13 is_stmt 1 view .LVU457
 518:Drivers/LCD_FMC/src/tftLCD.c ****             lcddev.setycmd = 0X2B;
 1738              		.loc 1 518 28 is_stmt 0 view .LVU458
 1739 00b6 2A21     		movs	r1, #42
 1740 00b8 5181     		strh	r1, [r2, #10]	@ movhi
 519:Drivers/LCD_FMC/src/tftLCD.c ****         }
 1741              		.loc 1 519 13 is_stmt 1 view .LVU459
 519:Drivers/LCD_FMC/src/tftLCD.c ****         }
ARM GAS  C:\usertemp\ccUDQ5mr.s 			page 44


 1742              		.loc 1 519 28 is_stmt 0 view .LVU460
 1743 00ba 2B21     		movs	r1, #43
 1744 00bc 9181     		strh	r1, [r2, #12]	@ movhi
 1745              	.L119:
 522:Drivers/LCD_FMC/src/tftLCD.c ****         {
 1746              		.loc 1 522 9 is_stmt 1 view .LVU461
 522:Drivers/LCD_FMC/src/tftLCD.c ****         {
 1747              		.loc 1 522 12 is_stmt 0 view .LVU462
 1748 00be 45F21032 		movw	r2, #21264
 1749 00c2 9342     		cmp	r3, r2
 1750 00c4 BAD1     		bne	.L117
 524:Drivers/LCD_FMC/src/tftLCD.c ****             lcddev.height = 320;
 1751              		.loc 1 524 13 is_stmt 1 view .LVU463
 524:Drivers/LCD_FMC/src/tftLCD.c ****             lcddev.height = 320;
 1752              		.loc 1 524 26 is_stmt 0 view .LVU464
 1753 00c6 134B     		ldr	r3, .L127
 1754 00c8 4FF4F072 		mov	r2, #480
 1755 00cc 1A80     		strh	r2, [r3]	@ movhi
 525:Drivers/LCD_FMC/src/tftLCD.c ****         }
 1756              		.loc 1 525 13 is_stmt 1 view .LVU465
 525:Drivers/LCD_FMC/src/tftLCD.c ****         }
 1757              		.loc 1 525 27 is_stmt 0 view .LVU466
 1758 00ce 4FF4A072 		mov	r2, #320
 1759 00d2 5A80     		strh	r2, [r3, #2]	@ movhi
 1760 00d4 B2E7     		b	.L117
 1761              	.L125:
 501:Drivers/LCD_FMC/src/tftLCD.c ****             lcddev.setxcmd = 0X2A00;
 1762              		.loc 1 501 13 is_stmt 1 view .LVU467
 501:Drivers/LCD_FMC/src/tftLCD.c ****             lcddev.setxcmd = 0X2A00;
 1763              		.loc 1 501 28 is_stmt 0 view .LVU468
 1764 00d6 0F4A     		ldr	r2, .L127
 1765 00d8 4FF43051 		mov	r1, #11264
 1766 00dc 1181     		strh	r1, [r2, #8]	@ movhi
 502:Drivers/LCD_FMC/src/tftLCD.c ****             lcddev.setycmd = 0X2B00;
 1767              		.loc 1 502 13 is_stmt 1 view .LVU469
 502:Drivers/LCD_FMC/src/tftLCD.c ****             lcddev.setycmd = 0X2B00;
 1768              		.loc 1 502 28 is_stmt 0 view .LVU470
 1769 00de 4FF42851 		mov	r1, #10752
 1770 00e2 5181     		strh	r1, [r2, #10]	@ movhi
 503:Drivers/LCD_FMC/src/tftLCD.c ****             lcddev.width = 800;
 1771              		.loc 1 503 13 is_stmt 1 view .LVU471
 503:Drivers/LCD_FMC/src/tftLCD.c ****             lcddev.width = 800;
 1772              		.loc 1 503 28 is_stmt 0 view .LVU472
 1773 00e4 4FF42C51 		mov	r1, #11008
 1774 00e8 9181     		strh	r1, [r2, #12]	@ movhi
 504:Drivers/LCD_FMC/src/tftLCD.c ****             lcddev.height = 480;
 1775              		.loc 1 504 13 is_stmt 1 view .LVU473
 504:Drivers/LCD_FMC/src/tftLCD.c ****             lcddev.height = 480;
 1776              		.loc 1 504 26 is_stmt 0 view .LVU474
 1777 00ea 4FF44871 		mov	r1, #800
 1778 00ee 1180     		strh	r1, [r2]	@ movhi
 505:Drivers/LCD_FMC/src/tftLCD.c ****         }
 1779              		.loc 1 505 13 is_stmt 1 view .LVU475
 505:Drivers/LCD_FMC/src/tftLCD.c ****         }
 1780              		.loc 1 505 27 is_stmt 0 view .LVU476
 1781 00f0 4FF4F071 		mov	r1, #480
 1782 00f4 5180     		strh	r1, [r2, #2]	@ movhi
ARM GAS  C:\usertemp\ccUDQ5mr.s 			page 45


 1783 00f6 E2E7     		b	.L119
 1784              	.L126:
 509:Drivers/LCD_FMC/src/tftLCD.c ****             lcddev.setxcmd = 0X2A;  				//设置写X坐标指令
 1785              		.loc 1 509 13 is_stmt 1 view .LVU477
 509:Drivers/LCD_FMC/src/tftLCD.c ****             lcddev.setxcmd = 0X2A;  				//设置写X坐标指令
 1786              		.loc 1 509 28 is_stmt 0 view .LVU478
 1787 00f8 064A     		ldr	r2, .L127
 1788 00fa 2C21     		movs	r1, #44
 1789 00fc 1181     		strh	r1, [r2, #8]	@ movhi
 510:Drivers/LCD_FMC/src/tftLCD.c ****             lcddev.setycmd = 0X2B;  				//设置写Y坐标指令
 1790              		.loc 1 510 13 is_stmt 1 view .LVU479
 510:Drivers/LCD_FMC/src/tftLCD.c ****             lcddev.setycmd = 0X2B;  				//设置写Y坐标指令
 1791              		.loc 1 510 28 is_stmt 0 view .LVU480
 1792 00fe 2A21     		movs	r1, #42
 1793 0100 5181     		strh	r1, [r2, #10]	@ movhi
 511:Drivers/LCD_FMC/src/tftLCD.c ****             lcddev.width = 800;     				//设置宽度800
 1794              		.loc 1 511 13 is_stmt 1 view .LVU481
 511:Drivers/LCD_FMC/src/tftLCD.c ****             lcddev.width = 800;     				//设置宽度800
 1795              		.loc 1 511 28 is_stmt 0 view .LVU482
 1796 0102 2B21     		movs	r1, #43
 1797 0104 9181     		strh	r1, [r2, #12]	@ movhi
 512:Drivers/LCD_FMC/src/tftLCD.c ****             lcddev.height = 480;    				//设置高度480
 1798              		.loc 1 512 13 is_stmt 1 view .LVU483
 512:Drivers/LCD_FMC/src/tftLCD.c ****             lcddev.height = 480;    				//设置高度480
 1799              		.loc 1 512 26 is_stmt 0 view .LVU484
 1800 0106 4FF44871 		mov	r1, #800
 1801 010a 1180     		strh	r1, [r2]	@ movhi
 513:Drivers/LCD_FMC/src/tftLCD.c ****         }
 1802              		.loc 1 513 13 is_stmt 1 view .LVU485
 513:Drivers/LCD_FMC/src/tftLCD.c ****         }
 1803              		.loc 1 513 27 is_stmt 0 view .LVU486
 1804 010c 4FF4F071 		mov	r1, #480
 1805 0110 5180     		strh	r1, [r2, #2]	@ movhi
 1806 0112 D4E7     		b	.L119
 1807              	.L128:
 1808              		.align	2
 1809              	.L127:
 1810 0114 00000000 		.word	lcddev
 1811              		.cfi_endproc
 1812              	.LFE351:
 1814              		.section	.text.LCD_Set_Window,"ax",%progbits
 1815              		.align	1
 1816              		.global	LCD_Set_Window
 1817              		.syntax unified
 1818              		.thumb
 1819              		.thumb_func
 1821              	LCD_Set_Window:
 1822              	.LVL171:
 1823              	.LFB352:
 531:Drivers/LCD_FMC/src/tftLCD.c **** 
 532:Drivers/LCD_FMC/src/tftLCD.c **** //设置窗口,并自动设置画点坐标到窗口左上角(sx,sy).
 533:Drivers/LCD_FMC/src/tftLCD.c **** //sx,sy:窗口起始坐标(左上角)
 534:Drivers/LCD_FMC/src/tftLCD.c **** //width,height:窗口宽度和高度,必须大于0!!
 535:Drivers/LCD_FMC/src/tftLCD.c **** //窗体大小:width*height.
 536:Drivers/LCD_FMC/src/tftLCD.c **** void LCD_Set_Window(uint16_t sx, uint16_t sy, uint16_t width, uint16_t height)
 537:Drivers/LCD_FMC/src/tftLCD.c **** {
 1824              		.loc 1 537 1 is_stmt 1 view -0
ARM GAS  C:\usertemp\ccUDQ5mr.s 			page 46


 1825              		.cfi_startproc
 1826              		@ args = 0, pretend = 0, frame = 0
 1827              		@ frame_needed = 0, uses_anonymous_args = 0
 1828              		.loc 1 537 1 is_stmt 0 view .LVU488
 1829 0000 2DE9F843 		push	{r3, r4, r5, r6, r7, r8, r9, lr}
 1830              	.LCFI19:
 1831              		.cfi_def_cfa_offset 32
 1832              		.cfi_offset 3, -32
 1833              		.cfi_offset 4, -28
 1834              		.cfi_offset 5, -24
 1835              		.cfi_offset 6, -20
 1836              		.cfi_offset 7, -16
 1837              		.cfi_offset 8, -12
 1838              		.cfi_offset 9, -8
 1839              		.cfi_offset 14, -4
 1840 0004 0746     		mov	r7, r0
 1841 0006 0E46     		mov	r6, r1
 1842 0008 9046     		mov	r8, r2
 538:Drivers/LCD_FMC/src/tftLCD.c ****     uint16_t twidth, theight;
 1843              		.loc 1 538 5 is_stmt 1 view .LVU489
 539:Drivers/LCD_FMC/src/tftLCD.c ****     twidth = sx + width - 1;
 1844              		.loc 1 539 5 view .LVU490
 1845              		.loc 1 539 17 is_stmt 0 view .LVU491
 1846 000a 8518     		adds	r5, r0, r2
 1847 000c ADB2     		uxth	r5, r5
 1848              		.loc 1 539 12 view .LVU492
 1849 000e 013D     		subs	r5, r5, #1
 1850 0010 ADB2     		uxth	r5, r5
 1851              	.LVL172:
 540:Drivers/LCD_FMC/src/tftLCD.c ****     theight = sy + height - 1;
 1852              		.loc 1 540 5 is_stmt 1 view .LVU493
 1853              		.loc 1 540 18 is_stmt 0 view .LVU494
 1854 0012 CC18     		adds	r4, r1, r3
 1855 0014 A4B2     		uxth	r4, r4
 1856              		.loc 1 540 13 view .LVU495
 1857 0016 013C     		subs	r4, r4, #1
 1858 0018 A4B2     		uxth	r4, r4
 1859              	.LVL173:
 541:Drivers/LCD_FMC/src/tftLCD.c **** 
 542:Drivers/LCD_FMC/src/tftLCD.c ****     if (lcddev.id == 0X1963 && lcddev.dir != 1)     //1963竖屏特殊处理
 1860              		.loc 1 542 5 is_stmt 1 view .LVU496
 1861              		.loc 1 542 15 is_stmt 0 view .LVU497
 1862 001a 544B     		ldr	r3, .L136
 1863              	.LVL174:
 1864              		.loc 1 542 15 view .LVU498
 1865 001c 9B88     		ldrh	r3, [r3, #4]
 1866              		.loc 1 542 8 view .LVU499
 1867 001e 41F66312 		movw	r2, #6499
 1868              	.LVL175:
 1869              		.loc 1 542 8 view .LVU500
 1870 0022 9342     		cmp	r3, r2
 1871 0024 27D0     		beq	.L134
 1872              	.L130:
 543:Drivers/LCD_FMC/src/tftLCD.c ****     {
 544:Drivers/LCD_FMC/src/tftLCD.c ****         sx = lcddev.width - width - sx;
 545:Drivers/LCD_FMC/src/tftLCD.c ****         height = sy + height - 1;
 546:Drivers/LCD_FMC/src/tftLCD.c ****         LCD_WR_REG(lcddev.setxcmd);
ARM GAS  C:\usertemp\ccUDQ5mr.s 			page 47


 547:Drivers/LCD_FMC/src/tftLCD.c ****         LCD_WR_DATA(sx >> 8);
 548:Drivers/LCD_FMC/src/tftLCD.c ****         LCD_WR_DATA(sx & 0XFF);
 549:Drivers/LCD_FMC/src/tftLCD.c ****         LCD_WR_DATA((sx + width - 1) >> 8);
 550:Drivers/LCD_FMC/src/tftLCD.c ****         LCD_WR_DATA((sx + width - 1) & 0XFF);
 551:Drivers/LCD_FMC/src/tftLCD.c ****         LCD_WR_REG(lcddev.setycmd);
 552:Drivers/LCD_FMC/src/tftLCD.c ****         LCD_WR_DATA(sy >> 8);
 553:Drivers/LCD_FMC/src/tftLCD.c ****         LCD_WR_DATA(sy & 0XFF);
 554:Drivers/LCD_FMC/src/tftLCD.c ****         LCD_WR_DATA(height >> 8);
 555:Drivers/LCD_FMC/src/tftLCD.c ****         LCD_WR_DATA(height & 0XFF);
 556:Drivers/LCD_FMC/src/tftLCD.c ****     }
 557:Drivers/LCD_FMC/src/tftLCD.c ****     else if (lcddev.id == 0X5510)
 1873              		.loc 1 557 10 is_stmt 1 view .LVU501
 1874              		.loc 1 557 13 is_stmt 0 view .LVU502
 1875 0026 45F21052 		movw	r2, #21776
 1876 002a 9342     		cmp	r3, r2
 1877 002c 56D0     		beq	.L135
 558:Drivers/LCD_FMC/src/tftLCD.c ****     {
 559:Drivers/LCD_FMC/src/tftLCD.c ****         LCD_WR_REG(lcddev.setxcmd);
 560:Drivers/LCD_FMC/src/tftLCD.c ****         LCD_WR_DATA(sx >> 8);
 561:Drivers/LCD_FMC/src/tftLCD.c ****         LCD_WR_REG(lcddev.setxcmd + 1);
 562:Drivers/LCD_FMC/src/tftLCD.c ****         LCD_WR_DATA(sx & 0XFF);
 563:Drivers/LCD_FMC/src/tftLCD.c ****         LCD_WR_REG(lcddev.setxcmd + 2);
 564:Drivers/LCD_FMC/src/tftLCD.c ****         LCD_WR_DATA(twidth >> 8);
 565:Drivers/LCD_FMC/src/tftLCD.c ****         LCD_WR_REG(lcddev.setxcmd + 3);
 566:Drivers/LCD_FMC/src/tftLCD.c ****         LCD_WR_DATA(twidth & 0XFF);
 567:Drivers/LCD_FMC/src/tftLCD.c ****         LCD_WR_REG(lcddev.setycmd);
 568:Drivers/LCD_FMC/src/tftLCD.c ****         LCD_WR_DATA(sy >> 8);
 569:Drivers/LCD_FMC/src/tftLCD.c ****         LCD_WR_REG(lcddev.setycmd + 1);
 570:Drivers/LCD_FMC/src/tftLCD.c ****         LCD_WR_DATA(sy & 0XFF);
 571:Drivers/LCD_FMC/src/tftLCD.c ****         LCD_WR_REG(lcddev.setycmd + 2);
 572:Drivers/LCD_FMC/src/tftLCD.c ****         LCD_WR_DATA(theight >> 8);
 573:Drivers/LCD_FMC/src/tftLCD.c ****         LCD_WR_REG(lcddev.setycmd + 3);
 574:Drivers/LCD_FMC/src/tftLCD.c ****         LCD_WR_DATA(theight & 0XFF);
 575:Drivers/LCD_FMC/src/tftLCD.c ****     }
 576:Drivers/LCD_FMC/src/tftLCD.c ****     else     //9341/5310/7789/1963横屏 等 设置窗口
 577:Drivers/LCD_FMC/src/tftLCD.c ****     {
 578:Drivers/LCD_FMC/src/tftLCD.c ****         LCD_WR_REG(lcddev.setxcmd);
 1878              		.loc 1 578 9 is_stmt 1 view .LVU503
 1879 002e DFF83C81 		ldr	r8, .L136
 1880              	.LVL176:
 1881              		.loc 1 578 9 is_stmt 0 view .LVU504
 1882 0032 B8F80A00 		ldrh	r0, [r8, #10]
 1883              	.LVL177:
 1884              		.loc 1 578 9 view .LVU505
 1885 0036 FFF7FEFF 		bl	LCD_WR_REG
 1886              	.LVL178:
 579:Drivers/LCD_FMC/src/tftLCD.c ****         LCD_WR_DATA(sx >> 8);
 1887              		.loc 1 579 9 is_stmt 1 view .LVU506
 1888 003a 380A     		lsrs	r0, r7, #8
 1889 003c FFF7FEFF 		bl	LCD_WR_DATA
 1890              	.LVL179:
 580:Drivers/LCD_FMC/src/tftLCD.c ****         LCD_WR_DATA(sx & 0XFF);
 1891              		.loc 1 580 9 view .LVU507
 1892 0040 F8B2     		uxtb	r0, r7
 1893 0042 FFF7FEFF 		bl	LCD_WR_DATA
 1894              	.LVL180:
 581:Drivers/LCD_FMC/src/tftLCD.c ****         LCD_WR_DATA(twidth >> 8);
ARM GAS  C:\usertemp\ccUDQ5mr.s 			page 48


 1895              		.loc 1 581 9 view .LVU508
 1896 0046 280A     		lsrs	r0, r5, #8
 1897 0048 FFF7FEFF 		bl	LCD_WR_DATA
 1898              	.LVL181:
 582:Drivers/LCD_FMC/src/tftLCD.c ****         LCD_WR_DATA(twidth & 0XFF);
 1899              		.loc 1 582 9 view .LVU509
 1900 004c E8B2     		uxtb	r0, r5
 1901 004e FFF7FEFF 		bl	LCD_WR_DATA
 1902              	.LVL182:
 583:Drivers/LCD_FMC/src/tftLCD.c ****         LCD_WR_REG(lcddev.setycmd);
 1903              		.loc 1 583 9 view .LVU510
 1904 0052 B8F80C00 		ldrh	r0, [r8, #12]
 1905 0056 FFF7FEFF 		bl	LCD_WR_REG
 1906              	.LVL183:
 584:Drivers/LCD_FMC/src/tftLCD.c ****         LCD_WR_DATA(sy >> 8);
 1907              		.loc 1 584 9 view .LVU511
 1908 005a 300A     		lsrs	r0, r6, #8
 1909 005c FFF7FEFF 		bl	LCD_WR_DATA
 1910              	.LVL184:
 585:Drivers/LCD_FMC/src/tftLCD.c ****         LCD_WR_DATA(sy & 0XFF);
 1911              		.loc 1 585 9 view .LVU512
 1912 0060 F0B2     		uxtb	r0, r6
 1913 0062 FFF7FEFF 		bl	LCD_WR_DATA
 1914              	.LVL185:
 586:Drivers/LCD_FMC/src/tftLCD.c ****         LCD_WR_DATA(theight >> 8);
 1915              		.loc 1 586 9 view .LVU513
 1916 0066 200A     		lsrs	r0, r4, #8
 1917 0068 FFF7FEFF 		bl	LCD_WR_DATA
 1918              	.LVL186:
 587:Drivers/LCD_FMC/src/tftLCD.c ****         LCD_WR_DATA(theight & 0XFF);
 1919              		.loc 1 587 9 view .LVU514
 1920 006c E0B2     		uxtb	r0, r4
 1921 006e FFF7FEFF 		bl	LCD_WR_DATA
 1922              	.LVL187:
 1923              	.L129:
 588:Drivers/LCD_FMC/src/tftLCD.c ****     }
 589:Drivers/LCD_FMC/src/tftLCD.c **** }
 1924              		.loc 1 589 1 is_stmt 0 view .LVU515
 1925 0072 BDE8F883 		pop	{r3, r4, r5, r6, r7, r8, r9, pc}
 1926              	.LVL188:
 1927              	.L134:
 542:Drivers/LCD_FMC/src/tftLCD.c ****     {
 1928              		.loc 1 542 38 discriminator 1 view .LVU516
 1929 0076 3D4A     		ldr	r2, .L136
 1930 0078 9279     		ldrb	r2, [r2, #6]	@ zero_extendqisi2
 542:Drivers/LCD_FMC/src/tftLCD.c ****     {
 1931              		.loc 1 542 29 discriminator 1 view .LVU517
 1932 007a 012A     		cmp	r2, #1
 1933 007c D3D0     		beq	.L130
 544:Drivers/LCD_FMC/src/tftLCD.c ****         height = sy + height - 1;
 1934              		.loc 1 544 9 is_stmt 1 view .LVU518
 544:Drivers/LCD_FMC/src/tftLCD.c ****         height = sy + height - 1;
 1935              		.loc 1 544 20 is_stmt 0 view .LVU519
 1936 007e DFF8EC90 		ldr	r9, .L136
 1937 0082 B9F80050 		ldrh	r5, [r9]
 1938              	.LVL189:
 544:Drivers/LCD_FMC/src/tftLCD.c ****         height = sy + height - 1;
ARM GAS  C:\usertemp\ccUDQ5mr.s 			page 49


 1939              		.loc 1 544 27 view .LVU520
 1940 0086 A5EB0805 		sub	r5, r5, r8
 1941 008a ADB2     		uxth	r5, r5
 544:Drivers/LCD_FMC/src/tftLCD.c ****         height = sy + height - 1;
 1942              		.loc 1 544 12 view .LVU521
 1943 008c 2D1A     		subs	r5, r5, r0
 1944 008e ADB2     		uxth	r5, r5
 1945              	.LVL190:
 545:Drivers/LCD_FMC/src/tftLCD.c ****         LCD_WR_REG(lcddev.setxcmd);
 1946              		.loc 1 545 9 is_stmt 1 view .LVU522
 546:Drivers/LCD_FMC/src/tftLCD.c ****         LCD_WR_DATA(sx >> 8);
 1947              		.loc 1 546 9 view .LVU523
 1948 0090 B9F80A00 		ldrh	r0, [r9, #10]
 1949 0094 FFF7FEFF 		bl	LCD_WR_REG
 1950              	.LVL191:
 547:Drivers/LCD_FMC/src/tftLCD.c ****         LCD_WR_DATA(sx & 0XFF);
 1951              		.loc 1 547 9 view .LVU524
 1952 0098 280A     		lsrs	r0, r5, #8
 1953 009a FFF7FEFF 		bl	LCD_WR_DATA
 1954              	.LVL192:
 548:Drivers/LCD_FMC/src/tftLCD.c ****         LCD_WR_DATA((sx + width - 1) >> 8);
 1955              		.loc 1 548 9 view .LVU525
 1956 009e E8B2     		uxtb	r0, r5
 1957 00a0 FFF7FEFF 		bl	LCD_WR_DATA
 1958              	.LVL193:
 549:Drivers/LCD_FMC/src/tftLCD.c ****         LCD_WR_DATA((sx + width - 1) & 0XFF);
 1959              		.loc 1 549 9 view .LVU526
 549:Drivers/LCD_FMC/src/tftLCD.c ****         LCD_WR_DATA((sx + width - 1) & 0XFF);
 1960              		.loc 1 549 25 is_stmt 0 view .LVU527
 1961 00a4 4544     		add	r5, r5, r8
 1962              	.LVL194:
 549:Drivers/LCD_FMC/src/tftLCD.c ****         LCD_WR_DATA((sx + width - 1) & 0XFF);
 1963              		.loc 1 549 33 view .LVU528
 1964 00a6 681E     		subs	r0, r5, #1
 549:Drivers/LCD_FMC/src/tftLCD.c ****         LCD_WR_DATA((sx + width - 1) & 0XFF);
 1965              		.loc 1 549 9 view .LVU529
 1966 00a8 C0F30F20 		ubfx	r0, r0, #8, #16
 1967 00ac FFF7FEFF 		bl	LCD_WR_DATA
 1968              	.LVL195:
 550:Drivers/LCD_FMC/src/tftLCD.c ****         LCD_WR_REG(lcddev.setycmd);
 1969              		.loc 1 550 9 is_stmt 1 view .LVU530
 550:Drivers/LCD_FMC/src/tftLCD.c ****         LCD_WR_REG(lcddev.setycmd);
 1970              		.loc 1 550 25 is_stmt 0 view .LVU531
 1971 00b0 ADB2     		uxth	r5, r5
 550:Drivers/LCD_FMC/src/tftLCD.c ****         LCD_WR_REG(lcddev.setycmd);
 1972              		.loc 1 550 33 view .LVU532
 1973 00b2 681E     		subs	r0, r5, #1
 550:Drivers/LCD_FMC/src/tftLCD.c ****         LCD_WR_REG(lcddev.setycmd);
 1974              		.loc 1 550 9 view .LVU533
 1975 00b4 C0B2     		uxtb	r0, r0
 1976 00b6 FFF7FEFF 		bl	LCD_WR_DATA
 1977              	.LVL196:
 551:Drivers/LCD_FMC/src/tftLCD.c ****         LCD_WR_DATA(sy >> 8);
 1978              		.loc 1 551 9 is_stmt 1 view .LVU534
 1979 00ba B9F80C00 		ldrh	r0, [r9, #12]
 1980 00be FFF7FEFF 		bl	LCD_WR_REG
 1981              	.LVL197:
ARM GAS  C:\usertemp\ccUDQ5mr.s 			page 50


 552:Drivers/LCD_FMC/src/tftLCD.c ****         LCD_WR_DATA(sy & 0XFF);
 1982              		.loc 1 552 9 view .LVU535
 1983 00c2 300A     		lsrs	r0, r6, #8
 1984 00c4 FFF7FEFF 		bl	LCD_WR_DATA
 1985              	.LVL198:
 553:Drivers/LCD_FMC/src/tftLCD.c ****         LCD_WR_DATA(height >> 8);
 1986              		.loc 1 553 9 view .LVU536
 1987 00c8 F0B2     		uxtb	r0, r6
 1988 00ca FFF7FEFF 		bl	LCD_WR_DATA
 1989              	.LVL199:
 554:Drivers/LCD_FMC/src/tftLCD.c ****         LCD_WR_DATA(height & 0XFF);
 1990              		.loc 1 554 9 view .LVU537
 1991 00ce 200A     		lsrs	r0, r4, #8
 1992 00d0 FFF7FEFF 		bl	LCD_WR_DATA
 1993              	.LVL200:
 555:Drivers/LCD_FMC/src/tftLCD.c ****     }
 1994              		.loc 1 555 9 view .LVU538
 1995 00d4 E0B2     		uxtb	r0, r4
 1996 00d6 FFF7FEFF 		bl	LCD_WR_DATA
 1997              	.LVL201:
 1998 00da CAE7     		b	.L129
 1999              	.LVL202:
 2000              	.L135:
 559:Drivers/LCD_FMC/src/tftLCD.c ****         LCD_WR_DATA(sx >> 8);
 2001              		.loc 1 559 9 view .LVU539
 2002 00dc DFF88C80 		ldr	r8, .L136
 2003 00e0 B8F80A00 		ldrh	r0, [r8, #10]
 2004              	.LVL203:
 559:Drivers/LCD_FMC/src/tftLCD.c ****         LCD_WR_DATA(sx >> 8);
 2005              		.loc 1 559 9 is_stmt 0 view .LVU540
 2006 00e4 FFF7FEFF 		bl	LCD_WR_REG
 2007              	.LVL204:
 560:Drivers/LCD_FMC/src/tftLCD.c ****         LCD_WR_REG(lcddev.setxcmd + 1);
 2008              		.loc 1 560 9 is_stmt 1 view .LVU541
 2009 00e8 380A     		lsrs	r0, r7, #8
 2010 00ea FFF7FEFF 		bl	LCD_WR_DATA
 2011              	.LVL205:
 561:Drivers/LCD_FMC/src/tftLCD.c ****         LCD_WR_DATA(sx & 0XFF);
 2012              		.loc 1 561 9 view .LVU542
 561:Drivers/LCD_FMC/src/tftLCD.c ****         LCD_WR_DATA(sx & 0XFF);
 2013              		.loc 1 561 26 is_stmt 0 view .LVU543
 2014 00ee B8F80A00 		ldrh	r0, [r8, #10]
 561:Drivers/LCD_FMC/src/tftLCD.c ****         LCD_WR_DATA(sx & 0XFF);
 2015              		.loc 1 561 9 view .LVU544
 2016 00f2 0130     		adds	r0, r0, #1
 2017 00f4 80B2     		uxth	r0, r0
 2018 00f6 FFF7FEFF 		bl	LCD_WR_REG
 2019              	.LVL206:
 562:Drivers/LCD_FMC/src/tftLCD.c ****         LCD_WR_REG(lcddev.setxcmd + 2);
 2020              		.loc 1 562 9 is_stmt 1 view .LVU545
 2021 00fa F8B2     		uxtb	r0, r7
 2022 00fc FFF7FEFF 		bl	LCD_WR_DATA
 2023              	.LVL207:
 563:Drivers/LCD_FMC/src/tftLCD.c ****         LCD_WR_DATA(twidth >> 8);
 2024              		.loc 1 563 9 view .LVU546
 563:Drivers/LCD_FMC/src/tftLCD.c ****         LCD_WR_DATA(twidth >> 8);
 2025              		.loc 1 563 26 is_stmt 0 view .LVU547
ARM GAS  C:\usertemp\ccUDQ5mr.s 			page 51


 2026 0100 B8F80A00 		ldrh	r0, [r8, #10]
 563:Drivers/LCD_FMC/src/tftLCD.c ****         LCD_WR_DATA(twidth >> 8);
 2027              		.loc 1 563 9 view .LVU548
 2028 0104 0230     		adds	r0, r0, #2
 2029 0106 80B2     		uxth	r0, r0
 2030 0108 FFF7FEFF 		bl	LCD_WR_REG
 2031              	.LVL208:
 564:Drivers/LCD_FMC/src/tftLCD.c ****         LCD_WR_REG(lcddev.setxcmd + 3);
 2032              		.loc 1 564 9 is_stmt 1 view .LVU549
 2033 010c 280A     		lsrs	r0, r5, #8
 2034 010e FFF7FEFF 		bl	LCD_WR_DATA
 2035              	.LVL209:
 565:Drivers/LCD_FMC/src/tftLCD.c ****         LCD_WR_DATA(twidth & 0XFF);
 2036              		.loc 1 565 9 view .LVU550
 565:Drivers/LCD_FMC/src/tftLCD.c ****         LCD_WR_DATA(twidth & 0XFF);
 2037              		.loc 1 565 26 is_stmt 0 view .LVU551
 2038 0112 B8F80A00 		ldrh	r0, [r8, #10]
 565:Drivers/LCD_FMC/src/tftLCD.c ****         LCD_WR_DATA(twidth & 0XFF);
 2039              		.loc 1 565 9 view .LVU552
 2040 0116 0330     		adds	r0, r0, #3
 2041 0118 80B2     		uxth	r0, r0
 2042 011a FFF7FEFF 		bl	LCD_WR_REG
 2043              	.LVL210:
 566:Drivers/LCD_FMC/src/tftLCD.c ****         LCD_WR_REG(lcddev.setycmd);
 2044              		.loc 1 566 9 is_stmt 1 view .LVU553
 2045 011e E8B2     		uxtb	r0, r5
 2046 0120 FFF7FEFF 		bl	LCD_WR_DATA
 2047              	.LVL211:
 567:Drivers/LCD_FMC/src/tftLCD.c ****         LCD_WR_DATA(sy >> 8);
 2048              		.loc 1 567 9 view .LVU554
 2049 0124 B8F80C00 		ldrh	r0, [r8, #12]
 2050 0128 FFF7FEFF 		bl	LCD_WR_REG
 2051              	.LVL212:
 568:Drivers/LCD_FMC/src/tftLCD.c ****         LCD_WR_REG(lcddev.setycmd + 1);
 2052              		.loc 1 568 9 view .LVU555
 2053 012c 300A     		lsrs	r0, r6, #8
 2054 012e FFF7FEFF 		bl	LCD_WR_DATA
 2055              	.LVL213:
 569:Drivers/LCD_FMC/src/tftLCD.c ****         LCD_WR_DATA(sy & 0XFF);
 2056              		.loc 1 569 9 view .LVU556
 569:Drivers/LCD_FMC/src/tftLCD.c ****         LCD_WR_DATA(sy & 0XFF);
 2057              		.loc 1 569 26 is_stmt 0 view .LVU557
 2058 0132 B8F80C00 		ldrh	r0, [r8, #12]
 569:Drivers/LCD_FMC/src/tftLCD.c ****         LCD_WR_DATA(sy & 0XFF);
 2059              		.loc 1 569 9 view .LVU558
 2060 0136 0130     		adds	r0, r0, #1
 2061 0138 80B2     		uxth	r0, r0
 2062 013a FFF7FEFF 		bl	LCD_WR_REG
 2063              	.LVL214:
 570:Drivers/LCD_FMC/src/tftLCD.c ****         LCD_WR_REG(lcddev.setycmd + 2);
 2064              		.loc 1 570 9 is_stmt 1 view .LVU559
 2065 013e F0B2     		uxtb	r0, r6
 2066 0140 FFF7FEFF 		bl	LCD_WR_DATA
 2067              	.LVL215:
 571:Drivers/LCD_FMC/src/tftLCD.c ****         LCD_WR_DATA(theight >> 8);
 2068              		.loc 1 571 9 view .LVU560
 571:Drivers/LCD_FMC/src/tftLCD.c ****         LCD_WR_DATA(theight >> 8);
ARM GAS  C:\usertemp\ccUDQ5mr.s 			page 52


 2069              		.loc 1 571 26 is_stmt 0 view .LVU561
 2070 0144 B8F80C00 		ldrh	r0, [r8, #12]
 571:Drivers/LCD_FMC/src/tftLCD.c ****         LCD_WR_DATA(theight >> 8);
 2071              		.loc 1 571 9 view .LVU562
 2072 0148 0230     		adds	r0, r0, #2
 2073 014a 80B2     		uxth	r0, r0
 2074 014c FFF7FEFF 		bl	LCD_WR_REG
 2075              	.LVL216:
 572:Drivers/LCD_FMC/src/tftLCD.c ****         LCD_WR_REG(lcddev.setycmd + 3);
 2076              		.loc 1 572 9 is_stmt 1 view .LVU563
 2077 0150 200A     		lsrs	r0, r4, #8
 2078 0152 FFF7FEFF 		bl	LCD_WR_DATA
 2079              	.LVL217:
 573:Drivers/LCD_FMC/src/tftLCD.c ****         LCD_WR_DATA(theight & 0XFF);
 2080              		.loc 1 573 9 view .LVU564
 573:Drivers/LCD_FMC/src/tftLCD.c ****         LCD_WR_DATA(theight & 0XFF);
 2081              		.loc 1 573 26 is_stmt 0 view .LVU565
 2082 0156 B8F80C00 		ldrh	r0, [r8, #12]
 573:Drivers/LCD_FMC/src/tftLCD.c ****         LCD_WR_DATA(theight & 0XFF);
 2083              		.loc 1 573 9 view .LVU566
 2084 015a 0330     		adds	r0, r0, #3
 2085 015c 80B2     		uxth	r0, r0
 2086 015e FFF7FEFF 		bl	LCD_WR_REG
 2087              	.LVL218:
 574:Drivers/LCD_FMC/src/tftLCD.c ****     }
 2088              		.loc 1 574 9 is_stmt 1 view .LVU567
 2089 0162 E0B2     		uxtb	r0, r4
 2090 0164 FFF7FEFF 		bl	LCD_WR_DATA
 2091              	.LVL219:
 2092 0168 83E7     		b	.L129
 2093              	.L137:
 2094 016a 00BF     		.align	2
 2095              	.L136:
 2096 016c 00000000 		.word	lcddev
 2097              		.cfi_endproc
 2098              	.LFE352:
 2100              		.section	.text.LCD_Clear,"ax",%progbits
 2101              		.align	1
 2102              		.global	LCD_Clear
 2103              		.syntax unified
 2104              		.thumb
 2105              		.thumb_func
 2107              	LCD_Clear:
 2108              	.LVL220:
 2109              	.LFB354:
 590:Drivers/LCD_FMC/src/tftLCD.c **** 
 591:Drivers/LCD_FMC/src/tftLCD.c **** //初始化lcd
 592:Drivers/LCD_FMC/src/tftLCD.c **** //该初始化函数可以初始化各种ILI93XX液晶,但是其他函数是基于ILI9320的!!!
 593:Drivers/LCD_FMC/src/tftLCD.c **** //在其他型号的驱动芯片上没有测试!
 594:Drivers/LCD_FMC/src/tftLCD.c **** void LCD_Init(void)
 595:Drivers/LCD_FMC/src/tftLCD.c **** {
 596:Drivers/LCD_FMC/src/tftLCD.c ****     //尝试9341 ID的读取
 597:Drivers/LCD_FMC/src/tftLCD.c ****    LCD_WR_REG(0XD3);
 598:Drivers/LCD_FMC/src/tftLCD.c ****     lcddev.id = LCD_RD_DATA();	//dummy read
 599:Drivers/LCD_FMC/src/tftLCD.c ****     lcddev.id = LCD_RD_DATA();	//读到0X00
 600:Drivers/LCD_FMC/src/tftLCD.c ****     lcddev.id = LCD_RD_DATA();   	//读取93
 601:Drivers/LCD_FMC/src/tftLCD.c ****     lcddev.id <<= 8;
ARM GAS  C:\usertemp\ccUDQ5mr.s 			page 53


 602:Drivers/LCD_FMC/src/tftLCD.c ****     lcddev.id |= LCD_RD_DATA();  	//读取41
 603:Drivers/LCD_FMC/src/tftLCD.c **** 
 604:Drivers/LCD_FMC/src/tftLCD.c ****     if (lcddev.id != 0X9341)		//非9341,尝试看看是不是NT35310
 605:Drivers/LCD_FMC/src/tftLCD.c ****     {
 606:Drivers/LCD_FMC/src/tftLCD.c ****         LCD_WR_REG(0X04);
 607:Drivers/LCD_FMC/src/tftLCD.c ****         lcddev.id = LCD_RD_DATA();      //dummy read
 608:Drivers/LCD_FMC/src/tftLCD.c ****         lcddev.id = LCD_RD_DATA();      //读到0X85
 609:Drivers/LCD_FMC/src/tftLCD.c ****         lcddev.id = LCD_RD_DATA();      //读取0X85
 610:Drivers/LCD_FMC/src/tftLCD.c ****         lcddev.id <<= 8;
 611:Drivers/LCD_FMC/src/tftLCD.c ****         lcddev.id |= LCD_RD_DATA();     //读取0X52
 612:Drivers/LCD_FMC/src/tftLCD.c **** 
 613:Drivers/LCD_FMC/src/tftLCD.c ****         if (lcddev.id == 0X8552)        //将8552的ID转换成7789
 614:Drivers/LCD_FMC/src/tftLCD.c ****         {
 615:Drivers/LCD_FMC/src/tftLCD.c ****             lcddev.id = 0x7789;
 616:Drivers/LCD_FMC/src/tftLCD.c ****         }
 617:Drivers/LCD_FMC/src/tftLCD.c **** 
 618:Drivers/LCD_FMC/src/tftLCD.c ****         if (lcddev.id != 0x7789)        //也不是ST7789, 尝试是不是 NT35310
 619:Drivers/LCD_FMC/src/tftLCD.c ****         {
 620:Drivers/LCD_FMC/src/tftLCD.c ****             LCD_WR_REG(0XD4);
 621:Drivers/LCD_FMC/src/tftLCD.c ****             lcddev.id = LCD_RD_DATA(); //dummy read
 622:Drivers/LCD_FMC/src/tftLCD.c ****             lcddev.id = LCD_RD_DATA(); //读回0X01
 623:Drivers/LCD_FMC/src/tftLCD.c ****             lcddev.id = LCD_RD_DATA(); //读回0X53
 624:Drivers/LCD_FMC/src/tftLCD.c ****             lcddev.id <<= 8;
 625:Drivers/LCD_FMC/src/tftLCD.c ****             lcddev.id |= LCD_RD_DATA();	//这里读回0X10
 626:Drivers/LCD_FMC/src/tftLCD.c **** 
 627:Drivers/LCD_FMC/src/tftLCD.c ****             if (lcddev.id != 0X5310)    //也不是NT35310,尝试看看是不是NT35510
 628:Drivers/LCD_FMC/src/tftLCD.c ****             {
 629:Drivers/LCD_FMC/src/tftLCD.c ****                 LCD_WR_REG(0XD3);
 630:Drivers/LCD_FMC/src/tftLCD.c ****                 lcddev.id = LCD_RD_DATA();  /* dummy read */
 631:Drivers/LCD_FMC/src/tftLCD.c ****                 lcddev.id = LCD_RD_DATA();  /* 读到0X00 */
 632:Drivers/LCD_FMC/src/tftLCD.c ****                 lcddev.id = LCD_RD_DATA();  /* 读取0X77 */
 633:Drivers/LCD_FMC/src/tftLCD.c ****                 lcddev.id <<= 8;
 634:Drivers/LCD_FMC/src/tftLCD.c ****                 lcddev.id |= LCD_RD_DATA(); /* 读取0X96 */
 635:Drivers/LCD_FMC/src/tftLCD.c ****                 
 636:Drivers/LCD_FMC/src/tftLCD.c ****                 if (lcddev.id != 0x7796)    /* 也不是ST7796,尝试看看是不是NT35510 */
 637:Drivers/LCD_FMC/src/tftLCD.c ****                 {
 638:Drivers/LCD_FMC/src/tftLCD.c ****                     //发送秘钥（厂家提供,照搬即可）
 639:Drivers/LCD_FMC/src/tftLCD.c ****                     LCD_WriteReg(0xF000, 0x0055);
 640:Drivers/LCD_FMC/src/tftLCD.c ****                     LCD_WriteReg(0xF001, 0x00AA);
 641:Drivers/LCD_FMC/src/tftLCD.c ****                     LCD_WriteReg(0xF002, 0x0052);
 642:Drivers/LCD_FMC/src/tftLCD.c ****                     LCD_WriteReg(0xF003, 0x0008);
 643:Drivers/LCD_FMC/src/tftLCD.c ****                     LCD_WriteReg(0xF004, 0x0001);
 644:Drivers/LCD_FMC/src/tftLCD.c **** 
 645:Drivers/LCD_FMC/src/tftLCD.c ****                     LCD_WR_REG(0xC500);             //读取ID高8位
 646:Drivers/LCD_FMC/src/tftLCD.c ****                     lcddev.id = LCD_RD_DATA();      //读回0X55
 647:Drivers/LCD_FMC/src/tftLCD.c ****                     lcddev.id <<= 8;
 648:Drivers/LCD_FMC/src/tftLCD.c **** 
 649:Drivers/LCD_FMC/src/tftLCD.c ****                     LCD_WR_REG(0xC501);             //读取ID低8位
 650:Drivers/LCD_FMC/src/tftLCD.c ****                     lcddev.id |= LCD_RD_DATA();     //读回0X10
 651:Drivers/LCD_FMC/src/tftLCD.c ****                     HAL_Delay(5);
 652:Drivers/LCD_FMC/src/tftLCD.c ****                     
 653:Drivers/LCD_FMC/src/tftLCD.c ****                     if (lcddev.id != 0X5510)        //也不是NT5510,尝试看看是不是SSD1963
 654:Drivers/LCD_FMC/src/tftLCD.c ****                     {
 655:Drivers/LCD_FMC/src/tftLCD.c ****                         LCD_WR_REG(0XD3);
 656:Drivers/LCD_FMC/src/tftLCD.c ****                         lcddev.id = LCD_RD_DATA();  /* dummy read */
 657:Drivers/LCD_FMC/src/tftLCD.c ****                         lcddev.id = LCD_RD_DATA();  /* 读回0X00 */
 658:Drivers/LCD_FMC/src/tftLCD.c ****                         lcddev.id = LCD_RD_DATA();  /* 读回0X98 */
ARM GAS  C:\usertemp\ccUDQ5mr.s 			page 54


 659:Drivers/LCD_FMC/src/tftLCD.c ****                         lcddev.id <<= 8;
 660:Drivers/LCD_FMC/src/tftLCD.c ****                         lcddev.id |= LCD_RD_DATA(); /* 读回0X06 */
 661:Drivers/LCD_FMC/src/tftLCD.c ****                         
 662:Drivers/LCD_FMC/src/tftLCD.c ****                         if (lcddev.id != 0x9806)    /* 也不是ILI9806,尝试看看是不是SSD196
 663:Drivers/LCD_FMC/src/tftLCD.c ****                         {
 664:Drivers/LCD_FMC/src/tftLCD.c ****                             LCD_WR_REG(0XA1);
 665:Drivers/LCD_FMC/src/tftLCD.c ****                             lcddev.id = LCD_RD_DATA();
 666:Drivers/LCD_FMC/src/tftLCD.c ****                             lcddev.id = LCD_RD_DATA();  //读回0X57
 667:Drivers/LCD_FMC/src/tftLCD.c ****                             lcddev.id <<= 8;
 668:Drivers/LCD_FMC/src/tftLCD.c ****                             lcddev.id |= LCD_RD_DATA(); //读回0X61
 669:Drivers/LCD_FMC/src/tftLCD.c **** 
 670:Drivers/LCD_FMC/src/tftLCD.c ****                             if (lcddev.id == 0X5761)lcddev.id = 0X1963; //SSD1963读回的ID是5761
 671:Drivers/LCD_FMC/src/tftLCD.c ****                         }
 672:Drivers/LCD_FMC/src/tftLCD.c ****                     }
 673:Drivers/LCD_FMC/src/tftLCD.c ****                 }
 674:Drivers/LCD_FMC/src/tftLCD.c ****             }
 675:Drivers/LCD_FMC/src/tftLCD.c ****         }
 676:Drivers/LCD_FMC/src/tftLCD.c ****     }
 677:Drivers/LCD_FMC/src/tftLCD.c ****     /* 特别注意, 如果在main函数里面屏蔽串口1初始化, 则会卡死在printf
 678:Drivers/LCD_FMC/src/tftLCD.c ****      * 里面(卡死在f_putc函数), 所以, 必须初始化串口1, 或者屏蔽掉下面
 679:Drivers/LCD_FMC/src/tftLCD.c ****      * 这行 printf 语句 !!!!!!!
 680:Drivers/LCD_FMC/src/tftLCD.c ****      */
 681:Drivers/LCD_FMC/src/tftLCD.c **** 
 682:Drivers/LCD_FMC/src/tftLCD.c **** //    printf("LCD ID:%x\r\n",lcddev.id); //打印LCD ID
 683:Drivers/LCD_FMC/src/tftLCD.c ****     if(lcddev.id==0X9341)	//9341初始化
 684:Drivers/LCD_FMC/src/tftLCD.c ****     {
 685:Drivers/LCD_FMC/src/tftLCD.c ****         LCD_WR_REG(0xCF);
 686:Drivers/LCD_FMC/src/tftLCD.c ****         LCD_WR_DATA(0x00);
 687:Drivers/LCD_FMC/src/tftLCD.c ****         LCD_WR_DATA(0xC1);
 688:Drivers/LCD_FMC/src/tftLCD.c ****         LCD_WR_DATA(0X30);
 689:Drivers/LCD_FMC/src/tftLCD.c ****         LCD_WR_REG(0xED);
 690:Drivers/LCD_FMC/src/tftLCD.c ****         LCD_WR_DATA(0x64);
 691:Drivers/LCD_FMC/src/tftLCD.c ****         LCD_WR_DATA(0x03);
 692:Drivers/LCD_FMC/src/tftLCD.c ****         LCD_WR_DATA(0X12);
 693:Drivers/LCD_FMC/src/tftLCD.c ****         LCD_WR_DATA(0X81);
 694:Drivers/LCD_FMC/src/tftLCD.c ****         LCD_WR_REG(0xE8);
 695:Drivers/LCD_FMC/src/tftLCD.c ****         LCD_WR_DATA(0x85);
 696:Drivers/LCD_FMC/src/tftLCD.c ****         LCD_WR_DATA(0x10);
 697:Drivers/LCD_FMC/src/tftLCD.c ****         LCD_WR_DATA(0x7A);
 698:Drivers/LCD_FMC/src/tftLCD.c ****         LCD_WR_REG(0xCB);
 699:Drivers/LCD_FMC/src/tftLCD.c ****         LCD_WR_DATA(0x39);
 700:Drivers/LCD_FMC/src/tftLCD.c ****         LCD_WR_DATA(0x2C);
 701:Drivers/LCD_FMC/src/tftLCD.c ****         LCD_WR_DATA(0x00);
 702:Drivers/LCD_FMC/src/tftLCD.c ****         LCD_WR_DATA(0x34);
 703:Drivers/LCD_FMC/src/tftLCD.c ****         LCD_WR_DATA(0x02);
 704:Drivers/LCD_FMC/src/tftLCD.c ****         LCD_WR_REG(0xF7);
 705:Drivers/LCD_FMC/src/tftLCD.c ****         LCD_WR_DATA(0x20);
 706:Drivers/LCD_FMC/src/tftLCD.c ****         LCD_WR_REG(0xEA);
 707:Drivers/LCD_FMC/src/tftLCD.c ****         LCD_WR_DATA(0x00);
 708:Drivers/LCD_FMC/src/tftLCD.c ****         LCD_WR_DATA(0x00);
 709:Drivers/LCD_FMC/src/tftLCD.c ****         LCD_WR_REG(0xC0);    //Power control
 710:Drivers/LCD_FMC/src/tftLCD.c ****         LCD_WR_DATA(0x1B);   //VRH[5:0]
 711:Drivers/LCD_FMC/src/tftLCD.c ****         LCD_WR_REG(0xC1);    //Power control
 712:Drivers/LCD_FMC/src/tftLCD.c ****         LCD_WR_DATA(0x01);   //SAP[2:0];BT[3:0]
 713:Drivers/LCD_FMC/src/tftLCD.c ****         LCD_WR_REG(0xC5);    //VCM control
 714:Drivers/LCD_FMC/src/tftLCD.c ****         LCD_WR_DATA(0x30); 	 //3F
 715:Drivers/LCD_FMC/src/tftLCD.c ****         LCD_WR_DATA(0x30); 	 //3C
ARM GAS  C:\usertemp\ccUDQ5mr.s 			page 55


 716:Drivers/LCD_FMC/src/tftLCD.c ****         LCD_WR_REG(0xC7);    //VCM control2
 717:Drivers/LCD_FMC/src/tftLCD.c ****         LCD_WR_DATA(0XB7);
 718:Drivers/LCD_FMC/src/tftLCD.c ****         LCD_WR_REG(0x36);    // Memory Access Control
 719:Drivers/LCD_FMC/src/tftLCD.c ****         LCD_WR_DATA(0x48);
 720:Drivers/LCD_FMC/src/tftLCD.c ****         LCD_WR_REG(0x3A);
 721:Drivers/LCD_FMC/src/tftLCD.c ****         LCD_WR_DATA(0x55);
 722:Drivers/LCD_FMC/src/tftLCD.c ****         LCD_WR_REG(0xB1);
 723:Drivers/LCD_FMC/src/tftLCD.c ****         LCD_WR_DATA(0x00);
 724:Drivers/LCD_FMC/src/tftLCD.c ****         LCD_WR_DATA(0x1A);
 725:Drivers/LCD_FMC/src/tftLCD.c ****         LCD_WR_REG(0xB6);    // Display Function Control
 726:Drivers/LCD_FMC/src/tftLCD.c ****         LCD_WR_DATA(0x0A);
 727:Drivers/LCD_FMC/src/tftLCD.c ****         LCD_WR_DATA(0xA2);
 728:Drivers/LCD_FMC/src/tftLCD.c ****         LCD_WR_REG(0xF2);    // 3Gamma Function Disable
 729:Drivers/LCD_FMC/src/tftLCD.c ****         LCD_WR_DATA(0x00);
 730:Drivers/LCD_FMC/src/tftLCD.c ****         LCD_WR_REG(0x26);    //Gamma curve selected
 731:Drivers/LCD_FMC/src/tftLCD.c ****         LCD_WR_DATA(0x01);
 732:Drivers/LCD_FMC/src/tftLCD.c ****         LCD_WR_REG(0xE0);    //Set Gamma
 733:Drivers/LCD_FMC/src/tftLCD.c ****         LCD_WR_DATA(0x0F);
 734:Drivers/LCD_FMC/src/tftLCD.c ****         LCD_WR_DATA(0x2A);
 735:Drivers/LCD_FMC/src/tftLCD.c ****         LCD_WR_DATA(0x28);
 736:Drivers/LCD_FMC/src/tftLCD.c ****         LCD_WR_DATA(0x08);
 737:Drivers/LCD_FMC/src/tftLCD.c ****         LCD_WR_DATA(0x0E);
 738:Drivers/LCD_FMC/src/tftLCD.c ****         LCD_WR_DATA(0x08);
 739:Drivers/LCD_FMC/src/tftLCD.c ****         LCD_WR_DATA(0x54);
 740:Drivers/LCD_FMC/src/tftLCD.c ****         LCD_WR_DATA(0XA9);
 741:Drivers/LCD_FMC/src/tftLCD.c ****         LCD_WR_DATA(0x43);
 742:Drivers/LCD_FMC/src/tftLCD.c ****         LCD_WR_DATA(0x0A);
 743:Drivers/LCD_FMC/src/tftLCD.c ****         LCD_WR_DATA(0x0F);
 744:Drivers/LCD_FMC/src/tftLCD.c ****         LCD_WR_DATA(0x00);
 745:Drivers/LCD_FMC/src/tftLCD.c ****         LCD_WR_DATA(0x00);
 746:Drivers/LCD_FMC/src/tftLCD.c ****         LCD_WR_DATA(0x00);
 747:Drivers/LCD_FMC/src/tftLCD.c ****         LCD_WR_DATA(0x00);
 748:Drivers/LCD_FMC/src/tftLCD.c ****         LCD_WR_REG(0XE1);    //Set Gamma
 749:Drivers/LCD_FMC/src/tftLCD.c ****         LCD_WR_DATA(0x00);
 750:Drivers/LCD_FMC/src/tftLCD.c ****         LCD_WR_DATA(0x15);
 751:Drivers/LCD_FMC/src/tftLCD.c ****         LCD_WR_DATA(0x17);
 752:Drivers/LCD_FMC/src/tftLCD.c ****         LCD_WR_DATA(0x07);
 753:Drivers/LCD_FMC/src/tftLCD.c ****         LCD_WR_DATA(0x11);
 754:Drivers/LCD_FMC/src/tftLCD.c ****         LCD_WR_DATA(0x06);
 755:Drivers/LCD_FMC/src/tftLCD.c ****         LCD_WR_DATA(0x2B);
 756:Drivers/LCD_FMC/src/tftLCD.c ****         LCD_WR_DATA(0x56);
 757:Drivers/LCD_FMC/src/tftLCD.c ****         LCD_WR_DATA(0x3C);
 758:Drivers/LCD_FMC/src/tftLCD.c ****         LCD_WR_DATA(0x05);
 759:Drivers/LCD_FMC/src/tftLCD.c ****         LCD_WR_DATA(0x10);
 760:Drivers/LCD_FMC/src/tftLCD.c ****         LCD_WR_DATA(0x0F);
 761:Drivers/LCD_FMC/src/tftLCD.c ****         LCD_WR_DATA(0x3F);
 762:Drivers/LCD_FMC/src/tftLCD.c ****         LCD_WR_DATA(0x3F);
 763:Drivers/LCD_FMC/src/tftLCD.c ****         LCD_WR_DATA(0x0F);
 764:Drivers/LCD_FMC/src/tftLCD.c ****         LCD_WR_REG(0x2B);
 765:Drivers/LCD_FMC/src/tftLCD.c ****         LCD_WR_DATA(0x00);
 766:Drivers/LCD_FMC/src/tftLCD.c ****         LCD_WR_DATA(0x00);
 767:Drivers/LCD_FMC/src/tftLCD.c ****         LCD_WR_DATA(0x01);
 768:Drivers/LCD_FMC/src/tftLCD.c ****         LCD_WR_DATA(0x3f);
 769:Drivers/LCD_FMC/src/tftLCD.c ****         LCD_WR_REG(0x2A);
 770:Drivers/LCD_FMC/src/tftLCD.c ****         LCD_WR_DATA(0x00);
 771:Drivers/LCD_FMC/src/tftLCD.c ****         LCD_WR_DATA(0x00);
 772:Drivers/LCD_FMC/src/tftLCD.c ****         LCD_WR_DATA(0x00);
ARM GAS  C:\usertemp\ccUDQ5mr.s 			page 56


 773:Drivers/LCD_FMC/src/tftLCD.c ****         LCD_WR_DATA(0xef);
 774:Drivers/LCD_FMC/src/tftLCD.c ****         LCD_WR_REG(0x11); //Exit Sleep
 775:Drivers/LCD_FMC/src/tftLCD.c ****         HAL_Delay(120);
 776:Drivers/LCD_FMC/src/tftLCD.c ****         LCD_WR_REG(0x29); //display on
 777:Drivers/LCD_FMC/src/tftLCD.c ****     }
 778:Drivers/LCD_FMC/src/tftLCD.c ****     else if(lcddev.id==0x7789)      //7789初始化
 779:Drivers/LCD_FMC/src/tftLCD.c ****     {
 780:Drivers/LCD_FMC/src/tftLCD.c ****         LCD_WR_REG(0x11);
 781:Drivers/LCD_FMC/src/tftLCD.c **** 
 782:Drivers/LCD_FMC/src/tftLCD.c ****         HAL_Delay(120);
 783:Drivers/LCD_FMC/src/tftLCD.c **** 
 784:Drivers/LCD_FMC/src/tftLCD.c ****         LCD_WR_REG(0x36);
 785:Drivers/LCD_FMC/src/tftLCD.c ****         LCD_WR_DATA(0x00);
 786:Drivers/LCD_FMC/src/tftLCD.c **** 
 787:Drivers/LCD_FMC/src/tftLCD.c **** 
 788:Drivers/LCD_FMC/src/tftLCD.c ****         LCD_WR_REG(0x3A);
 789:Drivers/LCD_FMC/src/tftLCD.c ****         LCD_WR_DATA(0X05);
 790:Drivers/LCD_FMC/src/tftLCD.c **** 
 791:Drivers/LCD_FMC/src/tftLCD.c ****         LCD_WR_REG(0xB2);
 792:Drivers/LCD_FMC/src/tftLCD.c ****         LCD_WR_DATA(0x0C);
 793:Drivers/LCD_FMC/src/tftLCD.c ****         LCD_WR_DATA(0x0C);
 794:Drivers/LCD_FMC/src/tftLCD.c ****         LCD_WR_DATA(0x00);
 795:Drivers/LCD_FMC/src/tftLCD.c ****         LCD_WR_DATA(0x33);
 796:Drivers/LCD_FMC/src/tftLCD.c ****         LCD_WR_DATA(0x33);
 797:Drivers/LCD_FMC/src/tftLCD.c **** 
 798:Drivers/LCD_FMC/src/tftLCD.c ****         LCD_WR_REG(0xB7);
 799:Drivers/LCD_FMC/src/tftLCD.c ****         LCD_WR_DATA(0x35);
 800:Drivers/LCD_FMC/src/tftLCD.c **** 
 801:Drivers/LCD_FMC/src/tftLCD.c ****         LCD_WR_REG(0xBB);       //vcom
 802:Drivers/LCD_FMC/src/tftLCD.c ****         LCD_WR_DATA(0x32);      //30
 803:Drivers/LCD_FMC/src/tftLCD.c **** 
 804:Drivers/LCD_FMC/src/tftLCD.c ****         LCD_WR_REG(0xC0);
 805:Drivers/LCD_FMC/src/tftLCD.c ****         LCD_WR_DATA(0x0C);
 806:Drivers/LCD_FMC/src/tftLCD.c **** 
 807:Drivers/LCD_FMC/src/tftLCD.c ****         LCD_WR_REG(0xC2);
 808:Drivers/LCD_FMC/src/tftLCD.c ****         LCD_WR_DATA(0x01);
 809:Drivers/LCD_FMC/src/tftLCD.c **** 
 810:Drivers/LCD_FMC/src/tftLCD.c ****         LCD_WR_REG(0xC3);       //vrh
 811:Drivers/LCD_FMC/src/tftLCD.c ****         LCD_WR_DATA(0x10);      //17 0D
 812:Drivers/LCD_FMC/src/tftLCD.c **** 
 813:Drivers/LCD_FMC/src/tftLCD.c ****         LCD_WR_REG(0xC4);       //vdv
 814:Drivers/LCD_FMC/src/tftLCD.c ****         LCD_WR_DATA(0x20);      //20
 815:Drivers/LCD_FMC/src/tftLCD.c **** 
 816:Drivers/LCD_FMC/src/tftLCD.c ****         LCD_WR_REG(0xC6);
 817:Drivers/LCD_FMC/src/tftLCD.c ****         LCD_WR_DATA(0x0f);
 818:Drivers/LCD_FMC/src/tftLCD.c **** 
 819:Drivers/LCD_FMC/src/tftLCD.c ****         LCD_WR_REG(0xD0);
 820:Drivers/LCD_FMC/src/tftLCD.c ****         LCD_WR_DATA(0xA4);
 821:Drivers/LCD_FMC/src/tftLCD.c ****         LCD_WR_DATA(0xA1);
 822:Drivers/LCD_FMC/src/tftLCD.c **** 
 823:Drivers/LCD_FMC/src/tftLCD.c ****         LCD_WR_REG(0xE0);       //Set Gamma
 824:Drivers/LCD_FMC/src/tftLCD.c ****         LCD_WR_DATA(0xd0);
 825:Drivers/LCD_FMC/src/tftLCD.c ****         LCD_WR_DATA(0x00);
 826:Drivers/LCD_FMC/src/tftLCD.c ****         LCD_WR_DATA(0x02);
 827:Drivers/LCD_FMC/src/tftLCD.c ****         LCD_WR_DATA(0x07);
 828:Drivers/LCD_FMC/src/tftLCD.c ****         LCD_WR_DATA(0x0a);
 829:Drivers/LCD_FMC/src/tftLCD.c ****         LCD_WR_DATA(0x28);
ARM GAS  C:\usertemp\ccUDQ5mr.s 			page 57


 830:Drivers/LCD_FMC/src/tftLCD.c ****         LCD_WR_DATA(0x32);
 831:Drivers/LCD_FMC/src/tftLCD.c ****         LCD_WR_DATA(0X44);
 832:Drivers/LCD_FMC/src/tftLCD.c ****         LCD_WR_DATA(0x42);
 833:Drivers/LCD_FMC/src/tftLCD.c ****         LCD_WR_DATA(0x06);
 834:Drivers/LCD_FMC/src/tftLCD.c ****         LCD_WR_DATA(0x0e);
 835:Drivers/LCD_FMC/src/tftLCD.c ****         LCD_WR_DATA(0x12);
 836:Drivers/LCD_FMC/src/tftLCD.c ****         LCD_WR_DATA(0x14);
 837:Drivers/LCD_FMC/src/tftLCD.c ****         LCD_WR_DATA(0x17);
 838:Drivers/LCD_FMC/src/tftLCD.c **** 
 839:Drivers/LCD_FMC/src/tftLCD.c ****         LCD_WR_REG(0XE1);       //Set Gamma
 840:Drivers/LCD_FMC/src/tftLCD.c ****         LCD_WR_DATA(0xd0);
 841:Drivers/LCD_FMC/src/tftLCD.c ****         LCD_WR_DATA(0x00);
 842:Drivers/LCD_FMC/src/tftLCD.c ****         LCD_WR_DATA(0x02);
 843:Drivers/LCD_FMC/src/tftLCD.c ****         LCD_WR_DATA(0x07);
 844:Drivers/LCD_FMC/src/tftLCD.c ****         LCD_WR_DATA(0x0a);
 845:Drivers/LCD_FMC/src/tftLCD.c ****         LCD_WR_DATA(0x28);
 846:Drivers/LCD_FMC/src/tftLCD.c ****         LCD_WR_DATA(0x31);
 847:Drivers/LCD_FMC/src/tftLCD.c ****         LCD_WR_DATA(0x54);
 848:Drivers/LCD_FMC/src/tftLCD.c ****         LCD_WR_DATA(0x47);
 849:Drivers/LCD_FMC/src/tftLCD.c ****         LCD_WR_DATA(0x0e);
 850:Drivers/LCD_FMC/src/tftLCD.c ****         LCD_WR_DATA(0x1c);
 851:Drivers/LCD_FMC/src/tftLCD.c ****         LCD_WR_DATA(0x17);
 852:Drivers/LCD_FMC/src/tftLCD.c ****         LCD_WR_DATA(0x1b);
 853:Drivers/LCD_FMC/src/tftLCD.c ****         LCD_WR_DATA(0x1e);
 854:Drivers/LCD_FMC/src/tftLCD.c **** 
 855:Drivers/LCD_FMC/src/tftLCD.c ****         LCD_WR_REG(0x2A);
 856:Drivers/LCD_FMC/src/tftLCD.c ****         LCD_WR_DATA(0x00);
 857:Drivers/LCD_FMC/src/tftLCD.c ****         LCD_WR_DATA(0x00);
 858:Drivers/LCD_FMC/src/tftLCD.c ****         LCD_WR_DATA(0x00);
 859:Drivers/LCD_FMC/src/tftLCD.c ****         LCD_WR_DATA(0xef);
 860:Drivers/LCD_FMC/src/tftLCD.c **** 
 861:Drivers/LCD_FMC/src/tftLCD.c ****         LCD_WR_REG(0x2B);
 862:Drivers/LCD_FMC/src/tftLCD.c ****         LCD_WR_DATA(0x00);
 863:Drivers/LCD_FMC/src/tftLCD.c ****         LCD_WR_DATA(0x00);
 864:Drivers/LCD_FMC/src/tftLCD.c ****         LCD_WR_DATA(0x01);
 865:Drivers/LCD_FMC/src/tftLCD.c ****         LCD_WR_DATA(0x3f);
 866:Drivers/LCD_FMC/src/tftLCD.c **** 
 867:Drivers/LCD_FMC/src/tftLCD.c ****         LCD_WR_REG(0x29);       //display on
 868:Drivers/LCD_FMC/src/tftLCD.c ****     }
 869:Drivers/LCD_FMC/src/tftLCD.c ****     else if(lcddev.id==0x5310)
 870:Drivers/LCD_FMC/src/tftLCD.c ****     {
 871:Drivers/LCD_FMC/src/tftLCD.c ****         LCD_WR_REG(0xED);
 872:Drivers/LCD_FMC/src/tftLCD.c ****         LCD_WR_DATA(0x01);
 873:Drivers/LCD_FMC/src/tftLCD.c ****         LCD_WR_DATA(0xFE);
 874:Drivers/LCD_FMC/src/tftLCD.c **** 
 875:Drivers/LCD_FMC/src/tftLCD.c ****         LCD_WR_REG(0xEE);
 876:Drivers/LCD_FMC/src/tftLCD.c ****         LCD_WR_DATA(0xDE);
 877:Drivers/LCD_FMC/src/tftLCD.c ****         LCD_WR_DATA(0x21);
 878:Drivers/LCD_FMC/src/tftLCD.c **** 
 879:Drivers/LCD_FMC/src/tftLCD.c ****         LCD_WR_REG(0xF1);
 880:Drivers/LCD_FMC/src/tftLCD.c ****         LCD_WR_DATA(0x01);
 881:Drivers/LCD_FMC/src/tftLCD.c ****         LCD_WR_REG(0xDF);
 882:Drivers/LCD_FMC/src/tftLCD.c ****         LCD_WR_DATA(0x10);
 883:Drivers/LCD_FMC/src/tftLCD.c **** 
 884:Drivers/LCD_FMC/src/tftLCD.c ****         //VCOMvoltage//
 885:Drivers/LCD_FMC/src/tftLCD.c ****         LCD_WR_REG(0xC4);
 886:Drivers/LCD_FMC/src/tftLCD.c ****         LCD_WR_DATA(0x8F);	  //5f
ARM GAS  C:\usertemp\ccUDQ5mr.s 			page 58


 887:Drivers/LCD_FMC/src/tftLCD.c **** 
 888:Drivers/LCD_FMC/src/tftLCD.c ****         LCD_WR_REG(0xC6);
 889:Drivers/LCD_FMC/src/tftLCD.c ****         LCD_WR_DATA(0x00);
 890:Drivers/LCD_FMC/src/tftLCD.c ****         LCD_WR_DATA(0xE2);
 891:Drivers/LCD_FMC/src/tftLCD.c ****         LCD_WR_DATA(0xE2);
 892:Drivers/LCD_FMC/src/tftLCD.c ****         LCD_WR_DATA(0xE2);
 893:Drivers/LCD_FMC/src/tftLCD.c ****         LCD_WR_REG(0xBF);
 894:Drivers/LCD_FMC/src/tftLCD.c ****         LCD_WR_DATA(0xAA);
 895:Drivers/LCD_FMC/src/tftLCD.c **** 
 896:Drivers/LCD_FMC/src/tftLCD.c ****         LCD_WR_REG(0xB0);
 897:Drivers/LCD_FMC/src/tftLCD.c ****         LCD_WR_DATA(0x0D);
 898:Drivers/LCD_FMC/src/tftLCD.c ****         LCD_WR_DATA(0x00);
 899:Drivers/LCD_FMC/src/tftLCD.c ****         LCD_WR_DATA(0x0D);
 900:Drivers/LCD_FMC/src/tftLCD.c ****         LCD_WR_DATA(0x00);
 901:Drivers/LCD_FMC/src/tftLCD.c ****         LCD_WR_DATA(0x11);
 902:Drivers/LCD_FMC/src/tftLCD.c ****         LCD_WR_DATA(0x00);
 903:Drivers/LCD_FMC/src/tftLCD.c ****         LCD_WR_DATA(0x19);
 904:Drivers/LCD_FMC/src/tftLCD.c ****         LCD_WR_DATA(0x00);
 905:Drivers/LCD_FMC/src/tftLCD.c ****         LCD_WR_DATA(0x21);
 906:Drivers/LCD_FMC/src/tftLCD.c ****         LCD_WR_DATA(0x00);
 907:Drivers/LCD_FMC/src/tftLCD.c ****         LCD_WR_DATA(0x2D);
 908:Drivers/LCD_FMC/src/tftLCD.c ****         LCD_WR_DATA(0x00);
 909:Drivers/LCD_FMC/src/tftLCD.c ****         LCD_WR_DATA(0x3D);
 910:Drivers/LCD_FMC/src/tftLCD.c ****         LCD_WR_DATA(0x00);
 911:Drivers/LCD_FMC/src/tftLCD.c ****         LCD_WR_DATA(0x5D);
 912:Drivers/LCD_FMC/src/tftLCD.c ****         LCD_WR_DATA(0x00);
 913:Drivers/LCD_FMC/src/tftLCD.c ****         LCD_WR_DATA(0x5D);
 914:Drivers/LCD_FMC/src/tftLCD.c ****         LCD_WR_DATA(0x00);
 915:Drivers/LCD_FMC/src/tftLCD.c **** 
 916:Drivers/LCD_FMC/src/tftLCD.c ****         LCD_WR_REG(0xB1);
 917:Drivers/LCD_FMC/src/tftLCD.c ****         LCD_WR_DATA(0x80);
 918:Drivers/LCD_FMC/src/tftLCD.c ****         LCD_WR_DATA(0x00);
 919:Drivers/LCD_FMC/src/tftLCD.c ****         LCD_WR_DATA(0x8B);
 920:Drivers/LCD_FMC/src/tftLCD.c ****         LCD_WR_DATA(0x00);
 921:Drivers/LCD_FMC/src/tftLCD.c ****         LCD_WR_DATA(0x96);
 922:Drivers/LCD_FMC/src/tftLCD.c ****         LCD_WR_DATA(0x00);
 923:Drivers/LCD_FMC/src/tftLCD.c **** 
 924:Drivers/LCD_FMC/src/tftLCD.c ****         LCD_WR_REG(0xB2);
 925:Drivers/LCD_FMC/src/tftLCD.c ****         LCD_WR_DATA(0x00);
 926:Drivers/LCD_FMC/src/tftLCD.c ****         LCD_WR_DATA(0x00);
 927:Drivers/LCD_FMC/src/tftLCD.c ****         LCD_WR_DATA(0x02);
 928:Drivers/LCD_FMC/src/tftLCD.c ****         LCD_WR_DATA(0x00);
 929:Drivers/LCD_FMC/src/tftLCD.c ****         LCD_WR_DATA(0x03);
 930:Drivers/LCD_FMC/src/tftLCD.c ****         LCD_WR_DATA(0x00);
 931:Drivers/LCD_FMC/src/tftLCD.c **** 
 932:Drivers/LCD_FMC/src/tftLCD.c ****         LCD_WR_REG(0xB3);
 933:Drivers/LCD_FMC/src/tftLCD.c ****         LCD_WR_DATA(0x00);
 934:Drivers/LCD_FMC/src/tftLCD.c ****         LCD_WR_DATA(0x00);
 935:Drivers/LCD_FMC/src/tftLCD.c ****         LCD_WR_DATA(0x00);
 936:Drivers/LCD_FMC/src/tftLCD.c ****         LCD_WR_DATA(0x00);
 937:Drivers/LCD_FMC/src/tftLCD.c ****         LCD_WR_DATA(0x00);
 938:Drivers/LCD_FMC/src/tftLCD.c ****         LCD_WR_DATA(0x00);
 939:Drivers/LCD_FMC/src/tftLCD.c ****         LCD_WR_DATA(0x00);
 940:Drivers/LCD_FMC/src/tftLCD.c ****         LCD_WR_DATA(0x00);
 941:Drivers/LCD_FMC/src/tftLCD.c ****         LCD_WR_DATA(0x00);
 942:Drivers/LCD_FMC/src/tftLCD.c ****         LCD_WR_DATA(0x00);
 943:Drivers/LCD_FMC/src/tftLCD.c ****         LCD_WR_DATA(0x00);
ARM GAS  C:\usertemp\ccUDQ5mr.s 			page 59


 944:Drivers/LCD_FMC/src/tftLCD.c ****         LCD_WR_DATA(0x00);
 945:Drivers/LCD_FMC/src/tftLCD.c ****         LCD_WR_DATA(0x00);
 946:Drivers/LCD_FMC/src/tftLCD.c ****         LCD_WR_DATA(0x00);
 947:Drivers/LCD_FMC/src/tftLCD.c ****         LCD_WR_DATA(0x00);
 948:Drivers/LCD_FMC/src/tftLCD.c ****         LCD_WR_DATA(0x00);
 949:Drivers/LCD_FMC/src/tftLCD.c ****         LCD_WR_DATA(0x00);
 950:Drivers/LCD_FMC/src/tftLCD.c ****         LCD_WR_DATA(0x00);
 951:Drivers/LCD_FMC/src/tftLCD.c ****         LCD_WR_DATA(0x00);
 952:Drivers/LCD_FMC/src/tftLCD.c ****         LCD_WR_DATA(0x00);
 953:Drivers/LCD_FMC/src/tftLCD.c ****         LCD_WR_DATA(0x00);
 954:Drivers/LCD_FMC/src/tftLCD.c ****         LCD_WR_DATA(0x00);
 955:Drivers/LCD_FMC/src/tftLCD.c ****         LCD_WR_DATA(0x00);
 956:Drivers/LCD_FMC/src/tftLCD.c ****         LCD_WR_DATA(0x00);
 957:Drivers/LCD_FMC/src/tftLCD.c **** 
 958:Drivers/LCD_FMC/src/tftLCD.c ****         LCD_WR_REG(0xB4);
 959:Drivers/LCD_FMC/src/tftLCD.c ****         LCD_WR_DATA(0x8B);
 960:Drivers/LCD_FMC/src/tftLCD.c ****         LCD_WR_DATA(0x00);
 961:Drivers/LCD_FMC/src/tftLCD.c ****         LCD_WR_DATA(0x96);
 962:Drivers/LCD_FMC/src/tftLCD.c ****         LCD_WR_DATA(0x00);
 963:Drivers/LCD_FMC/src/tftLCD.c ****         LCD_WR_DATA(0xA1);
 964:Drivers/LCD_FMC/src/tftLCD.c ****         LCD_WR_DATA(0x00);
 965:Drivers/LCD_FMC/src/tftLCD.c **** 
 966:Drivers/LCD_FMC/src/tftLCD.c ****         LCD_WR_REG(0xB5);
 967:Drivers/LCD_FMC/src/tftLCD.c ****         LCD_WR_DATA(0x02);
 968:Drivers/LCD_FMC/src/tftLCD.c ****         LCD_WR_DATA(0x00);
 969:Drivers/LCD_FMC/src/tftLCD.c ****         LCD_WR_DATA(0x03);
 970:Drivers/LCD_FMC/src/tftLCD.c ****         LCD_WR_DATA(0x00);
 971:Drivers/LCD_FMC/src/tftLCD.c ****         LCD_WR_DATA(0x04);
 972:Drivers/LCD_FMC/src/tftLCD.c ****         LCD_WR_DATA(0x00);
 973:Drivers/LCD_FMC/src/tftLCD.c **** 
 974:Drivers/LCD_FMC/src/tftLCD.c ****         LCD_WR_REG(0xB6);
 975:Drivers/LCD_FMC/src/tftLCD.c ****         LCD_WR_DATA(0x00);
 976:Drivers/LCD_FMC/src/tftLCD.c ****         LCD_WR_DATA(0x00);
 977:Drivers/LCD_FMC/src/tftLCD.c **** 
 978:Drivers/LCD_FMC/src/tftLCD.c ****         LCD_WR_REG(0xB7);
 979:Drivers/LCD_FMC/src/tftLCD.c ****         LCD_WR_DATA(0x00);
 980:Drivers/LCD_FMC/src/tftLCD.c ****         LCD_WR_DATA(0x00);
 981:Drivers/LCD_FMC/src/tftLCD.c ****         LCD_WR_DATA(0x3F);
 982:Drivers/LCD_FMC/src/tftLCD.c ****         LCD_WR_DATA(0x00);
 983:Drivers/LCD_FMC/src/tftLCD.c ****         LCD_WR_DATA(0x5E);
 984:Drivers/LCD_FMC/src/tftLCD.c ****         LCD_WR_DATA(0x00);
 985:Drivers/LCD_FMC/src/tftLCD.c ****         LCD_WR_DATA(0x64);
 986:Drivers/LCD_FMC/src/tftLCD.c ****         LCD_WR_DATA(0x00);
 987:Drivers/LCD_FMC/src/tftLCD.c ****         LCD_WR_DATA(0x8C);
 988:Drivers/LCD_FMC/src/tftLCD.c ****         LCD_WR_DATA(0x00);
 989:Drivers/LCD_FMC/src/tftLCD.c ****         LCD_WR_DATA(0xAC);
 990:Drivers/LCD_FMC/src/tftLCD.c ****         LCD_WR_DATA(0x00);
 991:Drivers/LCD_FMC/src/tftLCD.c ****         LCD_WR_DATA(0xDC);
 992:Drivers/LCD_FMC/src/tftLCD.c ****         LCD_WR_DATA(0x00);
 993:Drivers/LCD_FMC/src/tftLCD.c ****         LCD_WR_DATA(0x70);
 994:Drivers/LCD_FMC/src/tftLCD.c ****         LCD_WR_DATA(0x00);
 995:Drivers/LCD_FMC/src/tftLCD.c ****         LCD_WR_DATA(0x90);
 996:Drivers/LCD_FMC/src/tftLCD.c ****         LCD_WR_DATA(0x00);
 997:Drivers/LCD_FMC/src/tftLCD.c ****         LCD_WR_DATA(0xEB);
 998:Drivers/LCD_FMC/src/tftLCD.c ****         LCD_WR_DATA(0x00);
 999:Drivers/LCD_FMC/src/tftLCD.c ****         LCD_WR_DATA(0xDC);
1000:Drivers/LCD_FMC/src/tftLCD.c ****         LCD_WR_DATA(0x00);
ARM GAS  C:\usertemp\ccUDQ5mr.s 			page 60


1001:Drivers/LCD_FMC/src/tftLCD.c **** 
1002:Drivers/LCD_FMC/src/tftLCD.c ****         LCD_WR_REG(0xB8);
1003:Drivers/LCD_FMC/src/tftLCD.c ****         LCD_WR_DATA(0x00);
1004:Drivers/LCD_FMC/src/tftLCD.c ****         LCD_WR_DATA(0x00);
1005:Drivers/LCD_FMC/src/tftLCD.c ****         LCD_WR_DATA(0x00);
1006:Drivers/LCD_FMC/src/tftLCD.c ****         LCD_WR_DATA(0x00);
1007:Drivers/LCD_FMC/src/tftLCD.c ****         LCD_WR_DATA(0x00);
1008:Drivers/LCD_FMC/src/tftLCD.c ****         LCD_WR_DATA(0x00);
1009:Drivers/LCD_FMC/src/tftLCD.c ****         LCD_WR_DATA(0x00);
1010:Drivers/LCD_FMC/src/tftLCD.c ****         LCD_WR_DATA(0x00);
1011:Drivers/LCD_FMC/src/tftLCD.c **** 
1012:Drivers/LCD_FMC/src/tftLCD.c ****         LCD_WR_REG(0xBA);
1013:Drivers/LCD_FMC/src/tftLCD.c ****         LCD_WR_DATA(0x24);
1014:Drivers/LCD_FMC/src/tftLCD.c ****         LCD_WR_DATA(0x00);
1015:Drivers/LCD_FMC/src/tftLCD.c ****         LCD_WR_DATA(0x00);
1016:Drivers/LCD_FMC/src/tftLCD.c ****         LCD_WR_DATA(0x00);
1017:Drivers/LCD_FMC/src/tftLCD.c **** 
1018:Drivers/LCD_FMC/src/tftLCD.c ****         LCD_WR_REG(0xC1);
1019:Drivers/LCD_FMC/src/tftLCD.c ****         LCD_WR_DATA(0x20);
1020:Drivers/LCD_FMC/src/tftLCD.c ****         LCD_WR_DATA(0x00);
1021:Drivers/LCD_FMC/src/tftLCD.c ****         LCD_WR_DATA(0x54);
1022:Drivers/LCD_FMC/src/tftLCD.c ****         LCD_WR_DATA(0x00);
1023:Drivers/LCD_FMC/src/tftLCD.c ****         LCD_WR_DATA(0xFF);
1024:Drivers/LCD_FMC/src/tftLCD.c ****         LCD_WR_DATA(0x00);
1025:Drivers/LCD_FMC/src/tftLCD.c **** 
1026:Drivers/LCD_FMC/src/tftLCD.c ****         LCD_WR_REG(0xC2);
1027:Drivers/LCD_FMC/src/tftLCD.c ****         LCD_WR_DATA(0x0A);
1028:Drivers/LCD_FMC/src/tftLCD.c ****         LCD_WR_DATA(0x00);
1029:Drivers/LCD_FMC/src/tftLCD.c ****         LCD_WR_DATA(0x04);
1030:Drivers/LCD_FMC/src/tftLCD.c ****         LCD_WR_DATA(0x00);
1031:Drivers/LCD_FMC/src/tftLCD.c **** 
1032:Drivers/LCD_FMC/src/tftLCD.c ****         LCD_WR_REG(0xC3);
1033:Drivers/LCD_FMC/src/tftLCD.c ****         LCD_WR_DATA(0x3C);
1034:Drivers/LCD_FMC/src/tftLCD.c ****         LCD_WR_DATA(0x00);
1035:Drivers/LCD_FMC/src/tftLCD.c ****         LCD_WR_DATA(0x3A);
1036:Drivers/LCD_FMC/src/tftLCD.c ****         LCD_WR_DATA(0x00);
1037:Drivers/LCD_FMC/src/tftLCD.c ****         LCD_WR_DATA(0x39);
1038:Drivers/LCD_FMC/src/tftLCD.c ****         LCD_WR_DATA(0x00);
1039:Drivers/LCD_FMC/src/tftLCD.c ****         LCD_WR_DATA(0x37);
1040:Drivers/LCD_FMC/src/tftLCD.c ****         LCD_WR_DATA(0x00);
1041:Drivers/LCD_FMC/src/tftLCD.c ****         LCD_WR_DATA(0x3C);
1042:Drivers/LCD_FMC/src/tftLCD.c ****         LCD_WR_DATA(0x00);
1043:Drivers/LCD_FMC/src/tftLCD.c ****         LCD_WR_DATA(0x36);
1044:Drivers/LCD_FMC/src/tftLCD.c ****         LCD_WR_DATA(0x00);
1045:Drivers/LCD_FMC/src/tftLCD.c ****         LCD_WR_DATA(0x32);
1046:Drivers/LCD_FMC/src/tftLCD.c ****         LCD_WR_DATA(0x00);
1047:Drivers/LCD_FMC/src/tftLCD.c ****         LCD_WR_DATA(0x2F);
1048:Drivers/LCD_FMC/src/tftLCD.c ****         LCD_WR_DATA(0x00);
1049:Drivers/LCD_FMC/src/tftLCD.c ****         LCD_WR_DATA(0x2C);
1050:Drivers/LCD_FMC/src/tftLCD.c ****         LCD_WR_DATA(0x00);
1051:Drivers/LCD_FMC/src/tftLCD.c ****         LCD_WR_DATA(0x29);
1052:Drivers/LCD_FMC/src/tftLCD.c ****         LCD_WR_DATA(0x00);
1053:Drivers/LCD_FMC/src/tftLCD.c ****         LCD_WR_DATA(0x26);
1054:Drivers/LCD_FMC/src/tftLCD.c ****         LCD_WR_DATA(0x00);
1055:Drivers/LCD_FMC/src/tftLCD.c ****         LCD_WR_DATA(0x24);
1056:Drivers/LCD_FMC/src/tftLCD.c ****         LCD_WR_DATA(0x00);
1057:Drivers/LCD_FMC/src/tftLCD.c ****         LCD_WR_DATA(0x24);
ARM GAS  C:\usertemp\ccUDQ5mr.s 			page 61


1058:Drivers/LCD_FMC/src/tftLCD.c ****         LCD_WR_DATA(0x00);
1059:Drivers/LCD_FMC/src/tftLCD.c ****         LCD_WR_DATA(0x23);
1060:Drivers/LCD_FMC/src/tftLCD.c ****         LCD_WR_DATA(0x00);
1061:Drivers/LCD_FMC/src/tftLCD.c ****         LCD_WR_DATA(0x3C);
1062:Drivers/LCD_FMC/src/tftLCD.c ****         LCD_WR_DATA(0x00);
1063:Drivers/LCD_FMC/src/tftLCD.c ****         LCD_WR_DATA(0x36);
1064:Drivers/LCD_FMC/src/tftLCD.c ****         LCD_WR_DATA(0x00);
1065:Drivers/LCD_FMC/src/tftLCD.c ****         LCD_WR_DATA(0x32);
1066:Drivers/LCD_FMC/src/tftLCD.c ****         LCD_WR_DATA(0x00);
1067:Drivers/LCD_FMC/src/tftLCD.c ****         LCD_WR_DATA(0x2F);
1068:Drivers/LCD_FMC/src/tftLCD.c ****         LCD_WR_DATA(0x00);
1069:Drivers/LCD_FMC/src/tftLCD.c ****         LCD_WR_DATA(0x2C);
1070:Drivers/LCD_FMC/src/tftLCD.c ****         LCD_WR_DATA(0x00);
1071:Drivers/LCD_FMC/src/tftLCD.c ****         LCD_WR_DATA(0x29);
1072:Drivers/LCD_FMC/src/tftLCD.c ****         LCD_WR_DATA(0x00);
1073:Drivers/LCD_FMC/src/tftLCD.c ****         LCD_WR_DATA(0x26);
1074:Drivers/LCD_FMC/src/tftLCD.c ****         LCD_WR_DATA(0x00);
1075:Drivers/LCD_FMC/src/tftLCD.c ****         LCD_WR_DATA(0x24);
1076:Drivers/LCD_FMC/src/tftLCD.c ****         LCD_WR_DATA(0x00);
1077:Drivers/LCD_FMC/src/tftLCD.c ****         LCD_WR_DATA(0x24);
1078:Drivers/LCD_FMC/src/tftLCD.c ****         LCD_WR_DATA(0x00);
1079:Drivers/LCD_FMC/src/tftLCD.c ****         LCD_WR_DATA(0x23);
1080:Drivers/LCD_FMC/src/tftLCD.c ****         LCD_WR_DATA(0x00);
1081:Drivers/LCD_FMC/src/tftLCD.c **** 
1082:Drivers/LCD_FMC/src/tftLCD.c ****         LCD_WR_REG(0xC4);
1083:Drivers/LCD_FMC/src/tftLCD.c ****         LCD_WR_DATA(0x62);
1084:Drivers/LCD_FMC/src/tftLCD.c ****         LCD_WR_DATA(0x00);
1085:Drivers/LCD_FMC/src/tftLCD.c ****         LCD_WR_DATA(0x05);
1086:Drivers/LCD_FMC/src/tftLCD.c ****         LCD_WR_DATA(0x00);
1087:Drivers/LCD_FMC/src/tftLCD.c ****         LCD_WR_DATA(0x84);
1088:Drivers/LCD_FMC/src/tftLCD.c ****         LCD_WR_DATA(0x00);
1089:Drivers/LCD_FMC/src/tftLCD.c ****         LCD_WR_DATA(0xF0);
1090:Drivers/LCD_FMC/src/tftLCD.c ****         LCD_WR_DATA(0x00);
1091:Drivers/LCD_FMC/src/tftLCD.c ****         LCD_WR_DATA(0x18);
1092:Drivers/LCD_FMC/src/tftLCD.c ****         LCD_WR_DATA(0x00);
1093:Drivers/LCD_FMC/src/tftLCD.c ****         LCD_WR_DATA(0xA4);
1094:Drivers/LCD_FMC/src/tftLCD.c ****         LCD_WR_DATA(0x00);
1095:Drivers/LCD_FMC/src/tftLCD.c ****         LCD_WR_DATA(0x18);
1096:Drivers/LCD_FMC/src/tftLCD.c ****         LCD_WR_DATA(0x00);
1097:Drivers/LCD_FMC/src/tftLCD.c ****         LCD_WR_DATA(0x50);
1098:Drivers/LCD_FMC/src/tftLCD.c ****         LCD_WR_DATA(0x00);
1099:Drivers/LCD_FMC/src/tftLCD.c ****         LCD_WR_DATA(0x0C);
1100:Drivers/LCD_FMC/src/tftLCD.c ****         LCD_WR_DATA(0x00);
1101:Drivers/LCD_FMC/src/tftLCD.c ****         LCD_WR_DATA(0x17);
1102:Drivers/LCD_FMC/src/tftLCD.c ****         LCD_WR_DATA(0x00);
1103:Drivers/LCD_FMC/src/tftLCD.c ****         LCD_WR_DATA(0x95);
1104:Drivers/LCD_FMC/src/tftLCD.c ****         LCD_WR_DATA(0x00);
1105:Drivers/LCD_FMC/src/tftLCD.c ****         LCD_WR_DATA(0xF3);
1106:Drivers/LCD_FMC/src/tftLCD.c ****         LCD_WR_DATA(0x00);
1107:Drivers/LCD_FMC/src/tftLCD.c ****         LCD_WR_DATA(0xE6);
1108:Drivers/LCD_FMC/src/tftLCD.c ****         LCD_WR_DATA(0x00);
1109:Drivers/LCD_FMC/src/tftLCD.c **** 
1110:Drivers/LCD_FMC/src/tftLCD.c ****         LCD_WR_REG(0xC5);
1111:Drivers/LCD_FMC/src/tftLCD.c ****         LCD_WR_DATA(0x32);
1112:Drivers/LCD_FMC/src/tftLCD.c ****         LCD_WR_DATA(0x00);
1113:Drivers/LCD_FMC/src/tftLCD.c ****         LCD_WR_DATA(0x44);
1114:Drivers/LCD_FMC/src/tftLCD.c ****         LCD_WR_DATA(0x00);
ARM GAS  C:\usertemp\ccUDQ5mr.s 			page 62


1115:Drivers/LCD_FMC/src/tftLCD.c ****         LCD_WR_DATA(0x65);
1116:Drivers/LCD_FMC/src/tftLCD.c ****         LCD_WR_DATA(0x00);
1117:Drivers/LCD_FMC/src/tftLCD.c ****         LCD_WR_DATA(0x76);
1118:Drivers/LCD_FMC/src/tftLCD.c ****         LCD_WR_DATA(0x00);
1119:Drivers/LCD_FMC/src/tftLCD.c ****         LCD_WR_DATA(0x88);
1120:Drivers/LCD_FMC/src/tftLCD.c ****         LCD_WR_DATA(0x00);
1121:Drivers/LCD_FMC/src/tftLCD.c **** 
1122:Drivers/LCD_FMC/src/tftLCD.c ****         LCD_WR_REG(0xC6);
1123:Drivers/LCD_FMC/src/tftLCD.c ****         LCD_WR_DATA(0x20);
1124:Drivers/LCD_FMC/src/tftLCD.c ****         LCD_WR_DATA(0x00);
1125:Drivers/LCD_FMC/src/tftLCD.c ****         LCD_WR_DATA(0x17);
1126:Drivers/LCD_FMC/src/tftLCD.c ****         LCD_WR_DATA(0x00);
1127:Drivers/LCD_FMC/src/tftLCD.c ****         LCD_WR_DATA(0x01);
1128:Drivers/LCD_FMC/src/tftLCD.c ****         LCD_WR_DATA(0x00);
1129:Drivers/LCD_FMC/src/tftLCD.c **** 
1130:Drivers/LCD_FMC/src/tftLCD.c ****         LCD_WR_REG(0xC7);
1131:Drivers/LCD_FMC/src/tftLCD.c ****         LCD_WR_DATA(0x00);
1132:Drivers/LCD_FMC/src/tftLCD.c ****         LCD_WR_DATA(0x00);
1133:Drivers/LCD_FMC/src/tftLCD.c ****         LCD_WR_DATA(0x00);
1134:Drivers/LCD_FMC/src/tftLCD.c ****         LCD_WR_DATA(0x00);
1135:Drivers/LCD_FMC/src/tftLCD.c **** 
1136:Drivers/LCD_FMC/src/tftLCD.c ****         LCD_WR_REG(0xC8);
1137:Drivers/LCD_FMC/src/tftLCD.c ****         LCD_WR_DATA(0x00);
1138:Drivers/LCD_FMC/src/tftLCD.c ****         LCD_WR_DATA(0x00);
1139:Drivers/LCD_FMC/src/tftLCD.c ****         LCD_WR_DATA(0x00);
1140:Drivers/LCD_FMC/src/tftLCD.c ****         LCD_WR_DATA(0x00);
1141:Drivers/LCD_FMC/src/tftLCD.c **** 
1142:Drivers/LCD_FMC/src/tftLCD.c ****         LCD_WR_REG(0xC9);
1143:Drivers/LCD_FMC/src/tftLCD.c ****         LCD_WR_DATA(0x00);
1144:Drivers/LCD_FMC/src/tftLCD.c ****         LCD_WR_DATA(0x00);
1145:Drivers/LCD_FMC/src/tftLCD.c ****         LCD_WR_DATA(0x00);
1146:Drivers/LCD_FMC/src/tftLCD.c ****         LCD_WR_DATA(0x00);
1147:Drivers/LCD_FMC/src/tftLCD.c ****         LCD_WR_DATA(0x00);
1148:Drivers/LCD_FMC/src/tftLCD.c ****         LCD_WR_DATA(0x00);
1149:Drivers/LCD_FMC/src/tftLCD.c ****         LCD_WR_DATA(0x00);
1150:Drivers/LCD_FMC/src/tftLCD.c ****         LCD_WR_DATA(0x00);
1151:Drivers/LCD_FMC/src/tftLCD.c ****         LCD_WR_DATA(0x00);
1152:Drivers/LCD_FMC/src/tftLCD.c ****         LCD_WR_DATA(0x00);
1153:Drivers/LCD_FMC/src/tftLCD.c ****         LCD_WR_DATA(0x00);
1154:Drivers/LCD_FMC/src/tftLCD.c ****         LCD_WR_DATA(0x00);
1155:Drivers/LCD_FMC/src/tftLCD.c ****         LCD_WR_DATA(0x00);
1156:Drivers/LCD_FMC/src/tftLCD.c ****         LCD_WR_DATA(0x00);
1157:Drivers/LCD_FMC/src/tftLCD.c ****         LCD_WR_DATA(0x00);
1158:Drivers/LCD_FMC/src/tftLCD.c ****         LCD_WR_DATA(0x00);
1159:Drivers/LCD_FMC/src/tftLCD.c **** 
1160:Drivers/LCD_FMC/src/tftLCD.c ****         LCD_WR_REG(0xE0);
1161:Drivers/LCD_FMC/src/tftLCD.c ****         LCD_WR_DATA(0x16);
1162:Drivers/LCD_FMC/src/tftLCD.c ****         LCD_WR_DATA(0x00);
1163:Drivers/LCD_FMC/src/tftLCD.c ****         LCD_WR_DATA(0x1C);
1164:Drivers/LCD_FMC/src/tftLCD.c ****         LCD_WR_DATA(0x00);
1165:Drivers/LCD_FMC/src/tftLCD.c ****         LCD_WR_DATA(0x21);
1166:Drivers/LCD_FMC/src/tftLCD.c ****         LCD_WR_DATA(0x00);
1167:Drivers/LCD_FMC/src/tftLCD.c ****         LCD_WR_DATA(0x36);
1168:Drivers/LCD_FMC/src/tftLCD.c ****         LCD_WR_DATA(0x00);
1169:Drivers/LCD_FMC/src/tftLCD.c ****         LCD_WR_DATA(0x46);
1170:Drivers/LCD_FMC/src/tftLCD.c ****         LCD_WR_DATA(0x00);
1171:Drivers/LCD_FMC/src/tftLCD.c ****         LCD_WR_DATA(0x52);
ARM GAS  C:\usertemp\ccUDQ5mr.s 			page 63


1172:Drivers/LCD_FMC/src/tftLCD.c ****         LCD_WR_DATA(0x00);
1173:Drivers/LCD_FMC/src/tftLCD.c ****         LCD_WR_DATA(0x64);
1174:Drivers/LCD_FMC/src/tftLCD.c ****         LCD_WR_DATA(0x00);
1175:Drivers/LCD_FMC/src/tftLCD.c ****         LCD_WR_DATA(0x7A);
1176:Drivers/LCD_FMC/src/tftLCD.c ****         LCD_WR_DATA(0x00);
1177:Drivers/LCD_FMC/src/tftLCD.c ****         LCD_WR_DATA(0x8B);
1178:Drivers/LCD_FMC/src/tftLCD.c ****         LCD_WR_DATA(0x00);
1179:Drivers/LCD_FMC/src/tftLCD.c ****         LCD_WR_DATA(0x99);
1180:Drivers/LCD_FMC/src/tftLCD.c ****         LCD_WR_DATA(0x00);
1181:Drivers/LCD_FMC/src/tftLCD.c ****         LCD_WR_DATA(0xA8);
1182:Drivers/LCD_FMC/src/tftLCD.c ****         LCD_WR_DATA(0x00);
1183:Drivers/LCD_FMC/src/tftLCD.c ****         LCD_WR_DATA(0xB9);
1184:Drivers/LCD_FMC/src/tftLCD.c ****         LCD_WR_DATA(0x00);
1185:Drivers/LCD_FMC/src/tftLCD.c ****         LCD_WR_DATA(0xC4);
1186:Drivers/LCD_FMC/src/tftLCD.c ****         LCD_WR_DATA(0x00);
1187:Drivers/LCD_FMC/src/tftLCD.c ****         LCD_WR_DATA(0xCA);
1188:Drivers/LCD_FMC/src/tftLCD.c ****         LCD_WR_DATA(0x00);
1189:Drivers/LCD_FMC/src/tftLCD.c ****         LCD_WR_DATA(0xD2);
1190:Drivers/LCD_FMC/src/tftLCD.c ****         LCD_WR_DATA(0x00);
1191:Drivers/LCD_FMC/src/tftLCD.c ****         LCD_WR_DATA(0xD9);
1192:Drivers/LCD_FMC/src/tftLCD.c ****         LCD_WR_DATA(0x00);
1193:Drivers/LCD_FMC/src/tftLCD.c ****         LCD_WR_DATA(0xE0);
1194:Drivers/LCD_FMC/src/tftLCD.c ****         LCD_WR_DATA(0x00);
1195:Drivers/LCD_FMC/src/tftLCD.c ****         LCD_WR_DATA(0xF3);
1196:Drivers/LCD_FMC/src/tftLCD.c ****         LCD_WR_DATA(0x00);
1197:Drivers/LCD_FMC/src/tftLCD.c **** 
1198:Drivers/LCD_FMC/src/tftLCD.c ****         LCD_WR_REG(0xE1);
1199:Drivers/LCD_FMC/src/tftLCD.c ****         LCD_WR_DATA(0x16);
1200:Drivers/LCD_FMC/src/tftLCD.c ****         LCD_WR_DATA(0x00);
1201:Drivers/LCD_FMC/src/tftLCD.c ****         LCD_WR_DATA(0x1C);
1202:Drivers/LCD_FMC/src/tftLCD.c ****         LCD_WR_DATA(0x00);
1203:Drivers/LCD_FMC/src/tftLCD.c ****         LCD_WR_DATA(0x22);
1204:Drivers/LCD_FMC/src/tftLCD.c ****         LCD_WR_DATA(0x00);
1205:Drivers/LCD_FMC/src/tftLCD.c ****         LCD_WR_DATA(0x36);
1206:Drivers/LCD_FMC/src/tftLCD.c ****         LCD_WR_DATA(0x00);
1207:Drivers/LCD_FMC/src/tftLCD.c ****         LCD_WR_DATA(0x45);
1208:Drivers/LCD_FMC/src/tftLCD.c ****         LCD_WR_DATA(0x00);
1209:Drivers/LCD_FMC/src/tftLCD.c ****         LCD_WR_DATA(0x52);
1210:Drivers/LCD_FMC/src/tftLCD.c ****         LCD_WR_DATA(0x00);
1211:Drivers/LCD_FMC/src/tftLCD.c ****         LCD_WR_DATA(0x64);
1212:Drivers/LCD_FMC/src/tftLCD.c ****         LCD_WR_DATA(0x00);
1213:Drivers/LCD_FMC/src/tftLCD.c ****         LCD_WR_DATA(0x7A);
1214:Drivers/LCD_FMC/src/tftLCD.c ****         LCD_WR_DATA(0x00);
1215:Drivers/LCD_FMC/src/tftLCD.c ****         LCD_WR_DATA(0x8B);
1216:Drivers/LCD_FMC/src/tftLCD.c ****         LCD_WR_DATA(0x00);
1217:Drivers/LCD_FMC/src/tftLCD.c ****         LCD_WR_DATA(0x99);
1218:Drivers/LCD_FMC/src/tftLCD.c ****         LCD_WR_DATA(0x00);
1219:Drivers/LCD_FMC/src/tftLCD.c ****         LCD_WR_DATA(0xA8);
1220:Drivers/LCD_FMC/src/tftLCD.c ****         LCD_WR_DATA(0x00);
1221:Drivers/LCD_FMC/src/tftLCD.c ****         LCD_WR_DATA(0xB9);
1222:Drivers/LCD_FMC/src/tftLCD.c ****         LCD_WR_DATA(0x00);
1223:Drivers/LCD_FMC/src/tftLCD.c ****         LCD_WR_DATA(0xC4);
1224:Drivers/LCD_FMC/src/tftLCD.c ****         LCD_WR_DATA(0x00);
1225:Drivers/LCD_FMC/src/tftLCD.c ****         LCD_WR_DATA(0xCA);
1226:Drivers/LCD_FMC/src/tftLCD.c ****         LCD_WR_DATA(0x00);
1227:Drivers/LCD_FMC/src/tftLCD.c ****         LCD_WR_DATA(0xD2);
1228:Drivers/LCD_FMC/src/tftLCD.c ****         LCD_WR_DATA(0x00);
ARM GAS  C:\usertemp\ccUDQ5mr.s 			page 64


1229:Drivers/LCD_FMC/src/tftLCD.c ****         LCD_WR_DATA(0xD8);
1230:Drivers/LCD_FMC/src/tftLCD.c ****         LCD_WR_DATA(0x00);
1231:Drivers/LCD_FMC/src/tftLCD.c ****         LCD_WR_DATA(0xE0);
1232:Drivers/LCD_FMC/src/tftLCD.c ****         LCD_WR_DATA(0x00);
1233:Drivers/LCD_FMC/src/tftLCD.c ****         LCD_WR_DATA(0xF3);
1234:Drivers/LCD_FMC/src/tftLCD.c ****         LCD_WR_DATA(0x00);
1235:Drivers/LCD_FMC/src/tftLCD.c **** 
1236:Drivers/LCD_FMC/src/tftLCD.c ****         LCD_WR_REG(0xE2);
1237:Drivers/LCD_FMC/src/tftLCD.c ****         LCD_WR_DATA(0x05);
1238:Drivers/LCD_FMC/src/tftLCD.c ****         LCD_WR_DATA(0x00);
1239:Drivers/LCD_FMC/src/tftLCD.c ****         LCD_WR_DATA(0x0B);
1240:Drivers/LCD_FMC/src/tftLCD.c ****         LCD_WR_DATA(0x00);
1241:Drivers/LCD_FMC/src/tftLCD.c ****         LCD_WR_DATA(0x1B);
1242:Drivers/LCD_FMC/src/tftLCD.c ****         LCD_WR_DATA(0x00);
1243:Drivers/LCD_FMC/src/tftLCD.c ****         LCD_WR_DATA(0x34);
1244:Drivers/LCD_FMC/src/tftLCD.c ****         LCD_WR_DATA(0x00);
1245:Drivers/LCD_FMC/src/tftLCD.c ****         LCD_WR_DATA(0x44);
1246:Drivers/LCD_FMC/src/tftLCD.c ****         LCD_WR_DATA(0x00);
1247:Drivers/LCD_FMC/src/tftLCD.c ****         LCD_WR_DATA(0x4F);
1248:Drivers/LCD_FMC/src/tftLCD.c ****         LCD_WR_DATA(0x00);
1249:Drivers/LCD_FMC/src/tftLCD.c ****         LCD_WR_DATA(0x61);
1250:Drivers/LCD_FMC/src/tftLCD.c ****         LCD_WR_DATA(0x00);
1251:Drivers/LCD_FMC/src/tftLCD.c ****         LCD_WR_DATA(0x79);
1252:Drivers/LCD_FMC/src/tftLCD.c ****         LCD_WR_DATA(0x00);
1253:Drivers/LCD_FMC/src/tftLCD.c ****         LCD_WR_DATA(0x88);
1254:Drivers/LCD_FMC/src/tftLCD.c ****         LCD_WR_DATA(0x00);
1255:Drivers/LCD_FMC/src/tftLCD.c ****         LCD_WR_DATA(0x97);
1256:Drivers/LCD_FMC/src/tftLCD.c ****         LCD_WR_DATA(0x00);
1257:Drivers/LCD_FMC/src/tftLCD.c ****         LCD_WR_DATA(0xA6);
1258:Drivers/LCD_FMC/src/tftLCD.c ****         LCD_WR_DATA(0x00);
1259:Drivers/LCD_FMC/src/tftLCD.c ****         LCD_WR_DATA(0xB7);
1260:Drivers/LCD_FMC/src/tftLCD.c ****         LCD_WR_DATA(0x00);
1261:Drivers/LCD_FMC/src/tftLCD.c ****         LCD_WR_DATA(0xC2);
1262:Drivers/LCD_FMC/src/tftLCD.c ****         LCD_WR_DATA(0x00);
1263:Drivers/LCD_FMC/src/tftLCD.c ****         LCD_WR_DATA(0xC7);
1264:Drivers/LCD_FMC/src/tftLCD.c ****         LCD_WR_DATA(0x00);
1265:Drivers/LCD_FMC/src/tftLCD.c ****         LCD_WR_DATA(0xD1);
1266:Drivers/LCD_FMC/src/tftLCD.c ****         LCD_WR_DATA(0x00);
1267:Drivers/LCD_FMC/src/tftLCD.c ****         LCD_WR_DATA(0xD6);
1268:Drivers/LCD_FMC/src/tftLCD.c ****         LCD_WR_DATA(0x00);
1269:Drivers/LCD_FMC/src/tftLCD.c ****         LCD_WR_DATA(0xDD);
1270:Drivers/LCD_FMC/src/tftLCD.c ****         LCD_WR_DATA(0x00);
1271:Drivers/LCD_FMC/src/tftLCD.c ****         LCD_WR_DATA(0xF3);
1272:Drivers/LCD_FMC/src/tftLCD.c ****         LCD_WR_DATA(0x00);
1273:Drivers/LCD_FMC/src/tftLCD.c ****         LCD_WR_REG(0xE3);
1274:Drivers/LCD_FMC/src/tftLCD.c ****         LCD_WR_DATA(0x05);
1275:Drivers/LCD_FMC/src/tftLCD.c ****         LCD_WR_DATA(0x00);
1276:Drivers/LCD_FMC/src/tftLCD.c ****         LCD_WR_DATA(0xA);
1277:Drivers/LCD_FMC/src/tftLCD.c ****         LCD_WR_DATA(0x00);
1278:Drivers/LCD_FMC/src/tftLCD.c ****         LCD_WR_DATA(0x1C);
1279:Drivers/LCD_FMC/src/tftLCD.c ****         LCD_WR_DATA(0x00);
1280:Drivers/LCD_FMC/src/tftLCD.c ****         LCD_WR_DATA(0x33);
1281:Drivers/LCD_FMC/src/tftLCD.c ****         LCD_WR_DATA(0x00);
1282:Drivers/LCD_FMC/src/tftLCD.c ****         LCD_WR_DATA(0x44);
1283:Drivers/LCD_FMC/src/tftLCD.c ****         LCD_WR_DATA(0x00);
1284:Drivers/LCD_FMC/src/tftLCD.c ****         LCD_WR_DATA(0x50);
1285:Drivers/LCD_FMC/src/tftLCD.c ****         LCD_WR_DATA(0x00);
ARM GAS  C:\usertemp\ccUDQ5mr.s 			page 65


1286:Drivers/LCD_FMC/src/tftLCD.c ****         LCD_WR_DATA(0x62);
1287:Drivers/LCD_FMC/src/tftLCD.c ****         LCD_WR_DATA(0x00);
1288:Drivers/LCD_FMC/src/tftLCD.c ****         LCD_WR_DATA(0x78);
1289:Drivers/LCD_FMC/src/tftLCD.c ****         LCD_WR_DATA(0x00);
1290:Drivers/LCD_FMC/src/tftLCD.c ****         LCD_WR_DATA(0x88);
1291:Drivers/LCD_FMC/src/tftLCD.c ****         LCD_WR_DATA(0x00);
1292:Drivers/LCD_FMC/src/tftLCD.c ****         LCD_WR_DATA(0x97);
1293:Drivers/LCD_FMC/src/tftLCD.c ****         LCD_WR_DATA(0x00);
1294:Drivers/LCD_FMC/src/tftLCD.c ****         LCD_WR_DATA(0xA6);
1295:Drivers/LCD_FMC/src/tftLCD.c ****         LCD_WR_DATA(0x00);
1296:Drivers/LCD_FMC/src/tftLCD.c ****         LCD_WR_DATA(0xB7);
1297:Drivers/LCD_FMC/src/tftLCD.c ****         LCD_WR_DATA(0x00);
1298:Drivers/LCD_FMC/src/tftLCD.c ****         LCD_WR_DATA(0xC2);
1299:Drivers/LCD_FMC/src/tftLCD.c ****         LCD_WR_DATA(0x00);
1300:Drivers/LCD_FMC/src/tftLCD.c ****         LCD_WR_DATA(0xC7);
1301:Drivers/LCD_FMC/src/tftLCD.c ****         LCD_WR_DATA(0x00);
1302:Drivers/LCD_FMC/src/tftLCD.c ****         LCD_WR_DATA(0xD1);
1303:Drivers/LCD_FMC/src/tftLCD.c ****         LCD_WR_DATA(0x00);
1304:Drivers/LCD_FMC/src/tftLCD.c ****         LCD_WR_DATA(0xD5);
1305:Drivers/LCD_FMC/src/tftLCD.c ****         LCD_WR_DATA(0x00);
1306:Drivers/LCD_FMC/src/tftLCD.c ****         LCD_WR_DATA(0xDD);
1307:Drivers/LCD_FMC/src/tftLCD.c ****         LCD_WR_DATA(0x00);
1308:Drivers/LCD_FMC/src/tftLCD.c ****         LCD_WR_DATA(0xF3);
1309:Drivers/LCD_FMC/src/tftLCD.c ****         LCD_WR_DATA(0x00);
1310:Drivers/LCD_FMC/src/tftLCD.c **** 
1311:Drivers/LCD_FMC/src/tftLCD.c ****         LCD_WR_REG(0xE4);
1312:Drivers/LCD_FMC/src/tftLCD.c ****         LCD_WR_DATA(0x01);
1313:Drivers/LCD_FMC/src/tftLCD.c ****         LCD_WR_DATA(0x00);
1314:Drivers/LCD_FMC/src/tftLCD.c ****         LCD_WR_DATA(0x01);
1315:Drivers/LCD_FMC/src/tftLCD.c ****         LCD_WR_DATA(0x00);
1316:Drivers/LCD_FMC/src/tftLCD.c ****         LCD_WR_DATA(0x02);
1317:Drivers/LCD_FMC/src/tftLCD.c ****         LCD_WR_DATA(0x00);
1318:Drivers/LCD_FMC/src/tftLCD.c ****         LCD_WR_DATA(0x2A);
1319:Drivers/LCD_FMC/src/tftLCD.c ****         LCD_WR_DATA(0x00);
1320:Drivers/LCD_FMC/src/tftLCD.c ****         LCD_WR_DATA(0x3C);
1321:Drivers/LCD_FMC/src/tftLCD.c ****         LCD_WR_DATA(0x00);
1322:Drivers/LCD_FMC/src/tftLCD.c ****         LCD_WR_DATA(0x4B);
1323:Drivers/LCD_FMC/src/tftLCD.c ****         LCD_WR_DATA(0x00);
1324:Drivers/LCD_FMC/src/tftLCD.c ****         LCD_WR_DATA(0x5D);
1325:Drivers/LCD_FMC/src/tftLCD.c ****         LCD_WR_DATA(0x00);
1326:Drivers/LCD_FMC/src/tftLCD.c ****         LCD_WR_DATA(0x74);
1327:Drivers/LCD_FMC/src/tftLCD.c ****         LCD_WR_DATA(0x00);
1328:Drivers/LCD_FMC/src/tftLCD.c ****         LCD_WR_DATA(0x84);
1329:Drivers/LCD_FMC/src/tftLCD.c ****         LCD_WR_DATA(0x00);
1330:Drivers/LCD_FMC/src/tftLCD.c ****         LCD_WR_DATA(0x93);
1331:Drivers/LCD_FMC/src/tftLCD.c ****         LCD_WR_DATA(0x00);
1332:Drivers/LCD_FMC/src/tftLCD.c ****         LCD_WR_DATA(0xA2);
1333:Drivers/LCD_FMC/src/tftLCD.c ****         LCD_WR_DATA(0x00);
1334:Drivers/LCD_FMC/src/tftLCD.c ****         LCD_WR_DATA(0xB3);
1335:Drivers/LCD_FMC/src/tftLCD.c ****         LCD_WR_DATA(0x00);
1336:Drivers/LCD_FMC/src/tftLCD.c ****         LCD_WR_DATA(0xBE);
1337:Drivers/LCD_FMC/src/tftLCD.c ****         LCD_WR_DATA(0x00);
1338:Drivers/LCD_FMC/src/tftLCD.c ****         LCD_WR_DATA(0xC4);
1339:Drivers/LCD_FMC/src/tftLCD.c ****         LCD_WR_DATA(0x00);
1340:Drivers/LCD_FMC/src/tftLCD.c ****         LCD_WR_DATA(0xCD);
1341:Drivers/LCD_FMC/src/tftLCD.c ****         LCD_WR_DATA(0x00);
1342:Drivers/LCD_FMC/src/tftLCD.c ****         LCD_WR_DATA(0xD3);
ARM GAS  C:\usertemp\ccUDQ5mr.s 			page 66


1343:Drivers/LCD_FMC/src/tftLCD.c ****         LCD_WR_DATA(0x00);
1344:Drivers/LCD_FMC/src/tftLCD.c ****         LCD_WR_DATA(0xDD);
1345:Drivers/LCD_FMC/src/tftLCD.c ****         LCD_WR_DATA(0x00);
1346:Drivers/LCD_FMC/src/tftLCD.c ****         LCD_WR_DATA(0xF3);
1347:Drivers/LCD_FMC/src/tftLCD.c ****         LCD_WR_DATA(0x00);
1348:Drivers/LCD_FMC/src/tftLCD.c ****         LCD_WR_REG(0xE5);
1349:Drivers/LCD_FMC/src/tftLCD.c ****         LCD_WR_DATA(0x00);
1350:Drivers/LCD_FMC/src/tftLCD.c ****         LCD_WR_DATA(0x00);
1351:Drivers/LCD_FMC/src/tftLCD.c ****         LCD_WR_DATA(0x00);
1352:Drivers/LCD_FMC/src/tftLCD.c ****         LCD_WR_DATA(0x00);
1353:Drivers/LCD_FMC/src/tftLCD.c ****         LCD_WR_DATA(0x02);
1354:Drivers/LCD_FMC/src/tftLCD.c ****         LCD_WR_DATA(0x00);
1355:Drivers/LCD_FMC/src/tftLCD.c ****         LCD_WR_DATA(0x29);
1356:Drivers/LCD_FMC/src/tftLCD.c ****         LCD_WR_DATA(0x00);
1357:Drivers/LCD_FMC/src/tftLCD.c ****         LCD_WR_DATA(0x3C);
1358:Drivers/LCD_FMC/src/tftLCD.c ****         LCD_WR_DATA(0x00);
1359:Drivers/LCD_FMC/src/tftLCD.c ****         LCD_WR_DATA(0x4B);
1360:Drivers/LCD_FMC/src/tftLCD.c ****         LCD_WR_DATA(0x00);
1361:Drivers/LCD_FMC/src/tftLCD.c ****         LCD_WR_DATA(0x5D);
1362:Drivers/LCD_FMC/src/tftLCD.c ****         LCD_WR_DATA(0x00);
1363:Drivers/LCD_FMC/src/tftLCD.c ****         LCD_WR_DATA(0x74);
1364:Drivers/LCD_FMC/src/tftLCD.c ****         LCD_WR_DATA(0x00);
1365:Drivers/LCD_FMC/src/tftLCD.c ****         LCD_WR_DATA(0x84);
1366:Drivers/LCD_FMC/src/tftLCD.c ****         LCD_WR_DATA(0x00);
1367:Drivers/LCD_FMC/src/tftLCD.c ****         LCD_WR_DATA(0x93);
1368:Drivers/LCD_FMC/src/tftLCD.c ****         LCD_WR_DATA(0x00);
1369:Drivers/LCD_FMC/src/tftLCD.c ****         LCD_WR_DATA(0xA2);
1370:Drivers/LCD_FMC/src/tftLCD.c ****         LCD_WR_DATA(0x00);
1371:Drivers/LCD_FMC/src/tftLCD.c ****         LCD_WR_DATA(0xB3);
1372:Drivers/LCD_FMC/src/tftLCD.c ****         LCD_WR_DATA(0x00);
1373:Drivers/LCD_FMC/src/tftLCD.c ****         LCD_WR_DATA(0xBE);
1374:Drivers/LCD_FMC/src/tftLCD.c ****         LCD_WR_DATA(0x00);
1375:Drivers/LCD_FMC/src/tftLCD.c ****         LCD_WR_DATA(0xC4);
1376:Drivers/LCD_FMC/src/tftLCD.c ****         LCD_WR_DATA(0x00);
1377:Drivers/LCD_FMC/src/tftLCD.c ****         LCD_WR_DATA(0xCD);
1378:Drivers/LCD_FMC/src/tftLCD.c ****         LCD_WR_DATA(0x00);
1379:Drivers/LCD_FMC/src/tftLCD.c ****         LCD_WR_DATA(0xD3);
1380:Drivers/LCD_FMC/src/tftLCD.c ****         LCD_WR_DATA(0x00);
1381:Drivers/LCD_FMC/src/tftLCD.c ****         LCD_WR_DATA(0xDC);
1382:Drivers/LCD_FMC/src/tftLCD.c ****         LCD_WR_DATA(0x00);
1383:Drivers/LCD_FMC/src/tftLCD.c ****         LCD_WR_DATA(0xF3);
1384:Drivers/LCD_FMC/src/tftLCD.c ****         LCD_WR_DATA(0x00);
1385:Drivers/LCD_FMC/src/tftLCD.c **** 
1386:Drivers/LCD_FMC/src/tftLCD.c ****         LCD_WR_REG(0xE6);
1387:Drivers/LCD_FMC/src/tftLCD.c ****         LCD_WR_DATA(0x11);
1388:Drivers/LCD_FMC/src/tftLCD.c ****         LCD_WR_DATA(0x00);
1389:Drivers/LCD_FMC/src/tftLCD.c ****         LCD_WR_DATA(0x34);
1390:Drivers/LCD_FMC/src/tftLCD.c ****         LCD_WR_DATA(0x00);
1391:Drivers/LCD_FMC/src/tftLCD.c ****         LCD_WR_DATA(0x56);
1392:Drivers/LCD_FMC/src/tftLCD.c ****         LCD_WR_DATA(0x00);
1393:Drivers/LCD_FMC/src/tftLCD.c ****         LCD_WR_DATA(0x76);
1394:Drivers/LCD_FMC/src/tftLCD.c ****         LCD_WR_DATA(0x00);
1395:Drivers/LCD_FMC/src/tftLCD.c ****         LCD_WR_DATA(0x77);
1396:Drivers/LCD_FMC/src/tftLCD.c ****         LCD_WR_DATA(0x00);
1397:Drivers/LCD_FMC/src/tftLCD.c ****         LCD_WR_DATA(0x66);
1398:Drivers/LCD_FMC/src/tftLCD.c ****         LCD_WR_DATA(0x00);
1399:Drivers/LCD_FMC/src/tftLCD.c ****         LCD_WR_DATA(0x88);
ARM GAS  C:\usertemp\ccUDQ5mr.s 			page 67


1400:Drivers/LCD_FMC/src/tftLCD.c ****         LCD_WR_DATA(0x00);
1401:Drivers/LCD_FMC/src/tftLCD.c ****         LCD_WR_DATA(0x99);
1402:Drivers/LCD_FMC/src/tftLCD.c ****         LCD_WR_DATA(0x00);
1403:Drivers/LCD_FMC/src/tftLCD.c ****         LCD_WR_DATA(0xBB);
1404:Drivers/LCD_FMC/src/tftLCD.c ****         LCD_WR_DATA(0x00);
1405:Drivers/LCD_FMC/src/tftLCD.c ****         LCD_WR_DATA(0x99);
1406:Drivers/LCD_FMC/src/tftLCD.c ****         LCD_WR_DATA(0x00);
1407:Drivers/LCD_FMC/src/tftLCD.c ****         LCD_WR_DATA(0x66);
1408:Drivers/LCD_FMC/src/tftLCD.c ****         LCD_WR_DATA(0x00);
1409:Drivers/LCD_FMC/src/tftLCD.c ****         LCD_WR_DATA(0x55);
1410:Drivers/LCD_FMC/src/tftLCD.c ****         LCD_WR_DATA(0x00);
1411:Drivers/LCD_FMC/src/tftLCD.c ****         LCD_WR_DATA(0x55);
1412:Drivers/LCD_FMC/src/tftLCD.c ****         LCD_WR_DATA(0x00);
1413:Drivers/LCD_FMC/src/tftLCD.c ****         LCD_WR_DATA(0x45);
1414:Drivers/LCD_FMC/src/tftLCD.c ****         LCD_WR_DATA(0x00);
1415:Drivers/LCD_FMC/src/tftLCD.c ****         LCD_WR_DATA(0x43);
1416:Drivers/LCD_FMC/src/tftLCD.c ****         LCD_WR_DATA(0x00);
1417:Drivers/LCD_FMC/src/tftLCD.c ****         LCD_WR_DATA(0x44);
1418:Drivers/LCD_FMC/src/tftLCD.c ****         LCD_WR_DATA(0x00);
1419:Drivers/LCD_FMC/src/tftLCD.c **** 
1420:Drivers/LCD_FMC/src/tftLCD.c ****         LCD_WR_REG(0xE7);
1421:Drivers/LCD_FMC/src/tftLCD.c ****         LCD_WR_DATA(0x32);
1422:Drivers/LCD_FMC/src/tftLCD.c ****         LCD_WR_DATA(0x00);
1423:Drivers/LCD_FMC/src/tftLCD.c ****         LCD_WR_DATA(0x55);
1424:Drivers/LCD_FMC/src/tftLCD.c ****         LCD_WR_DATA(0x00);
1425:Drivers/LCD_FMC/src/tftLCD.c ****         LCD_WR_DATA(0x76);
1426:Drivers/LCD_FMC/src/tftLCD.c ****         LCD_WR_DATA(0x00);
1427:Drivers/LCD_FMC/src/tftLCD.c ****         LCD_WR_DATA(0x66);
1428:Drivers/LCD_FMC/src/tftLCD.c ****         LCD_WR_DATA(0x00);
1429:Drivers/LCD_FMC/src/tftLCD.c ****         LCD_WR_DATA(0x67);
1430:Drivers/LCD_FMC/src/tftLCD.c ****         LCD_WR_DATA(0x00);
1431:Drivers/LCD_FMC/src/tftLCD.c ****         LCD_WR_DATA(0x67);
1432:Drivers/LCD_FMC/src/tftLCD.c ****         LCD_WR_DATA(0x00);
1433:Drivers/LCD_FMC/src/tftLCD.c ****         LCD_WR_DATA(0x87);
1434:Drivers/LCD_FMC/src/tftLCD.c ****         LCD_WR_DATA(0x00);
1435:Drivers/LCD_FMC/src/tftLCD.c ****         LCD_WR_DATA(0x99);
1436:Drivers/LCD_FMC/src/tftLCD.c ****         LCD_WR_DATA(0x00);
1437:Drivers/LCD_FMC/src/tftLCD.c ****         LCD_WR_DATA(0xBB);
1438:Drivers/LCD_FMC/src/tftLCD.c ****         LCD_WR_DATA(0x00);
1439:Drivers/LCD_FMC/src/tftLCD.c ****         LCD_WR_DATA(0x99);
1440:Drivers/LCD_FMC/src/tftLCD.c ****         LCD_WR_DATA(0x00);
1441:Drivers/LCD_FMC/src/tftLCD.c ****         LCD_WR_DATA(0x77);
1442:Drivers/LCD_FMC/src/tftLCD.c ****         LCD_WR_DATA(0x00);
1443:Drivers/LCD_FMC/src/tftLCD.c ****         LCD_WR_DATA(0x44);
1444:Drivers/LCD_FMC/src/tftLCD.c ****         LCD_WR_DATA(0x00);
1445:Drivers/LCD_FMC/src/tftLCD.c ****         LCD_WR_DATA(0x56);
1446:Drivers/LCD_FMC/src/tftLCD.c ****         LCD_WR_DATA(0x00);
1447:Drivers/LCD_FMC/src/tftLCD.c ****         LCD_WR_DATA(0x23);
1448:Drivers/LCD_FMC/src/tftLCD.c ****         LCD_WR_DATA(0x00);
1449:Drivers/LCD_FMC/src/tftLCD.c ****         LCD_WR_DATA(0x33);
1450:Drivers/LCD_FMC/src/tftLCD.c ****         LCD_WR_DATA(0x00);
1451:Drivers/LCD_FMC/src/tftLCD.c ****         LCD_WR_DATA(0x45);
1452:Drivers/LCD_FMC/src/tftLCD.c ****         LCD_WR_DATA(0x00);
1453:Drivers/LCD_FMC/src/tftLCD.c **** 
1454:Drivers/LCD_FMC/src/tftLCD.c ****         LCD_WR_REG(0xE8);
1455:Drivers/LCD_FMC/src/tftLCD.c ****         LCD_WR_DATA(0x00);
1456:Drivers/LCD_FMC/src/tftLCD.c ****         LCD_WR_DATA(0x00);
ARM GAS  C:\usertemp\ccUDQ5mr.s 			page 68


1457:Drivers/LCD_FMC/src/tftLCD.c ****         LCD_WR_DATA(0x99);
1458:Drivers/LCD_FMC/src/tftLCD.c ****         LCD_WR_DATA(0x00);
1459:Drivers/LCD_FMC/src/tftLCD.c ****         LCD_WR_DATA(0x87);
1460:Drivers/LCD_FMC/src/tftLCD.c ****         LCD_WR_DATA(0x00);
1461:Drivers/LCD_FMC/src/tftLCD.c ****         LCD_WR_DATA(0x88);
1462:Drivers/LCD_FMC/src/tftLCD.c ****         LCD_WR_DATA(0x00);
1463:Drivers/LCD_FMC/src/tftLCD.c ****         LCD_WR_DATA(0x77);
1464:Drivers/LCD_FMC/src/tftLCD.c ****         LCD_WR_DATA(0x00);
1465:Drivers/LCD_FMC/src/tftLCD.c ****         LCD_WR_DATA(0x66);
1466:Drivers/LCD_FMC/src/tftLCD.c ****         LCD_WR_DATA(0x00);
1467:Drivers/LCD_FMC/src/tftLCD.c ****         LCD_WR_DATA(0x88);
1468:Drivers/LCD_FMC/src/tftLCD.c ****         LCD_WR_DATA(0x00);
1469:Drivers/LCD_FMC/src/tftLCD.c ****         LCD_WR_DATA(0xAA);
1470:Drivers/LCD_FMC/src/tftLCD.c ****         LCD_WR_DATA(0x00);
1471:Drivers/LCD_FMC/src/tftLCD.c ****         LCD_WR_DATA(0xBB);
1472:Drivers/LCD_FMC/src/tftLCD.c ****         LCD_WR_DATA(0x00);
1473:Drivers/LCD_FMC/src/tftLCD.c ****         LCD_WR_DATA(0x99);
1474:Drivers/LCD_FMC/src/tftLCD.c ****         LCD_WR_DATA(0x00);
1475:Drivers/LCD_FMC/src/tftLCD.c ****         LCD_WR_DATA(0x66);
1476:Drivers/LCD_FMC/src/tftLCD.c ****         LCD_WR_DATA(0x00);
1477:Drivers/LCD_FMC/src/tftLCD.c ****         LCD_WR_DATA(0x55);
1478:Drivers/LCD_FMC/src/tftLCD.c ****         LCD_WR_DATA(0x00);
1479:Drivers/LCD_FMC/src/tftLCD.c ****         LCD_WR_DATA(0x55);
1480:Drivers/LCD_FMC/src/tftLCD.c ****         LCD_WR_DATA(0x00);
1481:Drivers/LCD_FMC/src/tftLCD.c ****         LCD_WR_DATA(0x44);
1482:Drivers/LCD_FMC/src/tftLCD.c ****         LCD_WR_DATA(0x00);
1483:Drivers/LCD_FMC/src/tftLCD.c ****         LCD_WR_DATA(0x44);
1484:Drivers/LCD_FMC/src/tftLCD.c ****         LCD_WR_DATA(0x00);
1485:Drivers/LCD_FMC/src/tftLCD.c ****         LCD_WR_DATA(0x55);
1486:Drivers/LCD_FMC/src/tftLCD.c ****         LCD_WR_DATA(0x00);
1487:Drivers/LCD_FMC/src/tftLCD.c **** 
1488:Drivers/LCD_FMC/src/tftLCD.c ****         LCD_WR_REG(0xE9);
1489:Drivers/LCD_FMC/src/tftLCD.c ****         LCD_WR_DATA(0xAA);
1490:Drivers/LCD_FMC/src/tftLCD.c ****         LCD_WR_DATA(0x00);
1491:Drivers/LCD_FMC/src/tftLCD.c ****         LCD_WR_DATA(0x00);
1492:Drivers/LCD_FMC/src/tftLCD.c ****         LCD_WR_DATA(0x00);
1493:Drivers/LCD_FMC/src/tftLCD.c **** 
1494:Drivers/LCD_FMC/src/tftLCD.c ****         LCD_WR_REG(0x00);
1495:Drivers/LCD_FMC/src/tftLCD.c ****         LCD_WR_DATA(0xAA);
1496:Drivers/LCD_FMC/src/tftLCD.c **** 
1497:Drivers/LCD_FMC/src/tftLCD.c ****         LCD_WR_REG(0xCF);
1498:Drivers/LCD_FMC/src/tftLCD.c ****         LCD_WR_DATA(0x00);
1499:Drivers/LCD_FMC/src/tftLCD.c ****         LCD_WR_DATA(0x00);
1500:Drivers/LCD_FMC/src/tftLCD.c ****         LCD_WR_DATA(0x00);
1501:Drivers/LCD_FMC/src/tftLCD.c ****         LCD_WR_DATA(0x00);
1502:Drivers/LCD_FMC/src/tftLCD.c ****         LCD_WR_DATA(0x00);
1503:Drivers/LCD_FMC/src/tftLCD.c ****         LCD_WR_DATA(0x00);
1504:Drivers/LCD_FMC/src/tftLCD.c ****         LCD_WR_DATA(0x00);
1505:Drivers/LCD_FMC/src/tftLCD.c ****         LCD_WR_DATA(0x00);
1506:Drivers/LCD_FMC/src/tftLCD.c ****         LCD_WR_DATA(0x00);
1507:Drivers/LCD_FMC/src/tftLCD.c ****         LCD_WR_DATA(0x00);
1508:Drivers/LCD_FMC/src/tftLCD.c ****         LCD_WR_DATA(0x00);
1509:Drivers/LCD_FMC/src/tftLCD.c ****         LCD_WR_DATA(0x00);
1510:Drivers/LCD_FMC/src/tftLCD.c ****         LCD_WR_DATA(0x00);
1511:Drivers/LCD_FMC/src/tftLCD.c ****         LCD_WR_DATA(0x00);
1512:Drivers/LCD_FMC/src/tftLCD.c ****         LCD_WR_DATA(0x00);
1513:Drivers/LCD_FMC/src/tftLCD.c ****         LCD_WR_DATA(0x00);
ARM GAS  C:\usertemp\ccUDQ5mr.s 			page 69


1514:Drivers/LCD_FMC/src/tftLCD.c ****         LCD_WR_DATA(0x00);
1515:Drivers/LCD_FMC/src/tftLCD.c **** 
1516:Drivers/LCD_FMC/src/tftLCD.c ****         LCD_WR_REG(0xF0);
1517:Drivers/LCD_FMC/src/tftLCD.c ****         LCD_WR_DATA(0x00);
1518:Drivers/LCD_FMC/src/tftLCD.c ****         LCD_WR_DATA(0x50);
1519:Drivers/LCD_FMC/src/tftLCD.c ****         LCD_WR_DATA(0x00);
1520:Drivers/LCD_FMC/src/tftLCD.c ****         LCD_WR_DATA(0x00);
1521:Drivers/LCD_FMC/src/tftLCD.c ****         LCD_WR_DATA(0x00);
1522:Drivers/LCD_FMC/src/tftLCD.c **** 
1523:Drivers/LCD_FMC/src/tftLCD.c ****         LCD_WR_REG(0xF3);
1524:Drivers/LCD_FMC/src/tftLCD.c ****         LCD_WR_DATA(0x00);
1525:Drivers/LCD_FMC/src/tftLCD.c **** 
1526:Drivers/LCD_FMC/src/tftLCD.c ****         LCD_WR_REG(0xF9);
1527:Drivers/LCD_FMC/src/tftLCD.c ****         LCD_WR_DATA(0x06);
1528:Drivers/LCD_FMC/src/tftLCD.c ****         LCD_WR_DATA(0x10);
1529:Drivers/LCD_FMC/src/tftLCD.c ****         LCD_WR_DATA(0x29);
1530:Drivers/LCD_FMC/src/tftLCD.c ****         LCD_WR_DATA(0x00);
1531:Drivers/LCD_FMC/src/tftLCD.c **** 
1532:Drivers/LCD_FMC/src/tftLCD.c ****         LCD_WR_REG(0x3A);
1533:Drivers/LCD_FMC/src/tftLCD.c ****         LCD_WR_DATA(0x55);	//66
1534:Drivers/LCD_FMC/src/tftLCD.c **** 
1535:Drivers/LCD_FMC/src/tftLCD.c ****         LCD_WR_REG(0x11);
1536:Drivers/LCD_FMC/src/tftLCD.c ****         HAL_Delay(100);
1537:Drivers/LCD_FMC/src/tftLCD.c ****         LCD_WR_REG(0x29);
1538:Drivers/LCD_FMC/src/tftLCD.c ****         LCD_WR_REG(0x35);
1539:Drivers/LCD_FMC/src/tftLCD.c ****         LCD_WR_DATA(0x00);
1540:Drivers/LCD_FMC/src/tftLCD.c **** 
1541:Drivers/LCD_FMC/src/tftLCD.c ****         LCD_WR_REG(0x51);
1542:Drivers/LCD_FMC/src/tftLCD.c ****         LCD_WR_DATA(0xFF);
1543:Drivers/LCD_FMC/src/tftLCD.c ****         LCD_WR_REG(0x53);
1544:Drivers/LCD_FMC/src/tftLCD.c ****         LCD_WR_DATA(0x2C);
1545:Drivers/LCD_FMC/src/tftLCD.c ****         LCD_WR_REG(0x55);
1546:Drivers/LCD_FMC/src/tftLCD.c ****         LCD_WR_DATA(0x82);
1547:Drivers/LCD_FMC/src/tftLCD.c ****         LCD_WR_REG(0x2c);
1548:Drivers/LCD_FMC/src/tftLCD.c ****     }
1549:Drivers/LCD_FMC/src/tftLCD.c ****     else if(lcddev.id==0x5510)
1550:Drivers/LCD_FMC/src/tftLCD.c ****     {
1551:Drivers/LCD_FMC/src/tftLCD.c ****         LCD_WriteReg(0xF000,0x55);
1552:Drivers/LCD_FMC/src/tftLCD.c ****         LCD_WriteReg(0xF001,0xAA);
1553:Drivers/LCD_FMC/src/tftLCD.c ****         LCD_WriteReg(0xF002,0x52);
1554:Drivers/LCD_FMC/src/tftLCD.c ****         LCD_WriteReg(0xF003,0x08);
1555:Drivers/LCD_FMC/src/tftLCD.c ****         LCD_WriteReg(0xF004,0x01);
1556:Drivers/LCD_FMC/src/tftLCD.c ****         //AVDD Set AVDD 5.2V
1557:Drivers/LCD_FMC/src/tftLCD.c ****         LCD_WriteReg(0xB000,0x0D);
1558:Drivers/LCD_FMC/src/tftLCD.c ****         LCD_WriteReg(0xB001,0x0D);
1559:Drivers/LCD_FMC/src/tftLCD.c ****         LCD_WriteReg(0xB002,0x0D);
1560:Drivers/LCD_FMC/src/tftLCD.c ****         //AVDD ratio
1561:Drivers/LCD_FMC/src/tftLCD.c ****         LCD_WriteReg(0xB600,0x34);
1562:Drivers/LCD_FMC/src/tftLCD.c ****         LCD_WriteReg(0xB601,0x34);
1563:Drivers/LCD_FMC/src/tftLCD.c ****         LCD_WriteReg(0xB602,0x34);
1564:Drivers/LCD_FMC/src/tftLCD.c ****         //AVEE -5.2V
1565:Drivers/LCD_FMC/src/tftLCD.c ****         LCD_WriteReg(0xB100,0x0D);
1566:Drivers/LCD_FMC/src/tftLCD.c ****         LCD_WriteReg(0xB101,0x0D);
1567:Drivers/LCD_FMC/src/tftLCD.c ****         LCD_WriteReg(0xB102,0x0D);
1568:Drivers/LCD_FMC/src/tftLCD.c ****         //AVEE ratio
1569:Drivers/LCD_FMC/src/tftLCD.c ****         LCD_WriteReg(0xB700,0x34);
1570:Drivers/LCD_FMC/src/tftLCD.c ****         LCD_WriteReg(0xB701,0x34);
ARM GAS  C:\usertemp\ccUDQ5mr.s 			page 70


1571:Drivers/LCD_FMC/src/tftLCD.c ****         LCD_WriteReg(0xB702,0x34);
1572:Drivers/LCD_FMC/src/tftLCD.c ****         //VCL -2.5V
1573:Drivers/LCD_FMC/src/tftLCD.c ****         LCD_WriteReg(0xB200,0x00);
1574:Drivers/LCD_FMC/src/tftLCD.c ****         LCD_WriteReg(0xB201,0x00);
1575:Drivers/LCD_FMC/src/tftLCD.c ****         LCD_WriteReg(0xB202,0x00);
1576:Drivers/LCD_FMC/src/tftLCD.c ****         //VCL ratio
1577:Drivers/LCD_FMC/src/tftLCD.c ****         LCD_WriteReg(0xB800,0x24);
1578:Drivers/LCD_FMC/src/tftLCD.c ****         LCD_WriteReg(0xB801,0x24);
1579:Drivers/LCD_FMC/src/tftLCD.c ****         LCD_WriteReg(0xB802,0x24);
1580:Drivers/LCD_FMC/src/tftLCD.c ****         //VGH 15V (Free pump)
1581:Drivers/LCD_FMC/src/tftLCD.c ****         LCD_WriteReg(0xBF00,0x01);
1582:Drivers/LCD_FMC/src/tftLCD.c ****         LCD_WriteReg(0xB300,0x0F);
1583:Drivers/LCD_FMC/src/tftLCD.c ****         LCD_WriteReg(0xB301,0x0F);
1584:Drivers/LCD_FMC/src/tftLCD.c ****         LCD_WriteReg(0xB302,0x0F);
1585:Drivers/LCD_FMC/src/tftLCD.c ****         //VGH ratio
1586:Drivers/LCD_FMC/src/tftLCD.c ****         LCD_WriteReg(0xB900,0x34);
1587:Drivers/LCD_FMC/src/tftLCD.c ****         LCD_WriteReg(0xB901,0x34);
1588:Drivers/LCD_FMC/src/tftLCD.c ****         LCD_WriteReg(0xB902,0x34);
1589:Drivers/LCD_FMC/src/tftLCD.c ****         //VGL_REG -10V
1590:Drivers/LCD_FMC/src/tftLCD.c ****         LCD_WriteReg(0xB500,0x08);
1591:Drivers/LCD_FMC/src/tftLCD.c ****         LCD_WriteReg(0xB501,0x08);
1592:Drivers/LCD_FMC/src/tftLCD.c ****         LCD_WriteReg(0xB502,0x08);
1593:Drivers/LCD_FMC/src/tftLCD.c ****         LCD_WriteReg(0xC200,0x03);
1594:Drivers/LCD_FMC/src/tftLCD.c ****         //VGLX ratio
1595:Drivers/LCD_FMC/src/tftLCD.c ****         LCD_WriteReg(0xBA00,0x24);
1596:Drivers/LCD_FMC/src/tftLCD.c ****         LCD_WriteReg(0xBA01,0x24);
1597:Drivers/LCD_FMC/src/tftLCD.c ****         LCD_WriteReg(0xBA02,0x24);
1598:Drivers/LCD_FMC/src/tftLCD.c ****         //VGMP/VGSP 4.5V/0V
1599:Drivers/LCD_FMC/src/tftLCD.c ****         LCD_WriteReg(0xBC00,0x00);
1600:Drivers/LCD_FMC/src/tftLCD.c ****         LCD_WriteReg(0xBC01,0x78);
1601:Drivers/LCD_FMC/src/tftLCD.c ****         LCD_WriteReg(0xBC02,0x00);
1602:Drivers/LCD_FMC/src/tftLCD.c ****         //VGMN/VGSN -4.5V/0V
1603:Drivers/LCD_FMC/src/tftLCD.c ****         LCD_WriteReg(0xBD00,0x00);
1604:Drivers/LCD_FMC/src/tftLCD.c ****         LCD_WriteReg(0xBD01,0x78);
1605:Drivers/LCD_FMC/src/tftLCD.c ****         LCD_WriteReg(0xBD02,0x00);
1606:Drivers/LCD_FMC/src/tftLCD.c ****         //VCOM
1607:Drivers/LCD_FMC/src/tftLCD.c ****         LCD_WriteReg(0xBE00,0x00);
1608:Drivers/LCD_FMC/src/tftLCD.c ****         LCD_WriteReg(0xBE01,0x64);
1609:Drivers/LCD_FMC/src/tftLCD.c ****         //Gamma Setting
1610:Drivers/LCD_FMC/src/tftLCD.c ****         LCD_WriteReg(0xD100,0x00);
1611:Drivers/LCD_FMC/src/tftLCD.c ****         LCD_WriteReg(0xD101,0x33);
1612:Drivers/LCD_FMC/src/tftLCD.c ****         LCD_WriteReg(0xD102,0x00);
1613:Drivers/LCD_FMC/src/tftLCD.c ****         LCD_WriteReg(0xD103,0x34);
1614:Drivers/LCD_FMC/src/tftLCD.c ****         LCD_WriteReg(0xD104,0x00);
1615:Drivers/LCD_FMC/src/tftLCD.c ****         LCD_WriteReg(0xD105,0x3A);
1616:Drivers/LCD_FMC/src/tftLCD.c ****         LCD_WriteReg(0xD106,0x00);
1617:Drivers/LCD_FMC/src/tftLCD.c ****         LCD_WriteReg(0xD107,0x4A);
1618:Drivers/LCD_FMC/src/tftLCD.c ****         LCD_WriteReg(0xD108,0x00);
1619:Drivers/LCD_FMC/src/tftLCD.c ****         LCD_WriteReg(0xD109,0x5C);
1620:Drivers/LCD_FMC/src/tftLCD.c ****         LCD_WriteReg(0xD10A,0x00);
1621:Drivers/LCD_FMC/src/tftLCD.c ****         LCD_WriteReg(0xD10B,0x81);
1622:Drivers/LCD_FMC/src/tftLCD.c ****         LCD_WriteReg(0xD10C,0x00);
1623:Drivers/LCD_FMC/src/tftLCD.c ****         LCD_WriteReg(0xD10D,0xA6);
1624:Drivers/LCD_FMC/src/tftLCD.c ****         LCD_WriteReg(0xD10E,0x00);
1625:Drivers/LCD_FMC/src/tftLCD.c ****         LCD_WriteReg(0xD10F,0xE5);
1626:Drivers/LCD_FMC/src/tftLCD.c ****         LCD_WriteReg(0xD110,0x01);
1627:Drivers/LCD_FMC/src/tftLCD.c ****         LCD_WriteReg(0xD111,0x13);
ARM GAS  C:\usertemp\ccUDQ5mr.s 			page 71


1628:Drivers/LCD_FMC/src/tftLCD.c ****         LCD_WriteReg(0xD112,0x01);
1629:Drivers/LCD_FMC/src/tftLCD.c ****         LCD_WriteReg(0xD113,0x54);
1630:Drivers/LCD_FMC/src/tftLCD.c ****         LCD_WriteReg(0xD114,0x01);
1631:Drivers/LCD_FMC/src/tftLCD.c ****         LCD_WriteReg(0xD115,0x82);
1632:Drivers/LCD_FMC/src/tftLCD.c ****         LCD_WriteReg(0xD116,0x01);
1633:Drivers/LCD_FMC/src/tftLCD.c ****         LCD_WriteReg(0xD117,0xCA);
1634:Drivers/LCD_FMC/src/tftLCD.c ****         LCD_WriteReg(0xD118,0x02);
1635:Drivers/LCD_FMC/src/tftLCD.c ****         LCD_WriteReg(0xD119,0x00);
1636:Drivers/LCD_FMC/src/tftLCD.c ****         LCD_WriteReg(0xD11A,0x02);
1637:Drivers/LCD_FMC/src/tftLCD.c ****         LCD_WriteReg(0xD11B,0x01);
1638:Drivers/LCD_FMC/src/tftLCD.c ****         LCD_WriteReg(0xD11C,0x02);
1639:Drivers/LCD_FMC/src/tftLCD.c ****         LCD_WriteReg(0xD11D,0x34);
1640:Drivers/LCD_FMC/src/tftLCD.c ****         LCD_WriteReg(0xD11E,0x02);
1641:Drivers/LCD_FMC/src/tftLCD.c ****         LCD_WriteReg(0xD11F,0x67);
1642:Drivers/LCD_FMC/src/tftLCD.c ****         LCD_WriteReg(0xD120,0x02);
1643:Drivers/LCD_FMC/src/tftLCD.c ****         LCD_WriteReg(0xD121,0x84);
1644:Drivers/LCD_FMC/src/tftLCD.c ****         LCD_WriteReg(0xD122,0x02);
1645:Drivers/LCD_FMC/src/tftLCD.c ****         LCD_WriteReg(0xD123,0xA4);
1646:Drivers/LCD_FMC/src/tftLCD.c ****         LCD_WriteReg(0xD124,0x02);
1647:Drivers/LCD_FMC/src/tftLCD.c ****         LCD_WriteReg(0xD125,0xB7);
1648:Drivers/LCD_FMC/src/tftLCD.c ****         LCD_WriteReg(0xD126,0x02);
1649:Drivers/LCD_FMC/src/tftLCD.c ****         LCD_WriteReg(0xD127,0xCF);
1650:Drivers/LCD_FMC/src/tftLCD.c ****         LCD_WriteReg(0xD128,0x02);
1651:Drivers/LCD_FMC/src/tftLCD.c ****         LCD_WriteReg(0xD129,0xDE);
1652:Drivers/LCD_FMC/src/tftLCD.c ****         LCD_WriteReg(0xD12A,0x02);
1653:Drivers/LCD_FMC/src/tftLCD.c ****         LCD_WriteReg(0xD12B,0xF2);
1654:Drivers/LCD_FMC/src/tftLCD.c ****         LCD_WriteReg(0xD12C,0x02);
1655:Drivers/LCD_FMC/src/tftLCD.c ****         LCD_WriteReg(0xD12D,0xFE);
1656:Drivers/LCD_FMC/src/tftLCD.c ****         LCD_WriteReg(0xD12E,0x03);
1657:Drivers/LCD_FMC/src/tftLCD.c ****         LCD_WriteReg(0xD12F,0x10);
1658:Drivers/LCD_FMC/src/tftLCD.c ****         LCD_WriteReg(0xD130,0x03);
1659:Drivers/LCD_FMC/src/tftLCD.c ****         LCD_WriteReg(0xD131,0x33);
1660:Drivers/LCD_FMC/src/tftLCD.c ****         LCD_WriteReg(0xD132,0x03);
1661:Drivers/LCD_FMC/src/tftLCD.c ****         LCD_WriteReg(0xD133,0x6D);
1662:Drivers/LCD_FMC/src/tftLCD.c ****         LCD_WriteReg(0xD200,0x00);
1663:Drivers/LCD_FMC/src/tftLCD.c ****         LCD_WriteReg(0xD201,0x33);
1664:Drivers/LCD_FMC/src/tftLCD.c ****         LCD_WriteReg(0xD202,0x00);
1665:Drivers/LCD_FMC/src/tftLCD.c ****         LCD_WriteReg(0xD203,0x34);
1666:Drivers/LCD_FMC/src/tftLCD.c ****         LCD_WriteReg(0xD204,0x00);
1667:Drivers/LCD_FMC/src/tftLCD.c ****         LCD_WriteReg(0xD205,0x3A);
1668:Drivers/LCD_FMC/src/tftLCD.c ****         LCD_WriteReg(0xD206,0x00);
1669:Drivers/LCD_FMC/src/tftLCD.c ****         LCD_WriteReg(0xD207,0x4A);
1670:Drivers/LCD_FMC/src/tftLCD.c ****         LCD_WriteReg(0xD208,0x00);
1671:Drivers/LCD_FMC/src/tftLCD.c ****         LCD_WriteReg(0xD209,0x5C);
1672:Drivers/LCD_FMC/src/tftLCD.c ****         LCD_WriteReg(0xD20A,0x00);
1673:Drivers/LCD_FMC/src/tftLCD.c **** 
1674:Drivers/LCD_FMC/src/tftLCD.c ****         LCD_WriteReg(0xD20B,0x81);
1675:Drivers/LCD_FMC/src/tftLCD.c ****         LCD_WriteReg(0xD20C,0x00);
1676:Drivers/LCD_FMC/src/tftLCD.c ****         LCD_WriteReg(0xD20D,0xA6);
1677:Drivers/LCD_FMC/src/tftLCD.c ****         LCD_WriteReg(0xD20E,0x00);
1678:Drivers/LCD_FMC/src/tftLCD.c ****         LCD_WriteReg(0xD20F,0xE5);
1679:Drivers/LCD_FMC/src/tftLCD.c ****         LCD_WriteReg(0xD210,0x01);
1680:Drivers/LCD_FMC/src/tftLCD.c ****         LCD_WriteReg(0xD211,0x13);
1681:Drivers/LCD_FMC/src/tftLCD.c ****         LCD_WriteReg(0xD212,0x01);
1682:Drivers/LCD_FMC/src/tftLCD.c ****         LCD_WriteReg(0xD213,0x54);
1683:Drivers/LCD_FMC/src/tftLCD.c ****         LCD_WriteReg(0xD214,0x01);
1684:Drivers/LCD_FMC/src/tftLCD.c ****         LCD_WriteReg(0xD215,0x82);
ARM GAS  C:\usertemp\ccUDQ5mr.s 			page 72


1685:Drivers/LCD_FMC/src/tftLCD.c ****         LCD_WriteReg(0xD216,0x01);
1686:Drivers/LCD_FMC/src/tftLCD.c ****         LCD_WriteReg(0xD217,0xCA);
1687:Drivers/LCD_FMC/src/tftLCD.c ****         LCD_WriteReg(0xD218,0x02);
1688:Drivers/LCD_FMC/src/tftLCD.c ****         LCD_WriteReg(0xD219,0x00);
1689:Drivers/LCD_FMC/src/tftLCD.c ****         LCD_WriteReg(0xD21A,0x02);
1690:Drivers/LCD_FMC/src/tftLCD.c ****         LCD_WriteReg(0xD21B,0x01);
1691:Drivers/LCD_FMC/src/tftLCD.c ****         LCD_WriteReg(0xD21C,0x02);
1692:Drivers/LCD_FMC/src/tftLCD.c ****         LCD_WriteReg(0xD21D,0x34);
1693:Drivers/LCD_FMC/src/tftLCD.c ****         LCD_WriteReg(0xD21E,0x02);
1694:Drivers/LCD_FMC/src/tftLCD.c ****         LCD_WriteReg(0xD21F,0x67);
1695:Drivers/LCD_FMC/src/tftLCD.c ****         LCD_WriteReg(0xD220,0x02);
1696:Drivers/LCD_FMC/src/tftLCD.c ****         LCD_WriteReg(0xD221,0x84);
1697:Drivers/LCD_FMC/src/tftLCD.c ****         LCD_WriteReg(0xD222,0x02);
1698:Drivers/LCD_FMC/src/tftLCD.c ****         LCD_WriteReg(0xD223,0xA4);
1699:Drivers/LCD_FMC/src/tftLCD.c ****         LCD_WriteReg(0xD224,0x02);
1700:Drivers/LCD_FMC/src/tftLCD.c ****         LCD_WriteReg(0xD225,0xB7);
1701:Drivers/LCD_FMC/src/tftLCD.c ****         LCD_WriteReg(0xD226,0x02);
1702:Drivers/LCD_FMC/src/tftLCD.c ****         LCD_WriteReg(0xD227,0xCF);
1703:Drivers/LCD_FMC/src/tftLCD.c ****         LCD_WriteReg(0xD228,0x02);
1704:Drivers/LCD_FMC/src/tftLCD.c ****         LCD_WriteReg(0xD229,0xDE);
1705:Drivers/LCD_FMC/src/tftLCD.c ****         LCD_WriteReg(0xD22A,0x02);
1706:Drivers/LCD_FMC/src/tftLCD.c ****         LCD_WriteReg(0xD22B,0xF2);
1707:Drivers/LCD_FMC/src/tftLCD.c ****         LCD_WriteReg(0xD22C,0x02);
1708:Drivers/LCD_FMC/src/tftLCD.c ****         LCD_WriteReg(0xD22D,0xFE);
1709:Drivers/LCD_FMC/src/tftLCD.c ****         LCD_WriteReg(0xD22E,0x03);
1710:Drivers/LCD_FMC/src/tftLCD.c ****         LCD_WriteReg(0xD22F,0x10);
1711:Drivers/LCD_FMC/src/tftLCD.c ****         LCD_WriteReg(0xD230,0x03);
1712:Drivers/LCD_FMC/src/tftLCD.c ****         LCD_WriteReg(0xD231,0x33);
1713:Drivers/LCD_FMC/src/tftLCD.c ****         LCD_WriteReg(0xD232,0x03);
1714:Drivers/LCD_FMC/src/tftLCD.c ****         LCD_WriteReg(0xD233,0x6D);
1715:Drivers/LCD_FMC/src/tftLCD.c ****         LCD_WriteReg(0xD300,0x00);
1716:Drivers/LCD_FMC/src/tftLCD.c ****         LCD_WriteReg(0xD301,0x33);
1717:Drivers/LCD_FMC/src/tftLCD.c ****         LCD_WriteReg(0xD302,0x00);
1718:Drivers/LCD_FMC/src/tftLCD.c ****         LCD_WriteReg(0xD303,0x34);
1719:Drivers/LCD_FMC/src/tftLCD.c ****         LCD_WriteReg(0xD304,0x00);
1720:Drivers/LCD_FMC/src/tftLCD.c ****         LCD_WriteReg(0xD305,0x3A);
1721:Drivers/LCD_FMC/src/tftLCD.c ****         LCD_WriteReg(0xD306,0x00);
1722:Drivers/LCD_FMC/src/tftLCD.c ****         LCD_WriteReg(0xD307,0x4A);
1723:Drivers/LCD_FMC/src/tftLCD.c ****         LCD_WriteReg(0xD308,0x00);
1724:Drivers/LCD_FMC/src/tftLCD.c ****         LCD_WriteReg(0xD309,0x5C);
1725:Drivers/LCD_FMC/src/tftLCD.c ****         LCD_WriteReg(0xD30A,0x00);
1726:Drivers/LCD_FMC/src/tftLCD.c **** 
1727:Drivers/LCD_FMC/src/tftLCD.c ****         LCD_WriteReg(0xD30B,0x81);
1728:Drivers/LCD_FMC/src/tftLCD.c ****         LCD_WriteReg(0xD30C,0x00);
1729:Drivers/LCD_FMC/src/tftLCD.c ****         LCD_WriteReg(0xD30D,0xA6);
1730:Drivers/LCD_FMC/src/tftLCD.c ****         LCD_WriteReg(0xD30E,0x00);
1731:Drivers/LCD_FMC/src/tftLCD.c ****         LCD_WriteReg(0xD30F,0xE5);
1732:Drivers/LCD_FMC/src/tftLCD.c ****         LCD_WriteReg(0xD310,0x01);
1733:Drivers/LCD_FMC/src/tftLCD.c ****         LCD_WriteReg(0xD311,0x13);
1734:Drivers/LCD_FMC/src/tftLCD.c ****         LCD_WriteReg(0xD312,0x01);
1735:Drivers/LCD_FMC/src/tftLCD.c ****         LCD_WriteReg(0xD313,0x54);
1736:Drivers/LCD_FMC/src/tftLCD.c ****         LCD_WriteReg(0xD314,0x01);
1737:Drivers/LCD_FMC/src/tftLCD.c ****         LCD_WriteReg(0xD315,0x82);
1738:Drivers/LCD_FMC/src/tftLCD.c ****         LCD_WriteReg(0xD316,0x01);
1739:Drivers/LCD_FMC/src/tftLCD.c ****         LCD_WriteReg(0xD317,0xCA);
1740:Drivers/LCD_FMC/src/tftLCD.c ****         LCD_WriteReg(0xD318,0x02);
1741:Drivers/LCD_FMC/src/tftLCD.c ****         LCD_WriteReg(0xD319,0x00);
ARM GAS  C:\usertemp\ccUDQ5mr.s 			page 73


1742:Drivers/LCD_FMC/src/tftLCD.c ****         LCD_WriteReg(0xD31A,0x02);
1743:Drivers/LCD_FMC/src/tftLCD.c ****         LCD_WriteReg(0xD31B,0x01);
1744:Drivers/LCD_FMC/src/tftLCD.c ****         LCD_WriteReg(0xD31C,0x02);
1745:Drivers/LCD_FMC/src/tftLCD.c ****         LCD_WriteReg(0xD31D,0x34);
1746:Drivers/LCD_FMC/src/tftLCD.c ****         LCD_WriteReg(0xD31E,0x02);
1747:Drivers/LCD_FMC/src/tftLCD.c ****         LCD_WriteReg(0xD31F,0x67);
1748:Drivers/LCD_FMC/src/tftLCD.c ****         LCD_WriteReg(0xD320,0x02);
1749:Drivers/LCD_FMC/src/tftLCD.c ****         LCD_WriteReg(0xD321,0x84);
1750:Drivers/LCD_FMC/src/tftLCD.c ****         LCD_WriteReg(0xD322,0x02);
1751:Drivers/LCD_FMC/src/tftLCD.c ****         LCD_WriteReg(0xD323,0xA4);
1752:Drivers/LCD_FMC/src/tftLCD.c ****         LCD_WriteReg(0xD324,0x02);
1753:Drivers/LCD_FMC/src/tftLCD.c ****         LCD_WriteReg(0xD325,0xB7);
1754:Drivers/LCD_FMC/src/tftLCD.c ****         LCD_WriteReg(0xD326,0x02);
1755:Drivers/LCD_FMC/src/tftLCD.c ****         LCD_WriteReg(0xD327,0xCF);
1756:Drivers/LCD_FMC/src/tftLCD.c ****         LCD_WriteReg(0xD328,0x02);
1757:Drivers/LCD_FMC/src/tftLCD.c ****         LCD_WriteReg(0xD329,0xDE);
1758:Drivers/LCD_FMC/src/tftLCD.c ****         LCD_WriteReg(0xD32A,0x02);
1759:Drivers/LCD_FMC/src/tftLCD.c ****         LCD_WriteReg(0xD32B,0xF2);
1760:Drivers/LCD_FMC/src/tftLCD.c ****         LCD_WriteReg(0xD32C,0x02);
1761:Drivers/LCD_FMC/src/tftLCD.c ****         LCD_WriteReg(0xD32D,0xFE);
1762:Drivers/LCD_FMC/src/tftLCD.c ****         LCD_WriteReg(0xD32E,0x03);
1763:Drivers/LCD_FMC/src/tftLCD.c ****         LCD_WriteReg(0xD32F,0x10);
1764:Drivers/LCD_FMC/src/tftLCD.c ****         LCD_WriteReg(0xD330,0x03);
1765:Drivers/LCD_FMC/src/tftLCD.c ****         LCD_WriteReg(0xD331,0x33);
1766:Drivers/LCD_FMC/src/tftLCD.c ****         LCD_WriteReg(0xD332,0x03);
1767:Drivers/LCD_FMC/src/tftLCD.c ****         LCD_WriteReg(0xD333,0x6D);
1768:Drivers/LCD_FMC/src/tftLCD.c ****         LCD_WriteReg(0xD400,0x00);
1769:Drivers/LCD_FMC/src/tftLCD.c ****         LCD_WriteReg(0xD401,0x33);
1770:Drivers/LCD_FMC/src/tftLCD.c ****         LCD_WriteReg(0xD402,0x00);
1771:Drivers/LCD_FMC/src/tftLCD.c ****         LCD_WriteReg(0xD403,0x34);
1772:Drivers/LCD_FMC/src/tftLCD.c ****         LCD_WriteReg(0xD404,0x00);
1773:Drivers/LCD_FMC/src/tftLCD.c ****         LCD_WriteReg(0xD405,0x3A);
1774:Drivers/LCD_FMC/src/tftLCD.c ****         LCD_WriteReg(0xD406,0x00);
1775:Drivers/LCD_FMC/src/tftLCD.c ****         LCD_WriteReg(0xD407,0x4A);
1776:Drivers/LCD_FMC/src/tftLCD.c ****         LCD_WriteReg(0xD408,0x00);
1777:Drivers/LCD_FMC/src/tftLCD.c ****         LCD_WriteReg(0xD409,0x5C);
1778:Drivers/LCD_FMC/src/tftLCD.c ****         LCD_WriteReg(0xD40A,0x00);
1779:Drivers/LCD_FMC/src/tftLCD.c ****         LCD_WriteReg(0xD40B,0x81);
1780:Drivers/LCD_FMC/src/tftLCD.c **** 
1781:Drivers/LCD_FMC/src/tftLCD.c ****         LCD_WriteReg(0xD40C,0x00);
1782:Drivers/LCD_FMC/src/tftLCD.c ****         LCD_WriteReg(0xD40D,0xA6);
1783:Drivers/LCD_FMC/src/tftLCD.c ****         LCD_WriteReg(0xD40E,0x00);
1784:Drivers/LCD_FMC/src/tftLCD.c ****         LCD_WriteReg(0xD40F,0xE5);
1785:Drivers/LCD_FMC/src/tftLCD.c ****         LCD_WriteReg(0xD410,0x01);
1786:Drivers/LCD_FMC/src/tftLCD.c ****         LCD_WriteReg(0xD411,0x13);
1787:Drivers/LCD_FMC/src/tftLCD.c ****         LCD_WriteReg(0xD412,0x01);
1788:Drivers/LCD_FMC/src/tftLCD.c ****         LCD_WriteReg(0xD413,0x54);
1789:Drivers/LCD_FMC/src/tftLCD.c ****         LCD_WriteReg(0xD414,0x01);
1790:Drivers/LCD_FMC/src/tftLCD.c ****         LCD_WriteReg(0xD415,0x82);
1791:Drivers/LCD_FMC/src/tftLCD.c ****         LCD_WriteReg(0xD416,0x01);
1792:Drivers/LCD_FMC/src/tftLCD.c ****         LCD_WriteReg(0xD417,0xCA);
1793:Drivers/LCD_FMC/src/tftLCD.c ****         LCD_WriteReg(0xD418,0x02);
1794:Drivers/LCD_FMC/src/tftLCD.c ****         LCD_WriteReg(0xD419,0x00);
1795:Drivers/LCD_FMC/src/tftLCD.c ****         LCD_WriteReg(0xD41A,0x02);
1796:Drivers/LCD_FMC/src/tftLCD.c ****         LCD_WriteReg(0xD41B,0x01);
1797:Drivers/LCD_FMC/src/tftLCD.c ****         LCD_WriteReg(0xD41C,0x02);
1798:Drivers/LCD_FMC/src/tftLCD.c ****         LCD_WriteReg(0xD41D,0x34);
ARM GAS  C:\usertemp\ccUDQ5mr.s 			page 74


1799:Drivers/LCD_FMC/src/tftLCD.c ****         LCD_WriteReg(0xD41E,0x02);
1800:Drivers/LCD_FMC/src/tftLCD.c ****         LCD_WriteReg(0xD41F,0x67);
1801:Drivers/LCD_FMC/src/tftLCD.c ****         LCD_WriteReg(0xD420,0x02);
1802:Drivers/LCD_FMC/src/tftLCD.c ****         LCD_WriteReg(0xD421,0x84);
1803:Drivers/LCD_FMC/src/tftLCD.c ****         LCD_WriteReg(0xD422,0x02);
1804:Drivers/LCD_FMC/src/tftLCD.c ****         LCD_WriteReg(0xD423,0xA4);
1805:Drivers/LCD_FMC/src/tftLCD.c ****         LCD_WriteReg(0xD424,0x02);
1806:Drivers/LCD_FMC/src/tftLCD.c ****         LCD_WriteReg(0xD425,0xB7);
1807:Drivers/LCD_FMC/src/tftLCD.c ****         LCD_WriteReg(0xD426,0x02);
1808:Drivers/LCD_FMC/src/tftLCD.c ****         LCD_WriteReg(0xD427,0xCF);
1809:Drivers/LCD_FMC/src/tftLCD.c ****         LCD_WriteReg(0xD428,0x02);
1810:Drivers/LCD_FMC/src/tftLCD.c ****         LCD_WriteReg(0xD429,0xDE);
1811:Drivers/LCD_FMC/src/tftLCD.c ****         LCD_WriteReg(0xD42A,0x02);
1812:Drivers/LCD_FMC/src/tftLCD.c ****         LCD_WriteReg(0xD42B,0xF2);
1813:Drivers/LCD_FMC/src/tftLCD.c ****         LCD_WriteReg(0xD42C,0x02);
1814:Drivers/LCD_FMC/src/tftLCD.c ****         LCD_WriteReg(0xD42D,0xFE);
1815:Drivers/LCD_FMC/src/tftLCD.c ****         LCD_WriteReg(0xD42E,0x03);
1816:Drivers/LCD_FMC/src/tftLCD.c ****         LCD_WriteReg(0xD42F,0x10);
1817:Drivers/LCD_FMC/src/tftLCD.c ****         LCD_WriteReg(0xD430,0x03);
1818:Drivers/LCD_FMC/src/tftLCD.c ****         LCD_WriteReg(0xD431,0x33);
1819:Drivers/LCD_FMC/src/tftLCD.c ****         LCD_WriteReg(0xD432,0x03);
1820:Drivers/LCD_FMC/src/tftLCD.c ****         LCD_WriteReg(0xD433,0x6D);
1821:Drivers/LCD_FMC/src/tftLCD.c ****         LCD_WriteReg(0xD500,0x00);
1822:Drivers/LCD_FMC/src/tftLCD.c ****         LCD_WriteReg(0xD501,0x33);
1823:Drivers/LCD_FMC/src/tftLCD.c ****         LCD_WriteReg(0xD502,0x00);
1824:Drivers/LCD_FMC/src/tftLCD.c ****         LCD_WriteReg(0xD503,0x34);
1825:Drivers/LCD_FMC/src/tftLCD.c ****         LCD_WriteReg(0xD504,0x00);
1826:Drivers/LCD_FMC/src/tftLCD.c ****         LCD_WriteReg(0xD505,0x3A);
1827:Drivers/LCD_FMC/src/tftLCD.c ****         LCD_WriteReg(0xD506,0x00);
1828:Drivers/LCD_FMC/src/tftLCD.c ****         LCD_WriteReg(0xD507,0x4A);
1829:Drivers/LCD_FMC/src/tftLCD.c ****         LCD_WriteReg(0xD508,0x00);
1830:Drivers/LCD_FMC/src/tftLCD.c ****         LCD_WriteReg(0xD509,0x5C);
1831:Drivers/LCD_FMC/src/tftLCD.c ****         LCD_WriteReg(0xD50A,0x00);
1832:Drivers/LCD_FMC/src/tftLCD.c ****         LCD_WriteReg(0xD50B,0x81);
1833:Drivers/LCD_FMC/src/tftLCD.c **** 
1834:Drivers/LCD_FMC/src/tftLCD.c ****         LCD_WriteReg(0xD50C,0x00);
1835:Drivers/LCD_FMC/src/tftLCD.c ****         LCD_WriteReg(0xD50D,0xA6);
1836:Drivers/LCD_FMC/src/tftLCD.c ****         LCD_WriteReg(0xD50E,0x00);
1837:Drivers/LCD_FMC/src/tftLCD.c ****         LCD_WriteReg(0xD50F,0xE5);
1838:Drivers/LCD_FMC/src/tftLCD.c ****         LCD_WriteReg(0xD510,0x01);
1839:Drivers/LCD_FMC/src/tftLCD.c ****         LCD_WriteReg(0xD511,0x13);
1840:Drivers/LCD_FMC/src/tftLCD.c ****         LCD_WriteReg(0xD512,0x01);
1841:Drivers/LCD_FMC/src/tftLCD.c ****         LCD_WriteReg(0xD513,0x54);
1842:Drivers/LCD_FMC/src/tftLCD.c ****         LCD_WriteReg(0xD514,0x01);
1843:Drivers/LCD_FMC/src/tftLCD.c ****         LCD_WriteReg(0xD515,0x82);
1844:Drivers/LCD_FMC/src/tftLCD.c ****         LCD_WriteReg(0xD516,0x01);
1845:Drivers/LCD_FMC/src/tftLCD.c ****         LCD_WriteReg(0xD517,0xCA);
1846:Drivers/LCD_FMC/src/tftLCD.c ****         LCD_WriteReg(0xD518,0x02);
1847:Drivers/LCD_FMC/src/tftLCD.c ****         LCD_WriteReg(0xD519,0x00);
1848:Drivers/LCD_FMC/src/tftLCD.c ****         LCD_WriteReg(0xD51A,0x02);
1849:Drivers/LCD_FMC/src/tftLCD.c ****         LCD_WriteReg(0xD51B,0x01);
1850:Drivers/LCD_FMC/src/tftLCD.c ****         LCD_WriteReg(0xD51C,0x02);
1851:Drivers/LCD_FMC/src/tftLCD.c ****         LCD_WriteReg(0xD51D,0x34);
1852:Drivers/LCD_FMC/src/tftLCD.c ****         LCD_WriteReg(0xD51E,0x02);
1853:Drivers/LCD_FMC/src/tftLCD.c ****         LCD_WriteReg(0xD51F,0x67);
1854:Drivers/LCD_FMC/src/tftLCD.c ****         LCD_WriteReg(0xD520,0x02);
1855:Drivers/LCD_FMC/src/tftLCD.c ****         LCD_WriteReg(0xD521,0x84);
ARM GAS  C:\usertemp\ccUDQ5mr.s 			page 75


1856:Drivers/LCD_FMC/src/tftLCD.c ****         LCD_WriteReg(0xD522,0x02);
1857:Drivers/LCD_FMC/src/tftLCD.c ****         LCD_WriteReg(0xD523,0xA4);
1858:Drivers/LCD_FMC/src/tftLCD.c ****         LCD_WriteReg(0xD524,0x02);
1859:Drivers/LCD_FMC/src/tftLCD.c ****         LCD_WriteReg(0xD525,0xB7);
1860:Drivers/LCD_FMC/src/tftLCD.c ****         LCD_WriteReg(0xD526,0x02);
1861:Drivers/LCD_FMC/src/tftLCD.c ****         LCD_WriteReg(0xD527,0xCF);
1862:Drivers/LCD_FMC/src/tftLCD.c ****         LCD_WriteReg(0xD528,0x02);
1863:Drivers/LCD_FMC/src/tftLCD.c ****         LCD_WriteReg(0xD529,0xDE);
1864:Drivers/LCD_FMC/src/tftLCD.c ****         LCD_WriteReg(0xD52A,0x02);
1865:Drivers/LCD_FMC/src/tftLCD.c ****         LCD_WriteReg(0xD52B,0xF2);
1866:Drivers/LCD_FMC/src/tftLCD.c ****         LCD_WriteReg(0xD52C,0x02);
1867:Drivers/LCD_FMC/src/tftLCD.c ****         LCD_WriteReg(0xD52D,0xFE);
1868:Drivers/LCD_FMC/src/tftLCD.c ****         LCD_WriteReg(0xD52E,0x03);
1869:Drivers/LCD_FMC/src/tftLCD.c ****         LCD_WriteReg(0xD52F,0x10);
1870:Drivers/LCD_FMC/src/tftLCD.c ****         LCD_WriteReg(0xD530,0x03);
1871:Drivers/LCD_FMC/src/tftLCD.c ****         LCD_WriteReg(0xD531,0x33);
1872:Drivers/LCD_FMC/src/tftLCD.c ****         LCD_WriteReg(0xD532,0x03);
1873:Drivers/LCD_FMC/src/tftLCD.c ****         LCD_WriteReg(0xD533,0x6D);
1874:Drivers/LCD_FMC/src/tftLCD.c ****         LCD_WriteReg(0xD600,0x00);
1875:Drivers/LCD_FMC/src/tftLCD.c ****         LCD_WriteReg(0xD601,0x33);
1876:Drivers/LCD_FMC/src/tftLCD.c ****         LCD_WriteReg(0xD602,0x00);
1877:Drivers/LCD_FMC/src/tftLCD.c ****         LCD_WriteReg(0xD603,0x34);
1878:Drivers/LCD_FMC/src/tftLCD.c ****         LCD_WriteReg(0xD604,0x00);
1879:Drivers/LCD_FMC/src/tftLCD.c ****         LCD_WriteReg(0xD605,0x3A);
1880:Drivers/LCD_FMC/src/tftLCD.c ****         LCD_WriteReg(0xD606,0x00);
1881:Drivers/LCD_FMC/src/tftLCD.c ****         LCD_WriteReg(0xD607,0x4A);
1882:Drivers/LCD_FMC/src/tftLCD.c ****         LCD_WriteReg(0xD608,0x00);
1883:Drivers/LCD_FMC/src/tftLCD.c ****         LCD_WriteReg(0xD609,0x5C);
1884:Drivers/LCD_FMC/src/tftLCD.c ****         LCD_WriteReg(0xD60A,0x00);
1885:Drivers/LCD_FMC/src/tftLCD.c ****         LCD_WriteReg(0xD60B,0x81);
1886:Drivers/LCD_FMC/src/tftLCD.c **** 
1887:Drivers/LCD_FMC/src/tftLCD.c ****         LCD_WriteReg(0xD60C,0x00);
1888:Drivers/LCD_FMC/src/tftLCD.c ****         LCD_WriteReg(0xD60D,0xA6);
1889:Drivers/LCD_FMC/src/tftLCD.c ****         LCD_WriteReg(0xD60E,0x00);
1890:Drivers/LCD_FMC/src/tftLCD.c ****         LCD_WriteReg(0xD60F,0xE5);
1891:Drivers/LCD_FMC/src/tftLCD.c ****         LCD_WriteReg(0xD610,0x01);
1892:Drivers/LCD_FMC/src/tftLCD.c ****         LCD_WriteReg(0xD611,0x13);
1893:Drivers/LCD_FMC/src/tftLCD.c ****         LCD_WriteReg(0xD612,0x01);
1894:Drivers/LCD_FMC/src/tftLCD.c ****         LCD_WriteReg(0xD613,0x54);
1895:Drivers/LCD_FMC/src/tftLCD.c ****         LCD_WriteReg(0xD614,0x01);
1896:Drivers/LCD_FMC/src/tftLCD.c ****         LCD_WriteReg(0xD615,0x82);
1897:Drivers/LCD_FMC/src/tftLCD.c ****         LCD_WriteReg(0xD616,0x01);
1898:Drivers/LCD_FMC/src/tftLCD.c ****         LCD_WriteReg(0xD617,0xCA);
1899:Drivers/LCD_FMC/src/tftLCD.c ****         LCD_WriteReg(0xD618,0x02);
1900:Drivers/LCD_FMC/src/tftLCD.c ****         LCD_WriteReg(0xD619,0x00);
1901:Drivers/LCD_FMC/src/tftLCD.c ****         LCD_WriteReg(0xD61A,0x02);
1902:Drivers/LCD_FMC/src/tftLCD.c ****         LCD_WriteReg(0xD61B,0x01);
1903:Drivers/LCD_FMC/src/tftLCD.c ****         LCD_WriteReg(0xD61C,0x02);
1904:Drivers/LCD_FMC/src/tftLCD.c ****         LCD_WriteReg(0xD61D,0x34);
1905:Drivers/LCD_FMC/src/tftLCD.c ****         LCD_WriteReg(0xD61E,0x02);
1906:Drivers/LCD_FMC/src/tftLCD.c ****         LCD_WriteReg(0xD61F,0x67);
1907:Drivers/LCD_FMC/src/tftLCD.c ****         LCD_WriteReg(0xD620,0x02);
1908:Drivers/LCD_FMC/src/tftLCD.c ****         LCD_WriteReg(0xD621,0x84);
1909:Drivers/LCD_FMC/src/tftLCD.c ****         LCD_WriteReg(0xD622,0x02);
1910:Drivers/LCD_FMC/src/tftLCD.c ****         LCD_WriteReg(0xD623,0xA4);
1911:Drivers/LCD_FMC/src/tftLCD.c ****         LCD_WriteReg(0xD624,0x02);
1912:Drivers/LCD_FMC/src/tftLCD.c ****         LCD_WriteReg(0xD625,0xB7);
ARM GAS  C:\usertemp\ccUDQ5mr.s 			page 76


1913:Drivers/LCD_FMC/src/tftLCD.c ****         LCD_WriteReg(0xD626,0x02);
1914:Drivers/LCD_FMC/src/tftLCD.c ****         LCD_WriteReg(0xD627,0xCF);
1915:Drivers/LCD_FMC/src/tftLCD.c ****         LCD_WriteReg(0xD628,0x02);
1916:Drivers/LCD_FMC/src/tftLCD.c ****         LCD_WriteReg(0xD629,0xDE);
1917:Drivers/LCD_FMC/src/tftLCD.c ****         LCD_WriteReg(0xD62A,0x02);
1918:Drivers/LCD_FMC/src/tftLCD.c ****         LCD_WriteReg(0xD62B,0xF2);
1919:Drivers/LCD_FMC/src/tftLCD.c ****         LCD_WriteReg(0xD62C,0x02);
1920:Drivers/LCD_FMC/src/tftLCD.c ****         LCD_WriteReg(0xD62D,0xFE);
1921:Drivers/LCD_FMC/src/tftLCD.c ****         LCD_WriteReg(0xD62E,0x03);
1922:Drivers/LCD_FMC/src/tftLCD.c ****         LCD_WriteReg(0xD62F,0x10);
1923:Drivers/LCD_FMC/src/tftLCD.c ****         LCD_WriteReg(0xD630,0x03);
1924:Drivers/LCD_FMC/src/tftLCD.c ****         LCD_WriteReg(0xD631,0x33);
1925:Drivers/LCD_FMC/src/tftLCD.c ****         LCD_WriteReg(0xD632,0x03);
1926:Drivers/LCD_FMC/src/tftLCD.c ****         LCD_WriteReg(0xD633,0x6D);
1927:Drivers/LCD_FMC/src/tftLCD.c ****         //LV2 Page 0 enable
1928:Drivers/LCD_FMC/src/tftLCD.c ****         LCD_WriteReg(0xF000,0x55);
1929:Drivers/LCD_FMC/src/tftLCD.c ****         LCD_WriteReg(0xF001,0xAA);
1930:Drivers/LCD_FMC/src/tftLCD.c ****         LCD_WriteReg(0xF002,0x52);
1931:Drivers/LCD_FMC/src/tftLCD.c ****         LCD_WriteReg(0xF003,0x08);
1932:Drivers/LCD_FMC/src/tftLCD.c ****         LCD_WriteReg(0xF004,0x00);
1933:Drivers/LCD_FMC/src/tftLCD.c ****         //Display control
1934:Drivers/LCD_FMC/src/tftLCD.c ****         LCD_WriteReg(0xB100, 0xCC);
1935:Drivers/LCD_FMC/src/tftLCD.c ****         LCD_WriteReg(0xB101, 0x00);
1936:Drivers/LCD_FMC/src/tftLCD.c ****         //Source hold time
1937:Drivers/LCD_FMC/src/tftLCD.c ****         LCD_WriteReg(0xB600,0x05);
1938:Drivers/LCD_FMC/src/tftLCD.c ****         //Gate EQ control
1939:Drivers/LCD_FMC/src/tftLCD.c ****         LCD_WriteReg(0xB700,0x70);
1940:Drivers/LCD_FMC/src/tftLCD.c ****         LCD_WriteReg(0xB701,0x70);
1941:Drivers/LCD_FMC/src/tftLCD.c ****         //Source EQ control (Mode 2)
1942:Drivers/LCD_FMC/src/tftLCD.c ****         LCD_WriteReg(0xB800,0x01);
1943:Drivers/LCD_FMC/src/tftLCD.c ****         LCD_WriteReg(0xB801,0x03);
1944:Drivers/LCD_FMC/src/tftLCD.c ****         LCD_WriteReg(0xB802,0x03);
1945:Drivers/LCD_FMC/src/tftLCD.c ****         LCD_WriteReg(0xB803,0x03);
1946:Drivers/LCD_FMC/src/tftLCD.c ****         //Inversion mode (2-dot)
1947:Drivers/LCD_FMC/src/tftLCD.c ****         LCD_WriteReg(0xBC00,0x02);
1948:Drivers/LCD_FMC/src/tftLCD.c ****         LCD_WriteReg(0xBC01,0x00);
1949:Drivers/LCD_FMC/src/tftLCD.c ****         LCD_WriteReg(0xBC02,0x00);
1950:Drivers/LCD_FMC/src/tftLCD.c ****         //Timing control 4H w/ 4-delay
1951:Drivers/LCD_FMC/src/tftLCD.c ****         LCD_WriteReg(0xC900,0xD0);
1952:Drivers/LCD_FMC/src/tftLCD.c ****         LCD_WriteReg(0xC901,0x02);
1953:Drivers/LCD_FMC/src/tftLCD.c ****         LCD_WriteReg(0xC902,0x50);
1954:Drivers/LCD_FMC/src/tftLCD.c ****         LCD_WriteReg(0xC903,0x50);
1955:Drivers/LCD_FMC/src/tftLCD.c ****         LCD_WriteReg(0xC904,0x50);
1956:Drivers/LCD_FMC/src/tftLCD.c ****         LCD_WriteReg(0x3500,0x00);
1957:Drivers/LCD_FMC/src/tftLCD.c ****         LCD_WriteReg(0x3A00,0x55);  //16-bit/pixel
1958:Drivers/LCD_FMC/src/tftLCD.c ****         LCD_WR_REG(0x1100);
1959:Drivers/LCD_FMC/src/tftLCD.c ****         delay_us(120);
1960:Drivers/LCD_FMC/src/tftLCD.c ****         LCD_WR_REG(0x2900);
1961:Drivers/LCD_FMC/src/tftLCD.c ****     }
1962:Drivers/LCD_FMC/src/tftLCD.c ****     else if(lcddev.id==0X1963)
1963:Drivers/LCD_FMC/src/tftLCD.c ****     {
1964:Drivers/LCD_FMC/src/tftLCD.c ****         LCD_WR_REG(0xE2);		//Set PLL with OSC = 10MHz (hardware),	Multiplier N = 35, 250MHz < VCO <
1965:Drivers/LCD_FMC/src/tftLCD.c ****         LCD_WR_DATA(0x1D);		//参数1
1966:Drivers/LCD_FMC/src/tftLCD.c ****         LCD_WR_DATA(0x02);		//参数2 Divider M = 2, PLL = 300/(M+1) = 100MHz
1967:Drivers/LCD_FMC/src/tftLCD.c ****         LCD_WR_DATA(0x04);		//参数3 Validate M and N values
1968:Drivers/LCD_FMC/src/tftLCD.c ****         delay_us(100);
1969:Drivers/LCD_FMC/src/tftLCD.c ****         LCD_WR_REG(0xE0);		// Start PLL command
ARM GAS  C:\usertemp\ccUDQ5mr.s 			page 77


1970:Drivers/LCD_FMC/src/tftLCD.c ****         LCD_WR_DATA(0x01);		// enable PLL
1971:Drivers/LCD_FMC/src/tftLCD.c ****         HAL_Delay(10);
1972:Drivers/LCD_FMC/src/tftLCD.c ****         LCD_WR_REG(0xE0);		// Start PLL command again
1973:Drivers/LCD_FMC/src/tftLCD.c ****         LCD_WR_DATA(0x03);		// now, use PLL output as system clock
1974:Drivers/LCD_FMC/src/tftLCD.c ****         HAL_Delay(12);
1975:Drivers/LCD_FMC/src/tftLCD.c ****         LCD_WR_REG(0x01);		//软复位
1976:Drivers/LCD_FMC/src/tftLCD.c ****         HAL_Delay(10);
1977:Drivers/LCD_FMC/src/tftLCD.c **** 
1978:Drivers/LCD_FMC/src/tftLCD.c ****         LCD_WR_REG(0xE6);		//设置像素频率,33Mhz
1979:Drivers/LCD_FMC/src/tftLCD.c ****         LCD_WR_DATA(0x2F);
1980:Drivers/LCD_FMC/src/tftLCD.c ****         LCD_WR_DATA(0xFF);
1981:Drivers/LCD_FMC/src/tftLCD.c ****         LCD_WR_DATA(0xFF);
1982:Drivers/LCD_FMC/src/tftLCD.c **** 
1983:Drivers/LCD_FMC/src/tftLCD.c ****         LCD_WR_REG(0xB0);		//设置LCD模式
1984:Drivers/LCD_FMC/src/tftLCD.c ****         LCD_WR_DATA(0x20);		//24位模式
1985:Drivers/LCD_FMC/src/tftLCD.c ****         LCD_WR_DATA(0x00);		//TFT 模式
1986:Drivers/LCD_FMC/src/tftLCD.c **** 
1987:Drivers/LCD_FMC/src/tftLCD.c ****         LCD_WR_DATA((SSD_HOR_RESOLUTION-1)>>8);//设置LCD水平像素
1988:Drivers/LCD_FMC/src/tftLCD.c ****         LCD_WR_DATA(SSD_HOR_RESOLUTION-1);
1989:Drivers/LCD_FMC/src/tftLCD.c ****         LCD_WR_DATA((SSD_VER_RESOLUTION-1)>>8);//设置LCD垂直像素
1990:Drivers/LCD_FMC/src/tftLCD.c ****         LCD_WR_DATA(SSD_VER_RESOLUTION-1);
1991:Drivers/LCD_FMC/src/tftLCD.c ****         LCD_WR_DATA(0x00);		//RGB序列
1992:Drivers/LCD_FMC/src/tftLCD.c **** 
1993:Drivers/LCD_FMC/src/tftLCD.c ****         LCD_WR_REG(0xB4);		//Set horizontal period
1994:Drivers/LCD_FMC/src/tftLCD.c ****         LCD_WR_DATA((SSD_HT-1)>>8);
1995:Drivers/LCD_FMC/src/tftLCD.c ****         LCD_WR_DATA(SSD_HT-1);
1996:Drivers/LCD_FMC/src/tftLCD.c ****         LCD_WR_DATA(SSD_HPS>>8);
1997:Drivers/LCD_FMC/src/tftLCD.c ****         LCD_WR_DATA(SSD_HPS);
1998:Drivers/LCD_FMC/src/tftLCD.c ****         LCD_WR_DATA(SSD_HOR_PULSE_WIDTH-1);
1999:Drivers/LCD_FMC/src/tftLCD.c ****         LCD_WR_DATA(0x00);
2000:Drivers/LCD_FMC/src/tftLCD.c ****         LCD_WR_DATA(0x00);
2001:Drivers/LCD_FMC/src/tftLCD.c ****         LCD_WR_DATA(0x00);
2002:Drivers/LCD_FMC/src/tftLCD.c ****         LCD_WR_REG(0xB6);		//Set vertical period
2003:Drivers/LCD_FMC/src/tftLCD.c ****         LCD_WR_DATA((SSD_VT-1)>>8);
2004:Drivers/LCD_FMC/src/tftLCD.c ****         LCD_WR_DATA(SSD_VT-1);
2005:Drivers/LCD_FMC/src/tftLCD.c ****         LCD_WR_DATA(SSD_VPS>>8);
2006:Drivers/LCD_FMC/src/tftLCD.c ****         LCD_WR_DATA(SSD_VPS);
2007:Drivers/LCD_FMC/src/tftLCD.c ****         LCD_WR_DATA(SSD_VER_FRONT_PORCH-1);
2008:Drivers/LCD_FMC/src/tftLCD.c ****         LCD_WR_DATA(0x00);
2009:Drivers/LCD_FMC/src/tftLCD.c ****         LCD_WR_DATA(0x00);
2010:Drivers/LCD_FMC/src/tftLCD.c **** 
2011:Drivers/LCD_FMC/src/tftLCD.c ****         LCD_WR_REG(0xF0);	//设置SSD1963与CPU接口为16bit
2012:Drivers/LCD_FMC/src/tftLCD.c ****         LCD_WR_DATA(0x03);	//16-bit(565 format) data for 16bpp
2013:Drivers/LCD_FMC/src/tftLCD.c **** 
2014:Drivers/LCD_FMC/src/tftLCD.c ****         LCD_WR_REG(0x29);	//开启显示
2015:Drivers/LCD_FMC/src/tftLCD.c ****         //设置PWM输出  背光通过占空比可调
2016:Drivers/LCD_FMC/src/tftLCD.c ****         LCD_WR_REG(0xD0);	//设置自动白平衡DBC
2017:Drivers/LCD_FMC/src/tftLCD.c ****         LCD_WR_DATA(0x00);	//disable
2018:Drivers/LCD_FMC/src/tftLCD.c **** 
2019:Drivers/LCD_FMC/src/tftLCD.c ****         LCD_WR_REG(0xBE);	//配置PWM输出
2020:Drivers/LCD_FMC/src/tftLCD.c ****         LCD_WR_DATA(0x05);	//1设置PWM频率
2021:Drivers/LCD_FMC/src/tftLCD.c ****         LCD_WR_DATA(0xFE);	//2设置PWM占空比
2022:Drivers/LCD_FMC/src/tftLCD.c ****         LCD_WR_DATA(0x01);	//3设置C
2023:Drivers/LCD_FMC/src/tftLCD.c ****         LCD_WR_DATA(0x00);	//4设置D
2024:Drivers/LCD_FMC/src/tftLCD.c ****         LCD_WR_DATA(0x00);	//5设置E
2025:Drivers/LCD_FMC/src/tftLCD.c ****         LCD_WR_DATA(0x00);	//6设置F
2026:Drivers/LCD_FMC/src/tftLCD.c **** 
ARM GAS  C:\usertemp\ccUDQ5mr.s 			page 78


2027:Drivers/LCD_FMC/src/tftLCD.c ****         LCD_WR_REG(0xB8);	//设置GPIO配置
2028:Drivers/LCD_FMC/src/tftLCD.c ****         LCD_WR_DATA(0x03);	//2个IO口设置成输出
2029:Drivers/LCD_FMC/src/tftLCD.c ****         LCD_WR_DATA(0x01);	//GPIO使用正常的IO功能
2030:Drivers/LCD_FMC/src/tftLCD.c ****         LCD_WR_REG(0xBA);
2031:Drivers/LCD_FMC/src/tftLCD.c ****         LCD_WR_DATA(0X01);	//GPIO[1:0]=01,控制LCD方向
2032:Drivers/LCD_FMC/src/tftLCD.c **** 
2033:Drivers/LCD_FMC/src/tftLCD.c ****         LCD_SSD_BackLightSet(100);//背光设置为最亮
2034:Drivers/LCD_FMC/src/tftLCD.c ****     }
2035:Drivers/LCD_FMC/src/tftLCD.c ****     //初始化完成以后,提速
2036:Drivers/LCD_FMC/src/tftLCD.c ****     if(lcddev.id==0X9341||lcddev.id==0X5310||lcddev.id==0X5510||lcddev.id==0X1963)//如果是这几
2037:Drivers/LCD_FMC/src/tftLCD.c ****     {
2038:Drivers/LCD_FMC/src/tftLCD.c ****         //重新配置写时序控制寄存器的时序
2039:Drivers/LCD_FMC/src/tftLCD.c ****         FMC_Bank1E_R->BWTR[6]&=~(0XF<<0);//地址建立时间(ADDSET)清零
2040:Drivers/LCD_FMC/src/tftLCD.c ****         FMC_Bank1E_R->BWTR[6]&=~(0XF<<8);//数据保存时间清零
2041:Drivers/LCD_FMC/src/tftLCD.c ****         FMC_Bank1E_R->BWTR[6]|=3<<0;		//地址建立时间(ADDSET)为3个HCLK =18ns
2042:Drivers/LCD_FMC/src/tftLCD.c ****         FMC_Bank1E_R->BWTR[6]|=2<<8; 	//数据保存时间(DATAST)为6ns*3个HCLK=18ns
2043:Drivers/LCD_FMC/src/tftLCD.c ****     }
2044:Drivers/LCD_FMC/src/tftLCD.c ****     LCD_Display_Dir(0);		//默认为竖屏
2045:Drivers/LCD_FMC/src/tftLCD.c ****     //HAL_GPIO_WritePin(LCD_BLK_GPIO_Port, LCD_BLK_Pin, GPIO_PIN_SET);						//点亮背光
2046:Drivers/LCD_FMC/src/tftLCD.c ****     LCD_Clear(WHITE);
2047:Drivers/LCD_FMC/src/tftLCD.c **** }
2048:Drivers/LCD_FMC/src/tftLCD.c **** //清屏函数
2049:Drivers/LCD_FMC/src/tftLCD.c **** //color:要清屏的填充色
2050:Drivers/LCD_FMC/src/tftLCD.c **** void LCD_Clear(uint32_t color)
2051:Drivers/LCD_FMC/src/tftLCD.c **** {
 2110              		.loc 1 2051 1 view -0
 2111              		.cfi_startproc
 2112              		@ args = 0, pretend = 0, frame = 0
 2113              		@ frame_needed = 0, uses_anonymous_args = 0
 2114              		.loc 1 2051 1 is_stmt 0 view .LVU569
 2115 0000 38B5     		push	{r3, r4, r5, lr}
 2116              	.LCFI20:
 2117              		.cfi_def_cfa_offset 16
 2118              		.cfi_offset 3, -16
 2119              		.cfi_offset 4, -12
 2120              		.cfi_offset 5, -8
 2121              		.cfi_offset 14, -4
 2122 0002 0546     		mov	r5, r0
2052:Drivers/LCD_FMC/src/tftLCD.c ****     uint32_t index=0;
 2123              		.loc 1 2052 5 is_stmt 1 view .LVU570
 2124              	.LVL221:
2053:Drivers/LCD_FMC/src/tftLCD.c ****     uint32_t totalpoint=lcddev.width;
 2125              		.loc 1 2053 5 view .LVU571
 2126              		.loc 1 2053 31 is_stmt 0 view .LVU572
 2127 0004 0A4B     		ldr	r3, .L142
 2128 0006 1A88     		ldrh	r2, [r3]
 2129              	.LVL222:
2054:Drivers/LCD_FMC/src/tftLCD.c ****     totalpoint*=lcddev.height; 			//得到总点数
 2130              		.loc 1 2054 5 is_stmt 1 view .LVU573
 2131              		.loc 1 2054 23 is_stmt 0 view .LVU574
 2132 0008 5C88     		ldrh	r4, [r3, #2]
 2133              		.loc 1 2054 15 view .LVU575
 2134 000a 02FB04F4 		mul	r4, r2, r4
 2135              	.LVL223:
2055:Drivers/LCD_FMC/src/tftLCD.c ****     LCD_SetCursor(0x00,0x0000);			//设置光标位置
 2136              		.loc 1 2055 5 is_stmt 1 view .LVU576
 2137 000e 0021     		movs	r1, #0
ARM GAS  C:\usertemp\ccUDQ5mr.s 			page 79


 2138 0010 0846     		mov	r0, r1
 2139              	.LVL224:
 2140              		.loc 1 2055 5 is_stmt 0 view .LVU577
 2141 0012 FFF7FEFF 		bl	LCD_SetCursor
 2142              	.LVL225:
2056:Drivers/LCD_FMC/src/tftLCD.c ****     LCD_WriteRAM_Prepare();     		//开始写入GRAM
 2143              		.loc 1 2056 5 is_stmt 1 view .LVU578
 2144 0016 FFF7FEFF 		bl	LCD_WriteRAM_Prepare
 2145              	.LVL226:
2057:Drivers/LCD_FMC/src/tftLCD.c ****     for(index=0; index<totalpoint; index++)
 2146              		.loc 1 2057 5 view .LVU579
 2147              		.loc 1 2057 14 is_stmt 0 view .LVU580
 2148 001a 0022     		movs	r2, #0
 2149              		.loc 1 2057 5 view .LVU581
 2150 001c 05E0     		b	.L139
 2151              	.LVL227:
 2152              	.L140:
2058:Drivers/LCD_FMC/src/tftLCD.c ****     {
2059:Drivers/LCD_FMC/src/tftLCD.c ****         LCD->LCD_RAM=color;
 2153              		.loc 1 2059 9 is_stmt 1 view .LVU582
 2154              		.loc 1 2059 21 is_stmt 0 view .LVU583
 2155 001e ABB2     		uxth	r3, r5
 2156 0020 4FF0C841 		mov	r1, #1677721600
 2157 0024 A1F88030 		strh	r3, [r1, #128]	@ movhi
2057:Drivers/LCD_FMC/src/tftLCD.c ****     for(index=0; index<totalpoint; index++)
 2158              		.loc 1 2057 41 is_stmt 1 discriminator 3 view .LVU584
 2159 0028 0132     		adds	r2, r2, #1
 2160              	.LVL228:
 2161              	.L139:
2057:Drivers/LCD_FMC/src/tftLCD.c ****     for(index=0; index<totalpoint; index++)
 2162              		.loc 1 2057 23 discriminator 1 view .LVU585
 2163 002a A242     		cmp	r2, r4
 2164 002c F7D3     		bcc	.L140
2060:Drivers/LCD_FMC/src/tftLCD.c ****     }
2061:Drivers/LCD_FMC/src/tftLCD.c **** }
 2165              		.loc 1 2061 1 is_stmt 0 view .LVU586
 2166 002e 38BD     		pop	{r3, r4, r5, pc}
 2167              	.LVL229:
 2168              	.L143:
 2169              		.loc 1 2061 1 view .LVU587
 2170              		.align	2
 2171              	.L142:
 2172 0030 00000000 		.word	lcddev
 2173              		.cfi_endproc
 2174              	.LFE354:
 2176              		.section	.text.LCD_Init,"ax",%progbits
 2177              		.align	1
 2178              		.global	LCD_Init
 2179              		.syntax unified
 2180              		.thumb
 2181              		.thumb_func
 2183              	LCD_Init:
 2184              	.LFB353:
 595:Drivers/LCD_FMC/src/tftLCD.c ****     //尝试9341 ID的读取
 2185              		.loc 1 595 1 is_stmt 1 view -0
 2186              		.cfi_startproc
 2187              		@ args = 0, pretend = 0, frame = 0
ARM GAS  C:\usertemp\ccUDQ5mr.s 			page 80


 2188              		@ frame_needed = 0, uses_anonymous_args = 0
 2189 0000 10B5     		push	{r4, lr}
 2190              	.LCFI21:
 2191              		.cfi_def_cfa_offset 8
 2192              		.cfi_offset 4, -8
 2193              		.cfi_offset 14, -4
 597:Drivers/LCD_FMC/src/tftLCD.c ****     lcddev.id = LCD_RD_DATA();	//dummy read
 2194              		.loc 1 597 4 view .LVU589
 2195 0002 D320     		movs	r0, #211
 2196 0004 FFF7FEFF 		bl	LCD_WR_REG
 2197              	.LVL230:
 598:Drivers/LCD_FMC/src/tftLCD.c ****     lcddev.id = LCD_RD_DATA();	//读到0X00
 2198              		.loc 1 598 5 view .LVU590
 598:Drivers/LCD_FMC/src/tftLCD.c ****     lcddev.id = LCD_RD_DATA();	//读到0X00
 2199              		.loc 1 598 17 is_stmt 0 view .LVU591
 2200 0008 FFF7FEFF 		bl	LCD_RD_DATA
 2201              	.LVL231:
 598:Drivers/LCD_FMC/src/tftLCD.c ****     lcddev.id = LCD_RD_DATA();	//读到0X00
 2202              		.loc 1 598 15 discriminator 1 view .LVU592
 2203 000c 8A4C     		ldr	r4, .L162
 2204 000e A080     		strh	r0, [r4, #4]	@ movhi
 599:Drivers/LCD_FMC/src/tftLCD.c ****     lcddev.id = LCD_RD_DATA();   	//读取93
 2205              		.loc 1 599 5 is_stmt 1 view .LVU593
 599:Drivers/LCD_FMC/src/tftLCD.c ****     lcddev.id = LCD_RD_DATA();   	//读取93
 2206              		.loc 1 599 17 is_stmt 0 view .LVU594
 2207 0010 FFF7FEFF 		bl	LCD_RD_DATA
 2208              	.LVL232:
 599:Drivers/LCD_FMC/src/tftLCD.c ****     lcddev.id = LCD_RD_DATA();   	//读取93
 2209              		.loc 1 599 15 discriminator 1 view .LVU595
 2210 0014 A080     		strh	r0, [r4, #4]	@ movhi
 600:Drivers/LCD_FMC/src/tftLCD.c ****     lcddev.id <<= 8;
 2211              		.loc 1 600 5 is_stmt 1 view .LVU596
 600:Drivers/LCD_FMC/src/tftLCD.c ****     lcddev.id <<= 8;
 2212              		.loc 1 600 17 is_stmt 0 view .LVU597
 2213 0016 FFF7FEFF 		bl	LCD_RD_DATA
 2214              	.LVL233:
 600:Drivers/LCD_FMC/src/tftLCD.c ****     lcddev.id <<= 8;
 2215              		.loc 1 600 15 discriminator 1 view .LVU598
 2216 001a A080     		strh	r0, [r4, #4]	@ movhi
 601:Drivers/LCD_FMC/src/tftLCD.c ****     lcddev.id |= LCD_RD_DATA();  	//读取41
 2217              		.loc 1 601 5 is_stmt 1 view .LVU599
 601:Drivers/LCD_FMC/src/tftLCD.c ****     lcddev.id |= LCD_RD_DATA();  	//读取41
