ARM GAS  C:\usertemp\ccUDQ5mr.s 			page 1


   1              		.cpu cortex-m7
   2              		.arch armv7e-m
   3              		.fpu fpv5-d16
   4              		.eabi_attribute 28, 1
   5              		.eabi_attribute 20, 1
   6              		.eabi_attribute 21, 1
   7              		.eabi_attribute 23, 3
   8              		.eabi_attribute 24, 1
   9              		.eabi_attribute 25, 1
  10              		.eabi_attribute 26, 1
  11              		.eabi_attribute 30, 1
  12              		.eabi_attribute 34, 1
  13              		.eabi_attribute 18, 4
  14              		.file	"tftLCD.c"
  15              		.text
  16              	.Ltext0:
  17              		.cfi_sections	.debug_frame
  18              		.file 1 "Drivers/LCD_FMC/src/tftLCD.c"
  19              		.section	.text.delay_us,"ax",%progbits
  20              		.align	1
  21              		.global	delay_us
  22              		.syntax unified
  23              		.thumb
  24              		.thumb_func
  26              	delay_us:
  27              	.LVL0:
  28              	.LFB333:
   1:Drivers/LCD_FMC/src/tftLCD.c **** //
   2:Drivers/LCD_FMC/src/tftLCD.c **** // Created by Alex-Hua on 2024/7/26.
   3:Drivers/LCD_FMC/src/tftLCD.c **** //
   4:Drivers/LCD_FMC/src/tftLCD.c **** 
   5:Drivers/LCD_FMC/src/tftLCD.c **** #include "tftLCD.h"
   6:Drivers/LCD_FMC/src/tftLCD.c **** #include "font.h"
   7:Drivers/LCD_FMC/src/tftLCD.c **** //
   8:Drivers/LCD_FMC/src/tftLCD.c **** //本程序只供学习使用，未经作者许可，不得用于其它任何用途
   9:Drivers/LCD_FMC/src/tftLCD.c **** //ALIENTEK STM32开发板
  10:Drivers/LCD_FMC/src/tftLCD.c **** //2.8寸/3.5寸/4.3寸/7寸 TFT液晶驱动
  11:Drivers/LCD_FMC/src/tftLCD.c **** //支持驱动IC型号包括:ILI9341/NT35310/NT35510/SSD1963等
  12:Drivers/LCD_FMC/src/tftLCD.c **** //正点原子@ALIENTEK
  13:Drivers/LCD_FMC/src/tftLCD.c **** //技术论坛:www.openedv.com
  14:Drivers/LCD_FMC/src/tftLCD.c **** //创建日期:2017/4/8
  15:Drivers/LCD_FMC/src/tftLCD.c **** //版本：V4.0
  16:Drivers/LCD_FMC/src/tftLCD.c **** //版权所有，盗版必究。
  17:Drivers/LCD_FMC/src/tftLCD.c **** //Copyright(C) 广州市星翼电子科技有限公司 2014-2024
  18:Drivers/LCD_FMC/src/tftLCD.c **** //All rights reserved
  19:Drivers/LCD_FMC/src/tftLCD.c **** //*******************************************************************************
  20:Drivers/LCD_FMC/src/tftLCD.c **** //V4.0 20211111
  21:Drivers/LCD_FMC/src/tftLCD.c **** //1，去掉大部分不常用驱动IC的支持
  22:Drivers/LCD_FMC/src/tftLCD.c **** //2，新增对ST7789驱动IC的支持
  23:Drivers/LCD_FMC/src/tftLCD.c **** //3，优化代码结构（精简源码）
  24:Drivers/LCD_FMC/src/tftLCD.c **** //
  25:Drivers/LCD_FMC/src/tftLCD.c **** 
  26:Drivers/LCD_FMC/src/tftLCD.c **** //LCD的画笔颜色和背景色
  27:Drivers/LCD_FMC/src/tftLCD.c **** uint32_t POINT_COLOR=0xFF000000;		//画笔颜色
  28:Drivers/LCD_FMC/src/tftLCD.c **** uint32_t BACK_COLOR =0xFFFFFFFF;  	//背景色
  29:Drivers/LCD_FMC/src/tftLCD.c **** 
  30:Drivers/LCD_FMC/src/tftLCD.c **** //管理LCD重要参数
ARM GAS  C:\usertemp\ccUDQ5mr.s 			page 2


  31:Drivers/LCD_FMC/src/tftLCD.c **** //默认为竖屏
  32:Drivers/LCD_FMC/src/tftLCD.c **** _lcd_dev lcddev;
  33:Drivers/LCD_FMC/src/tftLCD.c **** 
  34:Drivers/LCD_FMC/src/tftLCD.c **** //MCU频率为168MHz时的us延时
  35:Drivers/LCD_FMC/src/tftLCD.c **** void delay_us(uint32_t nus)
  36:Drivers/LCD_FMC/src/tftLCD.c **** {
  29              		.loc 1 36 1 view -0
  30              		.cfi_startproc
  31              		@ args = 0, pretend = 0, frame = 0
  32              		@ frame_needed = 0, uses_anonymous_args = 0
  33              		@ link register save eliminated.
  37:Drivers/LCD_FMC/src/tftLCD.c ****     uint32_t Delay = nus * 168/4;
  34              		.loc 1 37 5 view .LVU1
  35              		.loc 1 37 26 is_stmt 0 view .LVU2
  36 0000 A823     		movs	r3, #168
  37 0002 03FB00F0 		mul	r0, r3, r0
  38              	.LVL1:
  39              		.loc 1 37 14 view .LVU3
  40 0006 8008     		lsrs	r0, r0, #2
  41              	.LVL2:
  42              	.L2:
  38:Drivers/LCD_FMC/src/tftLCD.c ****     do
  43              		.loc 1 38 5 is_stmt 1 view .LVU4
  39:Drivers/LCD_FMC/src/tftLCD.c ****     {
  40:Drivers/LCD_FMC/src/tftLCD.c ****         __NOP();
  44              		.loc 1 40 9 view .LVU5
  45              		.syntax unified
  46              	@ 40 "Drivers/LCD_FMC/src/tftLCD.c" 1
  47 0008 00BF     		nop
  48              	@ 0 "" 2
  41:Drivers/LCD_FMC/src/tftLCD.c ****     }
  42:Drivers/LCD_FMC/src/tftLCD.c ****     while (Delay --);
  49              		.loc 1 42 12 discriminator 1 view .LVU6
  50              		.thumb
  51              		.syntax unified
  52 000a 0346     		mov	r3, r0
  53              		.loc 1 42 18 is_stmt 0 discriminator 1 view .LVU7
  54 000c 0138     		subs	r0, r0, #1
  55              	.LVL3:
  56              		.loc 1 42 12 discriminator 1 view .LVU8
  57 000e 002B     		cmp	r3, #0
  58 0010 FAD1     		bne	.L2
  43:Drivers/LCD_FMC/src/tftLCD.c **** }
  59              		.loc 1 43 1 view .LVU9
  60 0012 7047     		bx	lr
  61              		.cfi_endproc
  62              	.LFE333:
  64              		.section	.text.LCD_WR_REG,"ax",%progbits
  65              		.align	1
  66              		.global	LCD_WR_REG
  67              		.syntax unified
  68              		.thumb
  69              		.thumb_func
  71              	LCD_WR_REG:
  72              	.LVL4:
  73              	.LFB334:
  44:Drivers/LCD_FMC/src/tftLCD.c **** /**/
ARM GAS  C:\usertemp\ccUDQ5mr.s 			page 3


  45:Drivers/LCD_FMC/src/tftLCD.c **** //写寄存器函数
  46:Drivers/LCD_FMC/src/tftLCD.c **** //regval:寄存器值
  47:Drivers/LCD_FMC/src/tftLCD.c **** void LCD_WR_REG(volatile uint16_t regval)
  48:Drivers/LCD_FMC/src/tftLCD.c **** {
  74              		.loc 1 48 1 is_stmt 1 view -0
  75              		.cfi_startproc
  76              		@ args = 0, pretend = 0, frame = 8
  77              		@ frame_needed = 0, uses_anonymous_args = 0
  78              		@ link register save eliminated.
  79              		.loc 1 48 1 is_stmt 0 view .LVU11
  80 0000 82B0     		sub	sp, sp, #8
  81              	.LCFI0:
  82              		.cfi_def_cfa_offset 8
  83 0002 ADF80600 		strh	r0, [sp, #6]	@ movhi
  49:Drivers/LCD_FMC/src/tftLCD.c ****     regval=regval;							//使用-O2优化的时候,必须插入的延时
  84              		.loc 1 49 5 is_stmt 1 view .LVU12
  85              		.loc 1 49 11 is_stmt 0 view .LVU13
  86 0006 BDF80630 		ldrh	r3, [sp, #6]
  87 000a 9BB2     		uxth	r3, r3
  88 000c ADF80630 		strh	r3, [sp, #6]	@ movhi
  50:Drivers/LCD_FMC/src/tftLCD.c ****     LCD->LCD_REG=regval;				//写入要写的寄存器序号
  89              		.loc 1 50 5 is_stmt 1 view .LVU14
  90              		.loc 1 50 17 is_stmt 0 view .LVU15
  91 0010 BDF80630 		ldrh	r3, [sp, #6]
  92 0014 9BB2     		uxth	r3, r3
  93 0016 4FF0C842 		mov	r2, #1677721600
  94 001a A2F87E30 		strh	r3, [r2, #126]	@ movhi
  51:Drivers/LCD_FMC/src/tftLCD.c **** }
  95              		.loc 1 51 1 view .LVU16
  96 001e 02B0     		add	sp, sp, #8
  97              	.LCFI1:
  98              		.cfi_def_cfa_offset 0
  99              		@ sp needed
 100 0020 7047     		bx	lr
 101              		.cfi_endproc
 102              	.LFE334:
 104              		.section	.text.LCD_WR_DATA,"ax",%progbits
 105              		.align	1
 106              		.global	LCD_WR_DATA
 107              		.syntax unified
 108              		.thumb
 109              		.thumb_func
 111              	LCD_WR_DATA:
 112              	.LVL5:
 113              	.LFB335:
  52:Drivers/LCD_FMC/src/tftLCD.c **** 
  53:Drivers/LCD_FMC/src/tftLCD.c **** //写LCD数据
  54:Drivers/LCD_FMC/src/tftLCD.c **** //data:要写入的值
  55:Drivers/LCD_FMC/src/tftLCD.c **** void LCD_WR_DATA(volatile uint16_t data)
  56:Drivers/LCD_FMC/src/tftLCD.c **** {
 114              		.loc 1 56 1 is_stmt 1 view -0
 115              		.cfi_startproc
 116              		@ args = 0, pretend = 0, frame = 8
 117              		@ frame_needed = 0, uses_anonymous_args = 0
 118              		@ link register save eliminated.
 119              		.loc 1 56 1 is_stmt 0 view .LVU18
 120 0000 82B0     		sub	sp, sp, #8
ARM GAS  C:\usertemp\ccUDQ5mr.s 			page 4


 121              	.LCFI2:
 122              		.cfi_def_cfa_offset 8
 123 0002 ADF80600 		strh	r0, [sp, #6]	@ movhi
  57:Drivers/LCD_FMC/src/tftLCD.c ****     data=data;									//使用-O2优化的时候,必须插入的延时
 124              		.loc 1 57 5 is_stmt 1 view .LVU19
 125              		.loc 1 57 9 is_stmt 0 view .LVU20
 126 0006 BDF80630 		ldrh	r3, [sp, #6]
 127 000a 9BB2     		uxth	r3, r3
 128 000c ADF80630 		strh	r3, [sp, #6]	@ movhi
  58:Drivers/LCD_FMC/src/tftLCD.c ****     LCD->LCD_RAM=data;
 129              		.loc 1 58 5 is_stmt 1 view .LVU21
 130              		.loc 1 58 17 is_stmt 0 view .LVU22
 131 0010 BDF80630 		ldrh	r3, [sp, #6]
 132 0014 9BB2     		uxth	r3, r3
 133 0016 4FF0C842 		mov	r2, #1677721600
 134 001a A2F88030 		strh	r3, [r2, #128]	@ movhi
  59:Drivers/LCD_FMC/src/tftLCD.c **** }
 135              		.loc 1 59 1 view .LVU23
 136 001e 02B0     		add	sp, sp, #8
 137              	.LCFI3:
 138              		.cfi_def_cfa_offset 0
 139              		@ sp needed
 140 0020 7047     		bx	lr
 141              		.cfi_endproc
 142              	.LFE335:
 144              		.section	.text.LCD_RD_DATA,"ax",%progbits
 145              		.align	1
 146              		.global	LCD_RD_DATA
 147              		.syntax unified
 148              		.thumb
 149              		.thumb_func
 151              	LCD_RD_DATA:
 152              	.LFB336:
  60:Drivers/LCD_FMC/src/tftLCD.c **** 
  61:Drivers/LCD_FMC/src/tftLCD.c **** //读LCD数据
  62:Drivers/LCD_FMC/src/tftLCD.c **** //返回值:读到的值
  63:Drivers/LCD_FMC/src/tftLCD.c **** uint16_t LCD_RD_DATA(void)
  64:Drivers/LCD_FMC/src/tftLCD.c **** {
 153              		.loc 1 64 1 is_stmt 1 view -0
 154              		.cfi_startproc
 155              		@ args = 0, pretend = 0, frame = 8
 156              		@ frame_needed = 0, uses_anonymous_args = 0
 157              		@ link register save eliminated.
 158 0000 82B0     		sub	sp, sp, #8
 159              	.LCFI4:
 160              		.cfi_def_cfa_offset 8
  65:Drivers/LCD_FMC/src/tftLCD.c ****     volatile uint16_t ram;			//防止被优化
 161              		.loc 1 65 5 view .LVU25
  66:Drivers/LCD_FMC/src/tftLCD.c ****     ram=LCD->LCD_RAM;
 162              		.loc 1 66 5 view .LVU26
 163              		.loc 1 66 12 is_stmt 0 view .LVU27
 164 0002 4FF0C843 		mov	r3, #1677721600
 165 0006 B3F88030 		ldrh	r3, [r3, #128]
 166 000a 9BB2     		uxth	r3, r3
 167              		.loc 1 66 8 view .LVU28
 168 000c ADF80630 		strh	r3, [sp, #6]	@ movhi
  67:Drivers/LCD_FMC/src/tftLCD.c ****     return ram;
ARM GAS  C:\usertemp\ccUDQ5mr.s 			page 5


 169              		.loc 1 67 5 is_stmt 1 view .LVU29
 170              		.loc 1 67 12 is_stmt 0 view .LVU30
 171 0010 BDF80600 		ldrh	r0, [sp, #6]
  68:Drivers/LCD_FMC/src/tftLCD.c **** }
 172              		.loc 1 68 1 view .LVU31
 173 0014 80B2     		uxth	r0, r0
 174 0016 02B0     		add	sp, sp, #8
 175              	.LCFI5:
 176              		.cfi_def_cfa_offset 0
 177              		@ sp needed
 178 0018 7047     		bx	lr
 179              		.cfi_endproc
 180              	.LFE336:
 182              		.section	.text.LCD_WriteReg,"ax",%progbits
 183              		.align	1
 184              		.global	LCD_WriteReg
 185              		.syntax unified
 186              		.thumb
 187              		.thumb_func
 189              	LCD_WriteReg:
 190              	.LVL6:
 191              	.LFB337:
  69:Drivers/LCD_FMC/src/tftLCD.c **** 
  70:Drivers/LCD_FMC/src/tftLCD.c **** //写寄存器
  71:Drivers/LCD_FMC/src/tftLCD.c **** //LCD_Reg:寄存器地址
  72:Drivers/LCD_FMC/src/tftLCD.c **** //LCD_RegValue:要写入的数据
  73:Drivers/LCD_FMC/src/tftLCD.c **** void LCD_WriteReg(uint16_t LCD_Reg,uint16_t LCD_RegValue)
  74:Drivers/LCD_FMC/src/tftLCD.c **** {
 192              		.loc 1 74 1 is_stmt 1 view -0
 193              		.cfi_startproc
 194              		@ args = 0, pretend = 0, frame = 0
 195              		@ frame_needed = 0, uses_anonymous_args = 0
 196              		@ link register save eliminated.
  75:Drivers/LCD_FMC/src/tftLCD.c ****     LCD->LCD_REG = LCD_Reg;			//写入要写的寄存器序号
 197              		.loc 1 75 5 view .LVU33
 198              		.loc 1 75 18 is_stmt 0 view .LVU34
 199 0000 4FF0C843 		mov	r3, #1677721600
 200 0004 A3F87E00 		strh	r0, [r3, #126]	@ movhi
  76:Drivers/LCD_FMC/src/tftLCD.c ****     LCD->LCD_RAM = LCD_RegValue;//写入数据
 201              		.loc 1 76 5 is_stmt 1 view .LVU35
 202              		.loc 1 76 18 is_stmt 0 view .LVU36
 203 0008 A3F88010 		strh	r1, [r3, #128]	@ movhi
  77:Drivers/LCD_FMC/src/tftLCD.c **** }
 204              		.loc 1 77 1 view .LVU37
 205 000c 7047     		bx	lr
 206              		.cfi_endproc
 207              	.LFE337:
 209              		.section	.text.LCD_ReadReg,"ax",%progbits
 210              		.align	1
 211              		.global	LCD_ReadReg
 212              		.syntax unified
 213              		.thumb
 214              		.thumb_func
 216              	LCD_ReadReg:
 217              	.LVL7:
 218              	.LFB338:
  78:Drivers/LCD_FMC/src/tftLCD.c **** 
ARM GAS  C:\usertemp\ccUDQ5mr.s 			page 6


  79:Drivers/LCD_FMC/src/tftLCD.c **** //读寄存器
  80:Drivers/LCD_FMC/src/tftLCD.c **** //LCD_Reg:寄存器地址
  81:Drivers/LCD_FMC/src/tftLCD.c **** //返回值:读到的数据
  82:Drivers/LCD_FMC/src/tftLCD.c **** uint16_t LCD_ReadReg(uint16_t LCD_Reg)
  83:Drivers/LCD_FMC/src/tftLCD.c **** {
 219              		.loc 1 83 1 is_stmt 1 view -0
 220              		.cfi_startproc
 221              		@ args = 0, pretend = 0, frame = 0
 222              		@ frame_needed = 0, uses_anonymous_args = 0
 223              		.loc 1 83 1 is_stmt 0 view .LVU39
 224 0000 08B5     		push	{r3, lr}
 225              	.LCFI6:
 226              		.cfi_def_cfa_offset 8
 227              		.cfi_offset 3, -8
 228              		.cfi_offset 14, -4
  84:Drivers/LCD_FMC/src/tftLCD.c ****     LCD_WR_REG(LCD_Reg);				//写入要读的寄存器序号
 229              		.loc 1 84 5 is_stmt 1 view .LVU40
 230 0002 FFF7FEFF 		bl	LCD_WR_REG
 231              	.LVL8:
  85:Drivers/LCD_FMC/src/tftLCD.c ****     delay_us(5);
 232              		.loc 1 85 5 view .LVU41
 233 0006 0520     		movs	r0, #5
 234 0008 FFF7FEFF 		bl	delay_us
 235              	.LVL9:
  86:Drivers/LCD_FMC/src/tftLCD.c ****     return LCD_RD_DATA();				//返回读到的值
 236              		.loc 1 86 5 view .LVU42
 237              		.loc 1 86 12 is_stmt 0 view .LVU43
 238 000c FFF7FEFF 		bl	LCD_RD_DATA
 239              	.LVL10:
  87:Drivers/LCD_FMC/src/tftLCD.c **** }
 240              		.loc 1 87 1 view .LVU44
 241 0010 08BD     		pop	{r3, pc}
 242              		.cfi_endproc
 243              	.LFE338:
 245              		.section	.text.LCD_WriteRAM_Prepare,"ax",%progbits
 246              		.align	1
 247              		.global	LCD_WriteRAM_Prepare
 248              		.syntax unified
 249              		.thumb
 250              		.thumb_func
 252              	LCD_WriteRAM_Prepare:
 253              	.LFB339:
  88:Drivers/LCD_FMC/src/tftLCD.c **** 
  89:Drivers/LCD_FMC/src/tftLCD.c **** //开始写GRAM
  90:Drivers/LCD_FMC/src/tftLCD.c **** void LCD_WriteRAM_Prepare(void)
  91:Drivers/LCD_FMC/src/tftLCD.c **** {
 254              		.loc 1 91 1 is_stmt 1 view -0
 255              		.cfi_startproc
 256              		@ args = 0, pretend = 0, frame = 0
 257              		@ frame_needed = 0, uses_anonymous_args = 0
 258              		@ link register save eliminated.
  92:Drivers/LCD_FMC/src/tftLCD.c ****     LCD->LCD_REG=lcddev.wramcmd;
 259              		.loc 1 92 5 view .LVU46
 260              		.loc 1 92 24 is_stmt 0 view .LVU47
 261 0000 034B     		ldr	r3, .L13
 262 0002 1A89     		ldrh	r2, [r3, #8]
 263              		.loc 1 92 17 view .LVU48
ARM GAS  C:\usertemp\ccUDQ5mr.s 			page 7


 264 0004 4FF0C843 		mov	r3, #1677721600
 265 0008 A3F87E20 		strh	r2, [r3, #126]	@ movhi
  93:Drivers/LCD_FMC/src/tftLCD.c **** }
 266              		.loc 1 93 1 view .LVU49
 267 000c 7047     		bx	lr
 268              	.L14:
 269 000e 00BF     		.align	2
 270              	.L13:
 271 0010 00000000 		.word	lcddev
 272              		.cfi_endproc
 273              	.LFE339:
 275              		.section	.text.LCD_WriteRAM,"ax",%progbits
 276              		.align	1
 277              		.global	LCD_WriteRAM
 278              		.syntax unified
 279              		.thumb
 280              		.thumb_func
 282              	LCD_WriteRAM:
 283              	.LVL11:
 284              	.LFB340:
  94:Drivers/LCD_FMC/src/tftLCD.c **** 
  95:Drivers/LCD_FMC/src/tftLCD.c **** //LCD写GRAM
  96:Drivers/LCD_FMC/src/tftLCD.c **** //RGB_Code:颜色值
  97:Drivers/LCD_FMC/src/tftLCD.c **** void LCD_WriteRAM(uint16_t RGB_Code)
  98:Drivers/LCD_FMC/src/tftLCD.c **** {
 285              		.loc 1 98 1 is_stmt 1 view -0
 286              		.cfi_startproc
 287              		@ args = 0, pretend = 0, frame = 0
 288              		@ frame_needed = 0, uses_anonymous_args = 0
 289              		@ link register save eliminated.
  99:Drivers/LCD_FMC/src/tftLCD.c ****     LCD->LCD_RAM = RGB_Code;		//写十六位GRAM
 290              		.loc 1 99 5 view .LVU51
 291              		.loc 1 99 18 is_stmt 0 view .LVU52
 292 0000 4FF0C843 		mov	r3, #1677721600
 293 0004 A3F88000 		strh	r0, [r3, #128]	@ movhi
 100:Drivers/LCD_FMC/src/tftLCD.c **** }
 294              		.loc 1 100 1 view .LVU53
 295 0008 7047     		bx	lr
 296              		.cfi_endproc
 297              	.LFE340:
 299              		.section	.text.LCD_BGR2RGB,"ax",%progbits
 300              		.align	1
 301              		.global	LCD_BGR2RGB
 302              		.syntax unified
 303              		.thumb
 304              		.thumb_func
 306              	LCD_BGR2RGB:
 307              	.LVL12:
 308              	.LFB341:
 101:Drivers/LCD_FMC/src/tftLCD.c **** 
 102:Drivers/LCD_FMC/src/tftLCD.c **** //从ILI93xx读出的数据为GBR格式，而我们写入的时候为RGB格式。
 103:Drivers/LCD_FMC/src/tftLCD.c **** //通过该函数转换
 104:Drivers/LCD_FMC/src/tftLCD.c **** //c:GBR格式的颜色值
 105:Drivers/LCD_FMC/src/tftLCD.c **** //返回值：RGB格式的颜色值
 106:Drivers/LCD_FMC/src/tftLCD.c **** uint16_t LCD_BGR2RGB(uint16_t c)
 107:Drivers/LCD_FMC/src/tftLCD.c **** {
 309              		.loc 1 107 1 is_stmt 1 view -0
ARM GAS  C:\usertemp\ccUDQ5mr.s 			page 8


 310              		.cfi_startproc
 311              		@ args = 0, pretend = 0, frame = 0
 312              		@ frame_needed = 0, uses_anonymous_args = 0
 313              		@ link register save eliminated.
 108:Drivers/LCD_FMC/src/tftLCD.c ****     uint16_t  r,g,b,rgb;
 314              		.loc 1 108 5 view .LVU55
 109:Drivers/LCD_FMC/src/tftLCD.c ****     b=(c>>0)&0x1f;
 315              		.loc 1 109 5 view .LVU56
 110:Drivers/LCD_FMC/src/tftLCD.c ****     g=(c>>5)&0x3f;
 316              		.loc 1 110 5 view .LVU57
 317              		.loc 1 110 13 is_stmt 0 view .LVU58
 318 0000 4309     		lsrs	r3, r0, #5
 319              	.LVL13:
 111:Drivers/LCD_FMC/src/tftLCD.c ****     r=(c>>11)&0x1f;
 320              		.loc 1 111 5 is_stmt 1 view .LVU59
 112:Drivers/LCD_FMC/src/tftLCD.c ****     rgb=(b<<11)+(g<<5)+(r<<0);
 321              		.loc 1 112 5 view .LVU60
 322              		.loc 1 112 19 is_stmt 0 view .LVU61
 323 0002 5B01     		lsls	r3, r3, #5
 324              	.LVL14:
 325              		.loc 1 112 19 view .LVU62
 326 0004 03F4FC63 		and	r3, r3, #2016
 327              		.loc 1 112 16 view .LVU63
 328 0008 03EBC023 		add	r3, r3, r0, lsl #11
 329 000c 9BB2     		uxth	r3, r3
 330              		.loc 1 112 8 view .LVU64
 331 000e 03EBD020 		add	r0, r3, r0, lsr #11
 332              	.LVL15:
 113:Drivers/LCD_FMC/src/tftLCD.c ****     return(rgb);
 333              		.loc 1 113 5 is_stmt 1 view .LVU65
 114:Drivers/LCD_FMC/src/tftLCD.c **** }
 334              		.loc 1 114 1 is_stmt 0 view .LVU66
 335 0012 80B2     		uxth	r0, r0
 336              		.loc 1 114 1 view .LVU67
 337 0014 7047     		bx	lr
 338              		.cfi_endproc
 339              	.LFE341:
 341              		.section	.text.opt_delay,"ax",%progbits
 342              		.align	1
 343              		.global	opt_delay
 344              		.syntax unified
 345              		.thumb
 346              		.thumb_func
 348              	opt_delay:
 349              	.LFB342:
 115:Drivers/LCD_FMC/src/tftLCD.c **** 
 116:Drivers/LCD_FMC/src/tftLCD.c **** //当mdk -O1时间优化时需要设置
 117:Drivers/LCD_FMC/src/tftLCD.c **** //延时i
 118:Drivers/LCD_FMC/src/tftLCD.c **** void opt_delay(uint8_t i)
 119:Drivers/LCD_FMC/src/tftLCD.c **** {
 350              		.loc 1 119 1 is_stmt 1 view -0
 351              		.cfi_startproc
 352              		@ args = 0, pretend = 0, frame = 0
 353              		@ frame_needed = 0, uses_anonymous_args = 0
 354              		@ link register save eliminated.
 355              	.LVL16:
 356              	.L18:
ARM GAS  C:\usertemp\ccUDQ5mr.s 			page 9


 120:Drivers/LCD_FMC/src/tftLCD.c ****     while(i--);
 357              		.loc 1 120 11 discriminator 1 view .LVU69
 358 0000 0346     		mov	r3, r0
 359              		.loc 1 120 12 is_stmt 0 discriminator 1 view .LVU70
 360 0002 0138     		subs	r0, r0, #1
 361 0004 C0B2     		uxtb	r0, r0
 362              	.LVL17:
 363              		.loc 1 120 11 discriminator 1 view .LVU71
 364 0006 002B     		cmp	r3, #0
 365 0008 FAD1     		bne	.L18
 121:Drivers/LCD_FMC/src/tftLCD.c **** }
 366              		.loc 1 121 1 view .LVU72
 367 000a 7047     		bx	lr
 368              		.cfi_endproc
 369              	.LFE342:
 371              		.section	.text.LCD_DisplayOn,"ax",%progbits
 372              		.align	1
 373              		.global	LCD_DisplayOn
 374              		.syntax unified
 375              		.thumb
 376              		.thumb_func
 378              	LCD_DisplayOn:
 379              	.LFB344:
 122:Drivers/LCD_FMC/src/tftLCD.c **** 
 123:Drivers/LCD_FMC/src/tftLCD.c **** //读取个某点的颜色值
 124:Drivers/LCD_FMC/src/tftLCD.c **** //x,y:坐标
 125:Drivers/LCD_FMC/src/tftLCD.c **** //返回值:此点的颜色
 126:Drivers/LCD_FMC/src/tftLCD.c **** uint32_t LCD_ReadPoint(uint16_t x,uint16_t y)
 127:Drivers/LCD_FMC/src/tftLCD.c **** {
 128:Drivers/LCD_FMC/src/tftLCD.c ****     uint16_t r=0,g=0,b=0;
 129:Drivers/LCD_FMC/src/tftLCD.c ****     if(x>=lcddev.width||y>=lcddev.height)return 0;			//超过了范围,直接返回
 130:Drivers/LCD_FMC/src/tftLCD.c ****     LCD_SetCursor(x,y);
 131:Drivers/LCD_FMC/src/tftLCD.c ****     if (lcddev.id == 0X5510)    												//5510 发送读GRAM指令
 132:Drivers/LCD_FMC/src/tftLCD.c ****     {
 133:Drivers/LCD_FMC/src/tftLCD.c ****         LCD_WR_REG(0X2E00);
 134:Drivers/LCD_FMC/src/tftLCD.c ****     }
 135:Drivers/LCD_FMC/src/tftLCD.c ****     else                        												//其他IC(9341/5310/1963/7789)发送读GRAM指令
 136:Drivers/LCD_FMC/src/tftLCD.c ****     {
 137:Drivers/LCD_FMC/src/tftLCD.c ****         LCD_WR_REG(0X2E);
 138:Drivers/LCD_FMC/src/tftLCD.c ****     }
 139:Drivers/LCD_FMC/src/tftLCD.c ****     r=LCD_RD_DATA();																		//dummy Read
 140:Drivers/LCD_FMC/src/tftLCD.c ****     if (lcddev.id == 0X1963)    												//对1963来说,是真读
 141:Drivers/LCD_FMC/src/tftLCD.c ****     {
 142:Drivers/LCD_FMC/src/tftLCD.c ****         return r;               												//1963直接读就可以
 143:Drivers/LCD_FMC/src/tftLCD.c ****     }
 144:Drivers/LCD_FMC/src/tftLCD.c ****     opt_delay(2);
 145:Drivers/LCD_FMC/src/tftLCD.c ****     r = LCD_RD_DATA();          												//实际坐标颜色
 146:Drivers/LCD_FMC/src/tftLCD.c **** 
 147:Drivers/LCD_FMC/src/tftLCD.c ****     //9341/5310/5510/7789 要分2次读出
 148:Drivers/LCD_FMC/src/tftLCD.c ****     opt_delay(2);
 149:Drivers/LCD_FMC/src/tftLCD.c ****     b = LCD_RD_DATA();
 150:Drivers/LCD_FMC/src/tftLCD.c ****     g = r & 0XFF;               												//对于9341/5310/5510/7789, 第一次读取的是RG的
 151:Drivers/LCD_FMC/src/tftLCD.c ****     g <<= 8;																						//9341/5310/5510/7789 需要公式转换一下
 152:Drivers/LCD_FMC/src/tftLCD.c ****     return (((r >> 11) << 11) | ((g >> 10) << 5) | (b >> 11));
 153:Drivers/LCD_FMC/src/tftLCD.c **** }
 154:Drivers/LCD_FMC/src/tftLCD.c **** 
 155:Drivers/LCD_FMC/src/tftLCD.c **** //LCD开启显示
ARM GAS  C:\usertemp\ccUDQ5mr.s 			page 10


 156:Drivers/LCD_FMC/src/tftLCD.c **** void LCD_DisplayOn(void)
 157:Drivers/LCD_FMC/src/tftLCD.c **** {
 380              		.loc 1 157 1 is_stmt 1 view -0
 381              		.cfi_startproc
 382              		@ args = 0, pretend = 0, frame = 0
 383              		@ frame_needed = 0, uses_anonymous_args = 0
 384 0000 08B5     		push	{r3, lr}
 385              	.LCFI7:
 386              		.cfi_def_cfa_offset 8
 387              		.cfi_offset 3, -8
 388              		.cfi_offset 14, -4
 158:Drivers/LCD_FMC/src/tftLCD.c ****     if (lcddev.id == 0X5510)    //5510开启显示指令
 389              		.loc 1 158 5 view .LVU74
 390              		.loc 1 158 15 is_stmt 0 view .LVU75
 391 0002 074B     		ldr	r3, .L24
 392 0004 9A88     		ldrh	r2, [r3, #4]
 393              		.loc 1 158 8 view .LVU76
 394 0006 45F21053 		movw	r3, #21776
 395 000a 9A42     		cmp	r2, r3
 396 000c 03D0     		beq	.L23
 159:Drivers/LCD_FMC/src/tftLCD.c ****     {
 160:Drivers/LCD_FMC/src/tftLCD.c ****         LCD_WR_REG(0X2900);     //开启显示
 161:Drivers/LCD_FMC/src/tftLCD.c ****     }
 162:Drivers/LCD_FMC/src/tftLCD.c ****     else                        //9341/5310/1963/7789 等发送开启显示指令
 163:Drivers/LCD_FMC/src/tftLCD.c ****     {
 164:Drivers/LCD_FMC/src/tftLCD.c ****         LCD_WR_REG(0X29);       //开启显示
 397              		.loc 1 164 9 is_stmt 1 view .LVU77
 398 000e 2920     		movs	r0, #41
 399 0010 FFF7FEFF 		bl	LCD_WR_REG
 400              	.LVL18:
 401              	.L19:
 165:Drivers/LCD_FMC/src/tftLCD.c ****     }
 166:Drivers/LCD_FMC/src/tftLCD.c **** }
 402              		.loc 1 166 1 is_stmt 0 view .LVU78
 403 0014 08BD     		pop	{r3, pc}
 404              	.L23:
 160:Drivers/LCD_FMC/src/tftLCD.c ****     }
 405              		.loc 1 160 9 is_stmt 1 view .LVU79
 406 0016 4FF42450 		mov	r0, #10496
 407 001a FFF7FEFF 		bl	LCD_WR_REG
 408              	.LVL19:
 409 001e F9E7     		b	.L19
 410              	.L25:
 411              		.align	2
 412              	.L24:
 413 0020 00000000 		.word	lcddev
 414              		.cfi_endproc
 415              	.LFE344:
 417              		.section	.text.LCD_DisplayOff,"ax",%progbits
 418              		.align	1
 419              		.global	LCD_DisplayOff
 420              		.syntax unified
 421              		.thumb
 422              		.thumb_func
 424              	LCD_DisplayOff:
 425              	.LFB345:
 167:Drivers/LCD_FMC/src/tftLCD.c **** 
ARM GAS  C:\usertemp\ccUDQ5mr.s 			page 11


 168:Drivers/LCD_FMC/src/tftLCD.c **** //LCD关闭显示
 169:Drivers/LCD_FMC/src/tftLCD.c **** void LCD_DisplayOff(void)
 170:Drivers/LCD_FMC/src/tftLCD.c **** {
 426              		.loc 1 170 1 view -0
 427              		.cfi_startproc
 428              		@ args = 0, pretend = 0, frame = 0
 429              		@ frame_needed = 0, uses_anonymous_args = 0
 430 0000 08B5     		push	{r3, lr}
 431              	.LCFI8:
 432              		.cfi_def_cfa_offset 8
 433              		.cfi_offset 3, -8
 434              		.cfi_offset 14, -4
 171:Drivers/LCD_FMC/src/tftLCD.c ****     if (lcddev.id == 0X5510)    //5510关闭显示指令
 435              		.loc 1 171 5 view .LVU81
 436              		.loc 1 171 15 is_stmt 0 view .LVU82
 437 0002 074B     		ldr	r3, .L31
 438 0004 9A88     		ldrh	r2, [r3, #4]
 439              		.loc 1 171 8 view .LVU83
 440 0006 45F21053 		movw	r3, #21776
 441 000a 9A42     		cmp	r2, r3
 442 000c 03D0     		beq	.L30
 172:Drivers/LCD_FMC/src/tftLCD.c ****     {
 173:Drivers/LCD_FMC/src/tftLCD.c ****         LCD_WR_REG(0X2800);     //关闭显示
 174:Drivers/LCD_FMC/src/tftLCD.c ****     }
 175:Drivers/LCD_FMC/src/tftLCD.c ****     else                        //9341/5310/1963/7789 等发送关闭显示指令
 176:Drivers/LCD_FMC/src/tftLCD.c ****     {
 177:Drivers/LCD_FMC/src/tftLCD.c ****         LCD_WR_REG(0X28);       //关闭显示
 443              		.loc 1 177 9 is_stmt 1 view .LVU84
 444 000e 2820     		movs	r0, #40
 445 0010 FFF7FEFF 		bl	LCD_WR_REG
 446              	.LVL20:
 447              	.L26:
 178:Drivers/LCD_FMC/src/tftLCD.c ****     }
 179:Drivers/LCD_FMC/src/tftLCD.c **** }
 448              		.loc 1 179 1 is_stmt 0 view .LVU85
 449 0014 08BD     		pop	{r3, pc}
 450              	.L30:
 173:Drivers/LCD_FMC/src/tftLCD.c ****     }
 451              		.loc 1 173 9 is_stmt 1 view .LVU86
 452 0016 4FF42050 		mov	r0, #10240
 453 001a FFF7FEFF 		bl	LCD_WR_REG
 454              	.LVL21:
 455 001e F9E7     		b	.L26
 456              	.L32:
 457              		.align	2
 458              	.L31:
 459 0020 00000000 		.word	lcddev
 460              		.cfi_endproc
 461              	.LFE345:
 463              		.section	.text.LCD_SetCursor,"ax",%progbits
 464              		.align	1
 465              		.global	LCD_SetCursor
 466              		.syntax unified
 467              		.thumb
 468              		.thumb_func
 470              	LCD_SetCursor:
 471              	.LVL22:
ARM GAS  C:\usertemp\ccUDQ5mr.s 			page 12


 472              	.LFB346:
 180:Drivers/LCD_FMC/src/tftLCD.c **** 
 181:Drivers/LCD_FMC/src/tftLCD.c **** //设置光标位置
 182:Drivers/LCD_FMC/src/tftLCD.c **** //Xpos:横坐标
 183:Drivers/LCD_FMC/src/tftLCD.c **** //Ypos:纵坐标
 184:Drivers/LCD_FMC/src/tftLCD.c **** void LCD_SetCursor(uint16_t Xpos, uint16_t Ypos)
 185:Drivers/LCD_FMC/src/tftLCD.c **** {
 473              		.loc 1 185 1 view -0
 474              		.cfi_startproc
 475              		@ args = 0, pretend = 0, frame = 0
 476              		@ frame_needed = 0, uses_anonymous_args = 0
 477              		.loc 1 185 1 is_stmt 0 view .LVU88
 478 0000 70B5     		push	{r4, r5, r6, lr}
 479              	.LCFI9:
 480              		.cfi_def_cfa_offset 16
 481              		.cfi_offset 4, -16
 482              		.cfi_offset 5, -12
 483              		.cfi_offset 6, -8
 484              		.cfi_offset 14, -4
 485 0002 0546     		mov	r5, r0
 486 0004 0C46     		mov	r4, r1
 186:Drivers/LCD_FMC/src/tftLCD.c ****     if (lcddev.id == 0X1963)
 487              		.loc 1 186 5 is_stmt 1 view .LVU89
 488              		.loc 1 186 15 is_stmt 0 view .LVU90
 489 0006 404B     		ldr	r3, .L42
 490 0008 9B88     		ldrh	r3, [r3, #4]
 491              		.loc 1 186 8 view .LVU91
 492 000a 41F66312 		movw	r2, #6499
 493 000e 9342     		cmp	r3, r2
 494 0010 17D0     		beq	.L40
 187:Drivers/LCD_FMC/src/tftLCD.c ****     {
 188:Drivers/LCD_FMC/src/tftLCD.c ****         if (lcddev.dir == 0)   //x坐标需要变换
 189:Drivers/LCD_FMC/src/tftLCD.c ****         {
 190:Drivers/LCD_FMC/src/tftLCD.c ****             Xpos = lcddev.width - 1 - Xpos;
 191:Drivers/LCD_FMC/src/tftLCD.c ****             LCD_WR_REG(lcddev.setxcmd);
 192:Drivers/LCD_FMC/src/tftLCD.c ****             LCD_WR_DATA(0);
 193:Drivers/LCD_FMC/src/tftLCD.c ****             LCD_WR_DATA(0);
 194:Drivers/LCD_FMC/src/tftLCD.c ****             LCD_WR_DATA(Xpos >> 8);
 195:Drivers/LCD_FMC/src/tftLCD.c ****             LCD_WR_DATA(Xpos & 0XFF);
 196:Drivers/LCD_FMC/src/tftLCD.c ****         }
 197:Drivers/LCD_FMC/src/tftLCD.c ****         else
 198:Drivers/LCD_FMC/src/tftLCD.c ****         {
 199:Drivers/LCD_FMC/src/tftLCD.c ****             LCD_WR_REG(lcddev.setxcmd);
 200:Drivers/LCD_FMC/src/tftLCD.c ****             LCD_WR_DATA(Xpos >> 8);
 201:Drivers/LCD_FMC/src/tftLCD.c ****             LCD_WR_DATA(Xpos & 0XFF);
 202:Drivers/LCD_FMC/src/tftLCD.c ****             LCD_WR_DATA((lcddev.width - 1) >> 8);
 203:Drivers/LCD_FMC/src/tftLCD.c ****             LCD_WR_DATA((lcddev.width - 1) & 0XFF);
 204:Drivers/LCD_FMC/src/tftLCD.c ****         }
 205:Drivers/LCD_FMC/src/tftLCD.c **** 
 206:Drivers/LCD_FMC/src/tftLCD.c ****         LCD_WR_REG(lcddev.setycmd);
 207:Drivers/LCD_FMC/src/tftLCD.c ****         LCD_WR_DATA(Ypos >> 8);
 208:Drivers/LCD_FMC/src/tftLCD.c ****         LCD_WR_DATA(Ypos & 0XFF);
 209:Drivers/LCD_FMC/src/tftLCD.c ****         LCD_WR_DATA((lcddev.height - 1) >> 8);
 210:Drivers/LCD_FMC/src/tftLCD.c ****         LCD_WR_DATA((lcddev.height - 1) & 0XFF);
 211:Drivers/LCD_FMC/src/tftLCD.c **** 
 212:Drivers/LCD_FMC/src/tftLCD.c ****     }
 213:Drivers/LCD_FMC/src/tftLCD.c ****     else if (lcddev.id == 0X5510)
ARM GAS  C:\usertemp\ccUDQ5mr.s 			page 13


 495              		.loc 1 213 10 is_stmt 1 view .LVU92
 496              		.loc 1 213 13 is_stmt 0 view .LVU93
 497 0012 45F21052 		movw	r2, #21776
 498 0016 9342     		cmp	r3, r2
 499 0018 57D0     		beq	.L41
 214:Drivers/LCD_FMC/src/tftLCD.c ****     {
 215:Drivers/LCD_FMC/src/tftLCD.c ****         LCD_WR_REG(lcddev.setxcmd);
 216:Drivers/LCD_FMC/src/tftLCD.c ****         LCD_WR_DATA(Xpos >> 8);
 217:Drivers/LCD_FMC/src/tftLCD.c ****         LCD_WR_REG(lcddev.setxcmd + 1);
 218:Drivers/LCD_FMC/src/tftLCD.c ****         LCD_WR_DATA(Xpos & 0XFF);
 219:Drivers/LCD_FMC/src/tftLCD.c ****         LCD_WR_REG(lcddev.setycmd);
 220:Drivers/LCD_FMC/src/tftLCD.c ****         LCD_WR_DATA(Ypos >> 8);
 221:Drivers/LCD_FMC/src/tftLCD.c ****         LCD_WR_REG(lcddev.setycmd + 1);
 222:Drivers/LCD_FMC/src/tftLCD.c ****         LCD_WR_DATA(Ypos & 0XFF);
 223:Drivers/LCD_FMC/src/tftLCD.c ****     }
 224:Drivers/LCD_FMC/src/tftLCD.c ****     else     //9341/5310/7789等设置坐标
 225:Drivers/LCD_FMC/src/tftLCD.c ****     {
 226:Drivers/LCD_FMC/src/tftLCD.c ****         LCD_WR_REG(lcddev.setxcmd);
 500              		.loc 1 226 9 is_stmt 1 view .LVU94
 501 001a 3B4E     		ldr	r6, .L42
 502 001c 7089     		ldrh	r0, [r6, #10]
 503              	.LVL23:
 504              		.loc 1 226 9 is_stmt 0 view .LVU95
 505 001e FFF7FEFF 		bl	LCD_WR_REG
 506              	.LVL24:
 227:Drivers/LCD_FMC/src/tftLCD.c ****         LCD_WR_DATA(Xpos >> 8);
 507              		.loc 1 227 9 is_stmt 1 view .LVU96
 508 0022 280A     		lsrs	r0, r5, #8
 509 0024 FFF7FEFF 		bl	LCD_WR_DATA
 510              	.LVL25:
 228:Drivers/LCD_FMC/src/tftLCD.c ****         LCD_WR_DATA(Xpos & 0XFF);
 511              		.loc 1 228 9 view .LVU97
 512 0028 E8B2     		uxtb	r0, r5
 513 002a FFF7FEFF 		bl	LCD_WR_DATA
 514              	.LVL26:
 229:Drivers/LCD_FMC/src/tftLCD.c ****         LCD_WR_REG(lcddev.setycmd);
 515              		.loc 1 229 9 view .LVU98
 516 002e B089     		ldrh	r0, [r6, #12]
 517 0030 FFF7FEFF 		bl	LCD_WR_REG
 518              	.LVL27:
 230:Drivers/LCD_FMC/src/tftLCD.c ****         LCD_WR_DATA(Ypos >> 8);
 519              		.loc 1 230 9 view .LVU99
 520 0034 200A     		lsrs	r0, r4, #8
 521 0036 FFF7FEFF 		bl	LCD_WR_DATA
 522              	.LVL28:
 231:Drivers/LCD_FMC/src/tftLCD.c ****         LCD_WR_DATA(Ypos & 0XFF);
 523              		.loc 1 231 9 view .LVU100
 524 003a E0B2     		uxtb	r0, r4
 525 003c FFF7FEFF 		bl	LCD_WR_DATA
 526              	.LVL29:
 527              	.L33:
 232:Drivers/LCD_FMC/src/tftLCD.c ****     }
 233:Drivers/LCD_FMC/src/tftLCD.c **** }
 528              		.loc 1 233 1 is_stmt 0 view .LVU101
 529 0040 70BD     		pop	{r4, r5, r6, pc}
 530              	.LVL30:
 531              	.L40:
ARM GAS  C:\usertemp\ccUDQ5mr.s 			page 14


 188:Drivers/LCD_FMC/src/tftLCD.c ****         {
 532              		.loc 1 188 9 is_stmt 1 view .LVU102
 188:Drivers/LCD_FMC/src/tftLCD.c ****         {
 533              		.loc 1 188 19 is_stmt 0 view .LVU103
 534 0042 314B     		ldr	r3, .L42
 535 0044 9B79     		ldrb	r3, [r3, #6]	@ zero_extendqisi2
 188:Drivers/LCD_FMC/src/tftLCD.c ****         {
 536              		.loc 1 188 12 view .LVU104
 537 0046 53BB     		cbnz	r3, .L35
 190:Drivers/LCD_FMC/src/tftLCD.c ****             LCD_WR_REG(lcddev.setxcmd);
 538              		.loc 1 190 13 is_stmt 1 view .LVU105
 190:Drivers/LCD_FMC/src/tftLCD.c ****             LCD_WR_REG(lcddev.setxcmd);
 539              		.loc 1 190 26 is_stmt 0 view .LVU106
 540 0048 2F4A     		ldr	r2, .L42
 541 004a 1388     		ldrh	r3, [r2]
 190:Drivers/LCD_FMC/src/tftLCD.c ****             LCD_WR_REG(lcddev.setxcmd);
 542              		.loc 1 190 37 view .LVU107
 543 004c 1D1A     		subs	r5, r3, r0
 544 004e ADB2     		uxth	r5, r5
 190:Drivers/LCD_FMC/src/tftLCD.c ****             LCD_WR_REG(lcddev.setxcmd);
 545              		.loc 1 190 18 view .LVU108
 546 0050 013D     		subs	r5, r5, #1
 547 0052 ADB2     		uxth	r5, r5
 548              	.LVL31:
 191:Drivers/LCD_FMC/src/tftLCD.c ****             LCD_WR_DATA(0);
 549              		.loc 1 191 13 is_stmt 1 view .LVU109
 550 0054 5089     		ldrh	r0, [r2, #10]
 551 0056 FFF7FEFF 		bl	LCD_WR_REG
 552              	.LVL32:
 192:Drivers/LCD_FMC/src/tftLCD.c ****             LCD_WR_DATA(0);
 553              		.loc 1 192 13 view .LVU110
 554 005a 0020     		movs	r0, #0
 555 005c FFF7FEFF 		bl	LCD_WR_DATA
 556              	.LVL33:
 193:Drivers/LCD_FMC/src/tftLCD.c ****             LCD_WR_DATA(Xpos >> 8);
 557              		.loc 1 193 13 view .LVU111
 558 0060 0020     		movs	r0, #0
 559 0062 FFF7FEFF 		bl	LCD_WR_DATA
 560              	.LVL34:
 194:Drivers/LCD_FMC/src/tftLCD.c ****             LCD_WR_DATA(Xpos & 0XFF);
 561              		.loc 1 194 13 view .LVU112
 562 0066 280A     		lsrs	r0, r5, #8
 563 0068 FFF7FEFF 		bl	LCD_WR_DATA
 564              	.LVL35:
 195:Drivers/LCD_FMC/src/tftLCD.c ****         }
 565              		.loc 1 195 13 view .LVU113
 566 006c E8B2     		uxtb	r0, r5
 567 006e FFF7FEFF 		bl	LCD_WR_DATA
 568              	.LVL36:
 569              	.L36:
 206:Drivers/LCD_FMC/src/tftLCD.c ****         LCD_WR_DATA(Ypos >> 8);
 570              		.loc 1 206 9 view .LVU114
 571 0072 254D     		ldr	r5, .L42
 572 0074 A889     		ldrh	r0, [r5, #12]
 573 0076 FFF7FEFF 		bl	LCD_WR_REG
 574              	.LVL37:
 207:Drivers/LCD_FMC/src/tftLCD.c ****         LCD_WR_DATA(Ypos & 0XFF);
ARM GAS  C:\usertemp\ccUDQ5mr.s 			page 15


 575              		.loc 1 207 9 view .LVU115
 576 007a 200A     		lsrs	r0, r4, #8
 577 007c FFF7FEFF 		bl	LCD_WR_DATA
 578              	.LVL38:
 208:Drivers/LCD_FMC/src/tftLCD.c ****         LCD_WR_DATA((lcddev.height - 1) >> 8);
 579              		.loc 1 208 9 view .LVU116
 580 0080 E0B2     		uxtb	r0, r4
 581 0082 FFF7FEFF 		bl	LCD_WR_DATA
 582              	.LVL39:
 209:Drivers/LCD_FMC/src/tftLCD.c ****         LCD_WR_DATA((lcddev.height - 1) & 0XFF);
 583              		.loc 1 209 9 view .LVU117
 209:Drivers/LCD_FMC/src/tftLCD.c ****         LCD_WR_DATA((lcddev.height - 1) & 0XFF);
 584              		.loc 1 209 28 is_stmt 0 view .LVU118
 585 0086 6888     		ldrh	r0, [r5, #2]
 209:Drivers/LCD_FMC/src/tftLCD.c ****         LCD_WR_DATA((lcddev.height - 1) & 0XFF);
 586              		.loc 1 209 36 view .LVU119
 587 0088 0138     		subs	r0, r0, #1
 209:Drivers/LCD_FMC/src/tftLCD.c ****         LCD_WR_DATA((lcddev.height - 1) & 0XFF);
 588              		.loc 1 209 9 view .LVU120
 589 008a C0F30F20 		ubfx	r0, r0, #8, #16
 590 008e FFF7FEFF 		bl	LCD_WR_DATA
 591              	.LVL40:
 210:Drivers/LCD_FMC/src/tftLCD.c **** 
 592              		.loc 1 210 9 is_stmt 1 view .LVU121
 210:Drivers/LCD_FMC/src/tftLCD.c **** 
 593              		.loc 1 210 28 is_stmt 0 view .LVU122
 594 0092 6888     		ldrh	r0, [r5, #2]
 210:Drivers/LCD_FMC/src/tftLCD.c **** 
 595              		.loc 1 210 36 view .LVU123
 596 0094 0138     		subs	r0, r0, #1
 210:Drivers/LCD_FMC/src/tftLCD.c **** 
 597              		.loc 1 210 9 view .LVU124
 598 0096 C0B2     		uxtb	r0, r0
 599 0098 FFF7FEFF 		bl	LCD_WR_DATA
 600              	.LVL41:
 601 009c D0E7     		b	.L33
 602              	.LVL42:
 603              	.L35:
 199:Drivers/LCD_FMC/src/tftLCD.c ****             LCD_WR_DATA(Xpos >> 8);
 604              		.loc 1 199 13 is_stmt 1 view .LVU125
 605 009e 1A4E     		ldr	r6, .L42
 606 00a0 7089     		ldrh	r0, [r6, #10]
 607              	.LVL43:
 199:Drivers/LCD_FMC/src/tftLCD.c ****             LCD_WR_DATA(Xpos >> 8);
 608              		.loc 1 199 13 is_stmt 0 view .LVU126
 609 00a2 FFF7FEFF 		bl	LCD_WR_REG
 610              	.LVL44:
 200:Drivers/LCD_FMC/src/tftLCD.c ****             LCD_WR_DATA(Xpos & 0XFF);
 611              		.loc 1 200 13 is_stmt 1 view .LVU127
 612 00a6 280A     		lsrs	r0, r5, #8
 613 00a8 FFF7FEFF 		bl	LCD_WR_DATA
 614              	.LVL45:
 201:Drivers/LCD_FMC/src/tftLCD.c ****             LCD_WR_DATA((lcddev.width - 1) >> 8);
 615              		.loc 1 201 13 view .LVU128
 616 00ac E8B2     		uxtb	r0, r5
 617 00ae FFF7FEFF 		bl	LCD_WR_DATA
 618              	.LVL46:
ARM GAS  C:\usertemp\ccUDQ5mr.s 			page 16


 202:Drivers/LCD_FMC/src/tftLCD.c ****             LCD_WR_DATA((lcddev.width - 1) & 0XFF);
 619              		.loc 1 202 13 view .LVU129
 202:Drivers/LCD_FMC/src/tftLCD.c ****             LCD_WR_DATA((lcddev.width - 1) & 0XFF);
 620              		.loc 1 202 32 is_stmt 0 view .LVU130
 621 00b2 3088     		ldrh	r0, [r6]
 202:Drivers/LCD_FMC/src/tftLCD.c ****             LCD_WR_DATA((lcddev.width - 1) & 0XFF);
 622              		.loc 1 202 39 view .LVU131
 623 00b4 0138     		subs	r0, r0, #1
 202:Drivers/LCD_FMC/src/tftLCD.c ****             LCD_WR_DATA((lcddev.width - 1) & 0XFF);
 624              		.loc 1 202 13 view .LVU132
 625 00b6 C0F30F20 		ubfx	r0, r0, #8, #16
 626 00ba FFF7FEFF 		bl	LCD_WR_DATA
 627              	.LVL47:
 203:Drivers/LCD_FMC/src/tftLCD.c ****         }
 628              		.loc 1 203 13 is_stmt 1 view .LVU133
 203:Drivers/LCD_FMC/src/tftLCD.c ****         }
 629              		.loc 1 203 32 is_stmt 0 view .LVU134
 630 00be 3088     		ldrh	r0, [r6]
 203:Drivers/LCD_FMC/src/tftLCD.c ****         }
 631              		.loc 1 203 39 view .LVU135
 632 00c0 0138     		subs	r0, r0, #1
 203:Drivers/LCD_FMC/src/tftLCD.c ****         }
 633              		.loc 1 203 13 view .LVU136
 634 00c2 C0B2     		uxtb	r0, r0
 635 00c4 FFF7FEFF 		bl	LCD_WR_DATA
 636              	.LVL48:
 637 00c8 D3E7     		b	.L36
 638              	.LVL49:
 639              	.L41:
 215:Drivers/LCD_FMC/src/tftLCD.c ****         LCD_WR_DATA(Xpos >> 8);
 640              		.loc 1 215 9 is_stmt 1 view .LVU137
 641 00ca 0F4E     		ldr	r6, .L42
 642 00cc 7089     		ldrh	r0, [r6, #10]
 643              	.LVL50:
 215:Drivers/LCD_FMC/src/tftLCD.c ****         LCD_WR_DATA(Xpos >> 8);
 644              		.loc 1 215 9 is_stmt 0 view .LVU138
 645 00ce FFF7FEFF 		bl	LCD_WR_REG
 646              	.LVL51:
 216:Drivers/LCD_FMC/src/tftLCD.c ****         LCD_WR_REG(lcddev.setxcmd + 1);
 647              		.loc 1 216 9 is_stmt 1 view .LVU139
 648 00d2 280A     		lsrs	r0, r5, #8
 649 00d4 FFF7FEFF 		bl	LCD_WR_DATA
 650              	.LVL52:
 217:Drivers/LCD_FMC/src/tftLCD.c ****         LCD_WR_DATA(Xpos & 0XFF);
 651              		.loc 1 217 9 view .LVU140
 217:Drivers/LCD_FMC/src/tftLCD.c ****         LCD_WR_DATA(Xpos & 0XFF);
 652              		.loc 1 217 26 is_stmt 0 view .LVU141
 653 00d8 7089     		ldrh	r0, [r6, #10]
 217:Drivers/LCD_FMC/src/tftLCD.c ****         LCD_WR_DATA(Xpos & 0XFF);
 654              		.loc 1 217 9 view .LVU142
 655 00da 0130     		adds	r0, r0, #1
 656 00dc 80B2     		uxth	r0, r0
 657 00de FFF7FEFF 		bl	LCD_WR_REG
 658              	.LVL53:
 218:Drivers/LCD_FMC/src/tftLCD.c ****         LCD_WR_REG(lcddev.setycmd);
 659              		.loc 1 218 9 is_stmt 1 view .LVU143
 660 00e2 E8B2     		uxtb	r0, r5
ARM GAS  C:\usertemp\ccUDQ5mr.s 			page 17


 661 00e4 FFF7FEFF 		bl	LCD_WR_DATA
 662              	.LVL54:
 219:Drivers/LCD_FMC/src/tftLCD.c ****         LCD_WR_DATA(Ypos >> 8);
 663              		.loc 1 219 9 view .LVU144
 664 00e8 B089     		ldrh	r0, [r6, #12]
 665 00ea FFF7FEFF 		bl	LCD_WR_REG
 666              	.LVL55:
 220:Drivers/LCD_FMC/src/tftLCD.c ****         LCD_WR_REG(lcddev.setycmd + 1);
 667              		.loc 1 220 9 view .LVU145
 668 00ee 200A     		lsrs	r0, r4, #8
 669 00f0 FFF7FEFF 		bl	LCD_WR_DATA
 670              	.LVL56:
 221:Drivers/LCD_FMC/src/tftLCD.c ****         LCD_WR_DATA(Ypos & 0XFF);
 671              		.loc 1 221 9 view .LVU146
 221:Drivers/LCD_FMC/src/tftLCD.c ****         LCD_WR_DATA(Ypos & 0XFF);
 672              		.loc 1 221 26 is_stmt 0 view .LVU147
 673 00f4 B089     		ldrh	r0, [r6, #12]
 221:Drivers/LCD_FMC/src/tftLCD.c ****         LCD_WR_DATA(Ypos & 0XFF);
 674              		.loc 1 221 9 view .LVU148
 675 00f6 0130     		adds	r0, r0, #1
 676 00f8 80B2     		uxth	r0, r0
 677 00fa FFF7FEFF 		bl	LCD_WR_REG
 678              	.LVL57:
 222:Drivers/LCD_FMC/src/tftLCD.c ****     }
 679              		.loc 1 222 9 is_stmt 1 view .LVU149
 680 00fe E0B2     		uxtb	r0, r4
 681 0100 FFF7FEFF 		bl	LCD_WR_DATA
 682              	.LVL58:
 683 0104 9CE7     		b	.L33
 684              	.L43:
 685 0106 00BF     		.align	2
 686              	.L42:
 687 0108 00000000 		.word	lcddev
 688              		.cfi_endproc
 689              	.LFE346:
 691              		.section	.text.LCD_ReadPoint,"ax",%progbits
 692              		.align	1
 693              		.global	LCD_ReadPoint
 694              		.syntax unified
 695              		.thumb
 696              		.thumb_func
 698              	LCD_ReadPoint:
 699              	.LVL59:
 700              	.LFB343:
 127:Drivers/LCD_FMC/src/tftLCD.c ****     uint16_t r=0,g=0,b=0;
 701              		.loc 1 127 1 view -0
 702              		.cfi_startproc
 703              		@ args = 0, pretend = 0, frame = 0
 704              		@ frame_needed = 0, uses_anonymous_args = 0
 128:Drivers/LCD_FMC/src/tftLCD.c ****     if(x>=lcddev.width||y>=lcddev.height)return 0;			//超过了范围,直接返回
 705              		.loc 1 128 5 view .LVU151
 129:Drivers/LCD_FMC/src/tftLCD.c ****     LCD_SetCursor(x,y);
 706              		.loc 1 129 5 view .LVU152
 129:Drivers/LCD_FMC/src/tftLCD.c ****     LCD_SetCursor(x,y);
 707              		.loc 1 129 17 is_stmt 0 view .LVU153
 708 0000 1A4B     		ldr	r3, .L57
 709 0002 1B88     		ldrh	r3, [r3]
ARM GAS  C:\usertemp\ccUDQ5mr.s 			page 18


 129:Drivers/LCD_FMC/src/tftLCD.c ****     LCD_SetCursor(x,y);
 710              		.loc 1 129 7 view .LVU154
 711 0004 8342     		cmp	r3, r0
 712 0006 2ED9     		bls	.L49
 129:Drivers/LCD_FMC/src/tftLCD.c ****     LCD_SetCursor(x,y);
 713              		.loc 1 129 34 discriminator 2 view .LVU155
 714 0008 184B     		ldr	r3, .L57
 715 000a 5B88     		ldrh	r3, [r3, #2]
 129:Drivers/LCD_FMC/src/tftLCD.c ****     LCD_SetCursor(x,y);
 716              		.loc 1 129 23 discriminator 2 view .LVU156
 717 000c 8B42     		cmp	r3, r1
 718 000e 01D8     		bhi	.L55
 129:Drivers/LCD_FMC/src/tftLCD.c ****     LCD_SetCursor(x,y);
 719              		.loc 1 129 49 discriminator 3 view .LVU157
 720 0010 0020     		movs	r0, #0
 721              	.LVL60:
 153:Drivers/LCD_FMC/src/tftLCD.c **** 
 722              		.loc 1 153 1 view .LVU158
 723 0012 7047     		bx	lr
 724              	.LVL61:
 725              	.L55:
 127:Drivers/LCD_FMC/src/tftLCD.c ****     uint16_t r=0,g=0,b=0;
 726              		.loc 1 127 1 view .LVU159
 727 0014 10B5     		push	{r4, lr}
 728              	.LCFI10:
 729              		.cfi_def_cfa_offset 8
 730              		.cfi_offset 4, -8
 731              		.cfi_offset 14, -4
 130:Drivers/LCD_FMC/src/tftLCD.c ****     if (lcddev.id == 0X5510)    												//5510 发送读GRAM指令
 732              		.loc 1 130 5 is_stmt 1 view .LVU160
 733 0016 FFF7FEFF 		bl	LCD_SetCursor
 734              	.LVL62:
 131:Drivers/LCD_FMC/src/tftLCD.c ****     {
 735              		.loc 1 131 5 view .LVU161
 131:Drivers/LCD_FMC/src/tftLCD.c ****     {
 736              		.loc 1 131 15 is_stmt 0 view .LVU162
 737 001a 144B     		ldr	r3, .L57
 738 001c 9A88     		ldrh	r2, [r3, #4]
 131:Drivers/LCD_FMC/src/tftLCD.c ****     {
 739              		.loc 1 131 8 view .LVU163
 740 001e 45F21053 		movw	r3, #21776
 741 0022 9A42     		cmp	r2, r3
 742 0024 1AD0     		beq	.L56
 137:Drivers/LCD_FMC/src/tftLCD.c ****     }
 743              		.loc 1 137 9 is_stmt 1 view .LVU164
 744 0026 2E20     		movs	r0, #46
 745 0028 FFF7FEFF 		bl	LCD_WR_REG
 746              	.LVL63:
 747              	.L47:
 139:Drivers/LCD_FMC/src/tftLCD.c ****     if (lcddev.id == 0X1963)    												//对1963来说,是真读
 748              		.loc 1 139 5 view .LVU165
 139:Drivers/LCD_FMC/src/tftLCD.c ****     if (lcddev.id == 0X1963)    												//对1963来说,是真读
 749              		.loc 1 139 7 is_stmt 0 view .LVU166
 750 002c FFF7FEFF 		bl	LCD_RD_DATA
 751              	.LVL64:
 140:Drivers/LCD_FMC/src/tftLCD.c ****     {
 752              		.loc 1 140 5 is_stmt 1 view .LVU167
ARM GAS  C:\usertemp\ccUDQ5mr.s 			page 19


 140:Drivers/LCD_FMC/src/tftLCD.c ****     {
 753              		.loc 1 140 15 is_stmt 0 view .LVU168
 754 0030 0E4B     		ldr	r3, .L57
 755 0032 9A88     		ldrh	r2, [r3, #4]
 140:Drivers/LCD_FMC/src/tftLCD.c ****     {
 756              		.loc 1 140 8 view .LVU169
 757 0034 41F66313 		movw	r3, #6499
 758 0038 9A42     		cmp	r2, r3
 759 003a 0ED0     		beq	.L44
 144:Drivers/LCD_FMC/src/tftLCD.c ****     r = LCD_RD_DATA();          												//实际坐标颜色
 760              		.loc 1 144 5 is_stmt 1 view .LVU170
 145:Drivers/LCD_FMC/src/tftLCD.c **** 
 761              		.loc 1 145 5 view .LVU171
 145:Drivers/LCD_FMC/src/tftLCD.c **** 
 762              		.loc 1 145 9 is_stmt 0 view .LVU172
 763 003c FFF7FEFF 		bl	LCD_RD_DATA
 764              	.LVL65:
 145:Drivers/LCD_FMC/src/tftLCD.c **** 
 765              		.loc 1 145 9 view .LVU173
 766 0040 0446     		mov	r4, r0
 767              	.LVL66:
 148:Drivers/LCD_FMC/src/tftLCD.c ****     b = LCD_RD_DATA();
 768              		.loc 1 148 5 is_stmt 1 view .LVU174
 149:Drivers/LCD_FMC/src/tftLCD.c ****     g = r & 0XFF;               												//对于9341/5310/5510/7789, 第一次读取的是RG的
 769              		.loc 1 149 5 view .LVU175
 149:Drivers/LCD_FMC/src/tftLCD.c ****     g = r & 0XFF;               												//对于9341/5310/5510/7789, 第一次读取的是RG的
 770              		.loc 1 149 9 is_stmt 0 view .LVU176
 771 0042 FFF7FEFF 		bl	LCD_RD_DATA
 772              	.LVL67:
 150:Drivers/LCD_FMC/src/tftLCD.c ****     g <<= 8;																						//9341/5310/5510/7789 需要公式转换一下
 773              		.loc 1 150 5 is_stmt 1 view .LVU177
 151:Drivers/LCD_FMC/src/tftLCD.c ****     return (((r >> 11) << 11) | ((g >> 10) << 5) | (b >> 11));
 774              		.loc 1 151 5 view .LVU178
 152:Drivers/LCD_FMC/src/tftLCD.c **** }
 775              		.loc 1 152 5 view .LVU179
 152:Drivers/LCD_FMC/src/tftLCD.c **** }
 776              		.loc 1 152 17 is_stmt 0 view .LVU180
 777 0046 C4F3CF23 		ubfx	r3, r4, #11, #16
 152:Drivers/LCD_FMC/src/tftLCD.c **** }
 778              		.loc 1 152 37 view .LVU181
 779 004a C4F38504 		ubfx	r4, r4, #2, #6
 780              	.LVL68:
 152:Drivers/LCD_FMC/src/tftLCD.c **** }
 781              		.loc 1 152 44 view .LVU182
 782 004e 6401     		lsls	r4, r4, #5
 152:Drivers/LCD_FMC/src/tftLCD.c **** }
 783              		.loc 1 152 31 view .LVU183
 784 0050 44EAC324 		orr	r4, r4, r3, lsl #11
 152:Drivers/LCD_FMC/src/tftLCD.c **** }
 785              		.loc 1 152 55 view .LVU184
 786 0054 C0F3CF20 		ubfx	r0, r0, #11, #16
 787              	.LVL69:
 152:Drivers/LCD_FMC/src/tftLCD.c **** }
 788              		.loc 1 152 50 view .LVU185
 789 0058 2043     		orrs	r0, r0, r4
 790              	.LVL70:
 791              	.L44:
ARM GAS  C:\usertemp\ccUDQ5mr.s 			page 20


 153:Drivers/LCD_FMC/src/tftLCD.c **** 
 792              		.loc 1 153 1 view .LVU186
 793 005a 10BD     		pop	{r4, pc}
 794              	.LVL71:
 795              	.L56:
 133:Drivers/LCD_FMC/src/tftLCD.c ****     }
 796              		.loc 1 133 9 is_stmt 1 view .LVU187
 797 005c 4FF43850 		mov	r0, #11776
 798 0060 FFF7FEFF 		bl	LCD_WR_REG
 799              	.LVL72:
 800 0064 E2E7     		b	.L47
 801              	.LVL73:
 802              	.L49:
 803              	.LCFI11:
 804              		.cfi_def_cfa_offset 0
 805              		.cfi_restore 4
 806              		.cfi_restore 14
 129:Drivers/LCD_FMC/src/tftLCD.c ****     LCD_SetCursor(x,y);
 807              		.loc 1 129 49 is_stmt 0 discriminator 3 view .LVU188
 808 0066 0020     		movs	r0, #0
 809              	.LVL74:
 129:Drivers/LCD_FMC/src/tftLCD.c ****     LCD_SetCursor(x,y);
 810              		.loc 1 129 49 discriminator 3 view .LVU189
 811 0068 7047     		bx	lr
 812              	.L58:
 813 006a 00BF     		.align	2
 814              	.L57:
 815 006c 00000000 		.word	lcddev
 816              		.cfi_endproc
 817              	.LFE343:
 819              		.section	.text.LCD_Scan_Dir,"ax",%progbits
 820              		.align	1
 821              		.global	LCD_Scan_Dir
 822              		.syntax unified
 823              		.thumb
 824              		.thumb_func
 826              	LCD_Scan_Dir:
 827              	.LVL75:
 828              	.LFB347:
 234:Drivers/LCD_FMC/src/tftLCD.c **** 
 235:Drivers/LCD_FMC/src/tftLCD.c **** //设置LCD的自动扫描方向
 236:Drivers/LCD_FMC/src/tftLCD.c **** //dir:0~7,代表8个方向(具体定义见lcd.h)
 237:Drivers/LCD_FMC/src/tftLCD.c **** //9341/5310/5510/1963/7789等IC已经实际测试
 238:Drivers/LCD_FMC/src/tftLCD.c **** //注意:其他函数可能会受到此函数设置的影响(尤其是9341),
 239:Drivers/LCD_FMC/src/tftLCD.c **** //所以,一般设置为L2R_U2D即可,如果设置为其他扫描方式,可能导致显示不正常
 240:Drivers/LCD_FMC/src/tftLCD.c **** void LCD_Scan_Dir(uint8_t dir)
 241:Drivers/LCD_FMC/src/tftLCD.c **** {
 829              		.loc 1 241 1 is_stmt 1 view -0
 830              		.cfi_startproc
 831              		@ args = 0, pretend = 0, frame = 0
 832              		@ frame_needed = 0, uses_anonymous_args = 0
 833              		.loc 1 241 1 is_stmt 0 view .LVU191
 834 0000 10B5     		push	{r4, lr}
 835              	.LCFI12:
 836              		.cfi_def_cfa_offset 8
 837              		.cfi_offset 4, -8
 838              		.cfi_offset 14, -4
ARM GAS  C:\usertemp\ccUDQ5mr.s 			page 21


 242:Drivers/LCD_FMC/src/tftLCD.c ****     uint16_t regval=0;
 839              		.loc 1 242 5 is_stmt 1 view .LVU192
 840              	.LVL76:
 243:Drivers/LCD_FMC/src/tftLCD.c ****     uint16_t dirreg=0;
 841              		.loc 1 243 5 view .LVU193
 244:Drivers/LCD_FMC/src/tftLCD.c ****     uint16_t temp;
 842              		.loc 1 244 5 view .LVU194
 245:Drivers/LCD_FMC/src/tftLCD.c ****     //横屏时，对1963不改变扫描方向, 其他IC改变扫描方向！竖屏时1963改变方
 246:Drivers/LCD_FMC/src/tftLCD.c ****     if ((lcddev.dir == 1 && lcddev.id != 0X1963) || (lcddev.dir == 0 && lcddev.id == 0X1963))
 843              		.loc 1 246 5 view .LVU195
 844              		.loc 1 246 16 is_stmt 0 view .LVU196
 845 0002 744B     		ldr	r3, .L93
 846 0004 9B79     		ldrb	r3, [r3, #6]	@ zero_extendqisi2
 847              		.loc 1 246 8 view .LVU197
 848 0006 012B     		cmp	r3, #1
 849 0008 10D0     		beq	.L90
 850              	.L60:
 851              		.loc 1 246 50 discriminator 3 view .LVU198
 852 000a 2BB9     		cbnz	r3, .L62
 853              		.loc 1 246 79 discriminator 4 view .LVU199
 854 000c 714B     		ldr	r3, .L93
 855 000e 9A88     		ldrh	r2, [r3, #4]
 856              		.loc 1 246 70 discriminator 4 view .LVU200
 857 0010 41F66313 		movw	r3, #6499
 858 0014 9A42     		cmp	r2, r3
 859 0016 0FD0     		beq	.L61
 860              	.L62:
 247:Drivers/LCD_FMC/src/tftLCD.c ****     {
 248:Drivers/LCD_FMC/src/tftLCD.c ****         switch (dir)   //方向转换
 249:Drivers/LCD_FMC/src/tftLCD.c ****         {
 250:Drivers/LCD_FMC/src/tftLCD.c ****             case 0:
 251:Drivers/LCD_FMC/src/tftLCD.c ****                 dir = 6;
 252:Drivers/LCD_FMC/src/tftLCD.c ****                 break;
 253:Drivers/LCD_FMC/src/tftLCD.c **** 
 254:Drivers/LCD_FMC/src/tftLCD.c ****             case 1:
 255:Drivers/LCD_FMC/src/tftLCD.c ****                 dir = 7;
 256:Drivers/LCD_FMC/src/tftLCD.c ****                 break;
 257:Drivers/LCD_FMC/src/tftLCD.c **** 
 258:Drivers/LCD_FMC/src/tftLCD.c ****             case 2:
 259:Drivers/LCD_FMC/src/tftLCD.c ****                 dir = 4;
 260:Drivers/LCD_FMC/src/tftLCD.c ****                 break;
 261:Drivers/LCD_FMC/src/tftLCD.c **** 
 262:Drivers/LCD_FMC/src/tftLCD.c ****             case 3:
 263:Drivers/LCD_FMC/src/tftLCD.c ****                 dir = 5;
 264:Drivers/LCD_FMC/src/tftLCD.c ****                 break;
 265:Drivers/LCD_FMC/src/tftLCD.c **** 
 266:Drivers/LCD_FMC/src/tftLCD.c ****             case 4:
 267:Drivers/LCD_FMC/src/tftLCD.c ****                 dir = 1;
 268:Drivers/LCD_FMC/src/tftLCD.c ****                 break;
 269:Drivers/LCD_FMC/src/tftLCD.c **** 
 270:Drivers/LCD_FMC/src/tftLCD.c ****             case 5:
 271:Drivers/LCD_FMC/src/tftLCD.c ****                 dir = 0;
 272:Drivers/LCD_FMC/src/tftLCD.c ****                 break;
 273:Drivers/LCD_FMC/src/tftLCD.c **** 
 274:Drivers/LCD_FMC/src/tftLCD.c ****             case 6:
 275:Drivers/LCD_FMC/src/tftLCD.c ****                 dir = 3;
 276:Drivers/LCD_FMC/src/tftLCD.c ****                 break;
ARM GAS  C:\usertemp\ccUDQ5mr.s 			page 22


 277:Drivers/LCD_FMC/src/tftLCD.c **** 
 278:Drivers/LCD_FMC/src/tftLCD.c ****             case 7:
 279:Drivers/LCD_FMC/src/tftLCD.c ****                 dir = 2;
 280:Drivers/LCD_FMC/src/tftLCD.c ****                 break;
 281:Drivers/LCD_FMC/src/tftLCD.c ****         }
 282:Drivers/LCD_FMC/src/tftLCD.c ****     }
 283:Drivers/LCD_FMC/src/tftLCD.c **** 
 284:Drivers/LCD_FMC/src/tftLCD.c ****     switch (dir)
 861              		.loc 1 284 5 is_stmt 1 view .LVU201
 862 0018 0138     		subs	r0, r0, #1
 863              	.LVL77:
 864              		.loc 1 284 5 is_stmt 0 view .LVU202
 865 001a 0628     		cmp	r0, #6
 866 001c 00F28480 		bhi	.L87
 867 0020 DFE800F0 		tbb	[pc, r0]
 868              	.L73:
 869 0024 72       		.byte	(.L79-.L73)/2
 870 0025 70       		.byte	(.L78-.L73)/2
 871 0026 6E       		.byte	(.L77-.L73)/2
 872 0027 6C       		.byte	(.L76-.L73)/2
 873 0028 6A       		.byte	(.L75-.L73)/2
 874 0029 68       		.byte	(.L74-.L73)/2
 875 002a 14       		.byte	(.L72-.L73)/2
 876              	.LVL78:
 877 002b 00       		.p2align 1
 878              	.L90:
 246:Drivers/LCD_FMC/src/tftLCD.c ****     {
 879              		.loc 1 246 35 discriminator 1 view .LVU203
 880 002c 694A     		ldr	r2, .L93
 881 002e 9188     		ldrh	r1, [r2, #4]
 246:Drivers/LCD_FMC/src/tftLCD.c ****     {
 882              		.loc 1 246 26 discriminator 1 view .LVU204
 883 0030 41F66312 		movw	r2, #6499
 884 0034 9142     		cmp	r1, r2
 885 0036 E8D0     		beq	.L60
 886              	.L61:
 248:Drivers/LCD_FMC/src/tftLCD.c ****         {
 887              		.loc 1 248 9 is_stmt 1 view .LVU205
 888 0038 0728     		cmp	r0, #7
 889 003a 73D8     		bhi	.L86
 890 003c DFE800F0 		tbb	[pc, r0]
 891              	.L65:
 892 0040 6E       		.byte	(.L71-.L65)/2
 893 0041 70       		.byte	(.L70-.L65)/2
 894 0042 6A       		.byte	(.L69-.L65)/2
 895 0043 6C       		.byte	(.L68-.L65)/2
 896 0044 04       		.byte	(.L67-.L65)/2
 897 0045 72       		.byte	(.L86-.L65)/2
 898 0046 68       		.byte	(.L66-.L65)/2
 899 0047 66       		.byte	(.L64-.L65)/2
 900              		.p2align 1
 901              	.L67:
 285:Drivers/LCD_FMC/src/tftLCD.c ****     {
 286:Drivers/LCD_FMC/src/tftLCD.c ****         case L2R_U2D://从左到右,从上到下
 287:Drivers/LCD_FMC/src/tftLCD.c ****             regval |= (0 << 7) | (0 << 6) | (0 << 5);
 288:Drivers/LCD_FMC/src/tftLCD.c ****             break;
 289:Drivers/LCD_FMC/src/tftLCD.c **** 
ARM GAS  C:\usertemp\ccUDQ5mr.s 			page 23


 290:Drivers/LCD_FMC/src/tftLCD.c ****         case L2R_D2U://从左到右,从下到上
 291:Drivers/LCD_FMC/src/tftLCD.c ****             regval |= (1 << 7) | (0 << 6) | (0 << 5);
 902              		.loc 1 291 20 is_stmt 0 view .LVU206
 903 0048 8024     		movs	r4, #128
 904 004a 00E0     		b	.L63
 905              	.LVL79:
 906              	.L72:
 292:Drivers/LCD_FMC/src/tftLCD.c ****             break;
 293:Drivers/LCD_FMC/src/tftLCD.c **** 
 294:Drivers/LCD_FMC/src/tftLCD.c ****         case R2L_U2D://从右到左,从上到下
 295:Drivers/LCD_FMC/src/tftLCD.c ****             regval |= (0 << 7) | (1 << 6) | (0 << 5);
 296:Drivers/LCD_FMC/src/tftLCD.c ****             break;
 297:Drivers/LCD_FMC/src/tftLCD.c **** 
 298:Drivers/LCD_FMC/src/tftLCD.c ****         case R2L_D2U://从右到左,从下到上
 299:Drivers/LCD_FMC/src/tftLCD.c ****             regval |= (1 << 7) | (1 << 6) | (0 << 5);
 300:Drivers/LCD_FMC/src/tftLCD.c ****             break;
 301:Drivers/LCD_FMC/src/tftLCD.c **** 
 302:Drivers/LCD_FMC/src/tftLCD.c ****         case U2D_L2R://从上到下,从左到右
 303:Drivers/LCD_FMC/src/tftLCD.c ****             regval |= (0 << 7) | (0 << 6) | (1 << 5);
 304:Drivers/LCD_FMC/src/tftLCD.c ****             break;
 305:Drivers/LCD_FMC/src/tftLCD.c **** 
 306:Drivers/LCD_FMC/src/tftLCD.c ****         case U2D_R2L://从上到下,从右到左
 307:Drivers/LCD_FMC/src/tftLCD.c ****             regval |= (0 << 7) | (1 << 6) | (1 << 5);
 308:Drivers/LCD_FMC/src/tftLCD.c ****             break;
 309:Drivers/LCD_FMC/src/tftLCD.c **** 
 310:Drivers/LCD_FMC/src/tftLCD.c ****         case D2U_L2R://从下到上,从左到右
 311:Drivers/LCD_FMC/src/tftLCD.c ****             regval |= (1 << 7) | (0 << 6) | (1 << 5);
 312:Drivers/LCD_FMC/src/tftLCD.c ****             break;
 313:Drivers/LCD_FMC/src/tftLCD.c **** 
 314:Drivers/LCD_FMC/src/tftLCD.c ****         case D2U_R2L://从下到上,从右到左
 315:Drivers/LCD_FMC/src/tftLCD.c ****             regval |= (1 << 7) | (1 << 6) | (1 << 5);
 907              		.loc 1 315 20 view .LVU207
 908 004c E024     		movs	r4, #224
 909              	.LVL80:
 910              	.L63:
 316:Drivers/LCD_FMC/src/tftLCD.c ****             break;
 317:Drivers/LCD_FMC/src/tftLCD.c ****     }
 318:Drivers/LCD_FMC/src/tftLCD.c **** 
 319:Drivers/LCD_FMC/src/tftLCD.c ****     if (lcddev.id == 0X5510)dirreg = 0X3600;
 911              		.loc 1 319 5 is_stmt 1 view .LVU208
 912              		.loc 1 319 15 is_stmt 0 view .LVU209
 913 004e 614B     		ldr	r3, .L93
 914 0050 9B88     		ldrh	r3, [r3, #4]
 915              		.loc 1 319 8 view .LVU210
 916 0052 45F21052 		movw	r2, #21776
 917 0056 9342     		cmp	r3, r2
 918 0058 68D0     		beq	.L91
 320:Drivers/LCD_FMC/src/tftLCD.c ****     else dirreg = 0X36;
 919              		.loc 1 320 17 view .LVU211
 920 005a 3620     		movs	r0, #54
 921              	.L80:
 922              	.LVL81:
 321:Drivers/LCD_FMC/src/tftLCD.c **** 
 322:Drivers/LCD_FMC/src/tftLCD.c ****     if (lcddev.id == 0X9341 || lcddev.id == 0X7789)   //9341 & 7789 要设置BGR位
 923              		.loc 1 322 5 is_stmt 1 view .LVU212
 924              		.loc 1 322 8 is_stmt 0 view .LVU213
 925 005c 49F24131 		movw	r1, #37697
ARM GAS  C:\usertemp\ccUDQ5mr.s 			page 24


 926 0060 47F28972 		movw	r2, #30601
 927 0064 9342     		cmp	r3, r2
 928 0066 18BF     		it	ne
 929 0068 8B42     		cmpne	r3, r1
 930 006a 01D1     		bne	.L81
 323:Drivers/LCD_FMC/src/tftLCD.c ****     {
 324:Drivers/LCD_FMC/src/tftLCD.c ****         regval |= 0X08;
 931              		.loc 1 324 9 is_stmt 1 view .LVU214
 932              		.loc 1 324 16 is_stmt 0 view .LVU215
 933 006c 44F00804 		orr	r4, r4, #8
 934              	.LVL82:
 935              	.L81:
 325:Drivers/LCD_FMC/src/tftLCD.c ****     }
 326:Drivers/LCD_FMC/src/tftLCD.c **** 
 327:Drivers/LCD_FMC/src/tftLCD.c ****     LCD_WriteReg(dirreg, regval);
 936              		.loc 1 327 5 is_stmt 1 view .LVU216
 937 0070 2146     		mov	r1, r4
 938 0072 FFF7FEFF 		bl	LCD_WriteReg
 939              	.LVL83:
 328:Drivers/LCD_FMC/src/tftLCD.c **** 
 329:Drivers/LCD_FMC/src/tftLCD.c ****     if (lcddev.id != 0X1963)   												//1963不做坐标处理
 940              		.loc 1 329 5 view .LVU217
 941              		.loc 1 329 15 is_stmt 0 view .LVU218
 942 0076 574B     		ldr	r3, .L93
 943 0078 9B88     		ldrh	r3, [r3, #4]
 944              		.loc 1 329 8 view .LVU219
 945 007a 41F66312 		movw	r2, #6499
 946 007e 9342     		cmp	r3, r2
 947 0080 0AD0     		beq	.L82
 330:Drivers/LCD_FMC/src/tftLCD.c ****     {
 331:Drivers/LCD_FMC/src/tftLCD.c ****         if (regval & 0X20)
 948              		.loc 1 331 9 is_stmt 1 view .LVU220
 949              		.loc 1 331 12 is_stmt 0 view .LVU221
 950 0082 14F0200F 		tst	r4, #32
 951 0086 54D0     		beq	.L83
 332:Drivers/LCD_FMC/src/tftLCD.c ****         {
 333:Drivers/LCD_FMC/src/tftLCD.c ****             if (lcddev.width < lcddev.height)   			//交换X,Y
 952              		.loc 1 333 13 is_stmt 1 view .LVU222
 953              		.loc 1 333 23 is_stmt 0 view .LVU223
 954 0088 524A     		ldr	r2, .L93
 955 008a 1188     		ldrh	r1, [r2]
 956              		.loc 1 333 38 view .LVU224
 957 008c 5288     		ldrh	r2, [r2, #2]
 958              		.loc 1 333 16 view .LVU225
 959 008e 9142     		cmp	r1, r2
 960 0090 02D2     		bcs	.L82
 334:Drivers/LCD_FMC/src/tftLCD.c ****             {
 335:Drivers/LCD_FMC/src/tftLCD.c ****                 temp = lcddev.width;
 961              		.loc 1 335 17 is_stmt 1 view .LVU226
 962              	.LVL84:
 336:Drivers/LCD_FMC/src/tftLCD.c ****                 lcddev.width = lcddev.height;
 963              		.loc 1 336 17 view .LVU227
 964              		.loc 1 336 30 is_stmt 0 view .LVU228
 965 0092 5048     		ldr	r0, .L93
 966 0094 0280     		strh	r2, [r0]	@ movhi
 337:Drivers/LCD_FMC/src/tftLCD.c ****                 lcddev.height = temp;
 967              		.loc 1 337 17 is_stmt 1 view .LVU229
ARM GAS  C:\usertemp\ccUDQ5mr.s 			page 25


 968              		.loc 1 337 31 is_stmt 0 view .LVU230
 969 0096 4180     		strh	r1, [r0, #2]	@ movhi
 970              	.LVL85:
 971              	.L82:
 338:Drivers/LCD_FMC/src/tftLCD.c ****             }
 339:Drivers/LCD_FMC/src/tftLCD.c ****         }
 340:Drivers/LCD_FMC/src/tftLCD.c ****         else
 341:Drivers/LCD_FMC/src/tftLCD.c ****         {
 342:Drivers/LCD_FMC/src/tftLCD.c ****             if (lcddev.width > lcddev.height)   			//交换X,Y
 343:Drivers/LCD_FMC/src/tftLCD.c ****             {
 344:Drivers/LCD_FMC/src/tftLCD.c ****                 temp = lcddev.width;
 345:Drivers/LCD_FMC/src/tftLCD.c ****                 lcddev.width = lcddev.height;
 346:Drivers/LCD_FMC/src/tftLCD.c ****                 lcddev.height = temp;
 347:Drivers/LCD_FMC/src/tftLCD.c ****             }
 348:Drivers/LCD_FMC/src/tftLCD.c ****         }
 349:Drivers/LCD_FMC/src/tftLCD.c ****     }
 350:Drivers/LCD_FMC/src/tftLCD.c **** 
 351:Drivers/LCD_FMC/src/tftLCD.c ****     //设置显示区域(开窗)大小
 352:Drivers/LCD_FMC/src/tftLCD.c ****     if (lcddev.id == 0X5510)
 972              		.loc 1 352 5 is_stmt 1 view .LVU231
 973              		.loc 1 352 8 is_stmt 0 view .LVU232
 974 0098 45F21052 		movw	r2, #21776
 975 009c 9342     		cmp	r3, r2
 976 009e 51D0     		beq	.L92
 353:Drivers/LCD_FMC/src/tftLCD.c ****     {
 354:Drivers/LCD_FMC/src/tftLCD.c ****         LCD_WR_REG(lcddev.setxcmd);
 355:Drivers/LCD_FMC/src/tftLCD.c ****         LCD_WR_DATA(0);
 356:Drivers/LCD_FMC/src/tftLCD.c ****         LCD_WR_REG(lcddev.setxcmd + 1);
 357:Drivers/LCD_FMC/src/tftLCD.c ****         LCD_WR_DATA(0);
 358:Drivers/LCD_FMC/src/tftLCD.c ****         LCD_WR_REG(lcddev.setxcmd + 2);
 359:Drivers/LCD_FMC/src/tftLCD.c ****         LCD_WR_DATA((lcddev.width - 1) >> 8);
 360:Drivers/LCD_FMC/src/tftLCD.c ****         LCD_WR_REG(lcddev.setxcmd + 3);
 361:Drivers/LCD_FMC/src/tftLCD.c ****         LCD_WR_DATA((lcddev.width - 1) & 0XFF);
 362:Drivers/LCD_FMC/src/tftLCD.c ****         LCD_WR_REG(lcddev.setycmd);
 363:Drivers/LCD_FMC/src/tftLCD.c ****         LCD_WR_DATA(0);
 364:Drivers/LCD_FMC/src/tftLCD.c ****         LCD_WR_REG(lcddev.setycmd + 1);
 365:Drivers/LCD_FMC/src/tftLCD.c ****         LCD_WR_DATA(0);
 366:Drivers/LCD_FMC/src/tftLCD.c ****         LCD_WR_REG(lcddev.setycmd + 2);
 367:Drivers/LCD_FMC/src/tftLCD.c ****         LCD_WR_DATA((lcddev.height - 1) >> 8);
 368:Drivers/LCD_FMC/src/tftLCD.c ****         LCD_WR_REG(lcddev.setycmd + 3);
 369:Drivers/LCD_FMC/src/tftLCD.c ****         LCD_WR_DATA((lcddev.height - 1) & 0XFF);
 370:Drivers/LCD_FMC/src/tftLCD.c ****     }
 371:Drivers/LCD_FMC/src/tftLCD.c ****     else
 372:Drivers/LCD_FMC/src/tftLCD.c ****     {
 373:Drivers/LCD_FMC/src/tftLCD.c ****         LCD_WR_REG(lcddev.setxcmd);
 977              		.loc 1 373 9 is_stmt 1 view .LVU233
 978 00a0 4C4C     		ldr	r4, .L93
 979              	.LVL86:
 980              		.loc 1 373 9 is_stmt 0 view .LVU234
 981 00a2 6089     		ldrh	r0, [r4, #10]
 982 00a4 FFF7FEFF 		bl	LCD_WR_REG
 983              	.LVL87:
 374:Drivers/LCD_FMC/src/tftLCD.c ****         LCD_WR_DATA(0);
 984              		.loc 1 374 9 is_stmt 1 view .LVU235
 985 00a8 0020     		movs	r0, #0
 986 00aa FFF7FEFF 		bl	LCD_WR_DATA
 987              	.LVL88:
ARM GAS  C:\usertemp\ccUDQ5mr.s 			page 26


 375:Drivers/LCD_FMC/src/tftLCD.c ****         LCD_WR_DATA(0);
 988              		.loc 1 375 9 view .LVU236
 989 00ae 0020     		movs	r0, #0
 990 00b0 FFF7FEFF 		bl	LCD_WR_DATA
 991              	.LVL89:
 376:Drivers/LCD_FMC/src/tftLCD.c ****         LCD_WR_DATA((lcddev.width - 1) >> 8);
 992              		.loc 1 376 9 view .LVU237
 993              		.loc 1 376 28 is_stmt 0 view .LVU238
 994 00b4 2088     		ldrh	r0, [r4]
 995              		.loc 1 376 35 view .LVU239
 996 00b6 0138     		subs	r0, r0, #1
 997              		.loc 1 376 9 view .LVU240
 998 00b8 C0F30F20 		ubfx	r0, r0, #8, #16
 999 00bc FFF7FEFF 		bl	LCD_WR_DATA
 1000              	.LVL90:
 377:Drivers/LCD_FMC/src/tftLCD.c ****         LCD_WR_DATA((lcddev.width - 1) & 0XFF);
 1001              		.loc 1 377 9 is_stmt 1 view .LVU241
 1002              		.loc 1 377 28 is_stmt 0 view .LVU242
 1003 00c0 2088     		ldrh	r0, [r4]
 1004              		.loc 1 377 35 view .LVU243
 1005 00c2 0138     		subs	r0, r0, #1
 1006              		.loc 1 377 9 view .LVU244
 1007 00c4 C0B2     		uxtb	r0, r0
 1008 00c6 FFF7FEFF 		bl	LCD_WR_DATA
 1009              	.LVL91:
 378:Drivers/LCD_FMC/src/tftLCD.c ****         LCD_WR_REG(lcddev.setycmd);
 1010              		.loc 1 378 9 is_stmt 1 view .LVU245
 1011 00ca A089     		ldrh	r0, [r4, #12]
 1012 00cc FFF7FEFF 		bl	LCD_WR_REG
 1013              	.LVL92:
 379:Drivers/LCD_FMC/src/tftLCD.c ****         LCD_WR_DATA(0);
 1014              		.loc 1 379 9 view .LVU246
 1015 00d0 0020     		movs	r0, #0
 1016 00d2 FFF7FEFF 		bl	LCD_WR_DATA
 1017              	.LVL93:
 380:Drivers/LCD_FMC/src/tftLCD.c ****         LCD_WR_DATA(0);
 1018              		.loc 1 380 9 view .LVU247
 1019 00d6 0020     		movs	r0, #0
 1020 00d8 FFF7FEFF 		bl	LCD_WR_DATA
 1021              	.LVL94:
 381:Drivers/LCD_FMC/src/tftLCD.c ****         LCD_WR_DATA((lcddev.height - 1) >> 8);
 1022              		.loc 1 381 9 view .LVU248
 1023              		.loc 1 381 28 is_stmt 0 view .LVU249
 1024 00dc 6088     		ldrh	r0, [r4, #2]
 1025              		.loc 1 381 36 view .LVU250
 1026 00de 0138     		subs	r0, r0, #1
 1027              		.loc 1 381 9 view .LVU251
 1028 00e0 C0F30F20 		ubfx	r0, r0, #8, #16
 1029 00e4 FFF7FEFF 		bl	LCD_WR_DATA
 1030              	.LVL95:
 382:Drivers/LCD_FMC/src/tftLCD.c ****         LCD_WR_DATA((lcddev.height - 1) & 0XFF);
 1031              		.loc 1 382 9 is_stmt 1 view .LVU252
 1032              		.loc 1 382 28 is_stmt 0 view .LVU253
 1033 00e8 6088     		ldrh	r0, [r4, #2]
 1034              		.loc 1 382 36 view .LVU254
 1035 00ea 0138     		subs	r0, r0, #1
 1036              		.loc 1 382 9 view .LVU255
ARM GAS  C:\usertemp\ccUDQ5mr.s 			page 27


 1037 00ec C0B2     		uxtb	r0, r0
 1038 00ee FFF7FEFF 		bl	LCD_WR_DATA
 1039              	.LVL96:
 1040              	.L59:
 383:Drivers/LCD_FMC/src/tftLCD.c ****     }
 384:Drivers/LCD_FMC/src/tftLCD.c **** }
 1041              		.loc 1 384 1 view .LVU256
 1042 00f2 10BD     		pop	{r4, pc}
 1043              	.LVL97:
 1044              	.L74:
 311:Drivers/LCD_FMC/src/tftLCD.c ****             break;
 1045              		.loc 1 311 20 view .LVU257
 1046 00f4 A024     		movs	r4, #160
 1047 00f6 AAE7     		b	.L63
 1048              	.L75:
 307:Drivers/LCD_FMC/src/tftLCD.c ****             break;
 1049              		.loc 1 307 20 view .LVU258
 1050 00f8 6024     		movs	r4, #96
 1051 00fa A8E7     		b	.L63
 1052              	.L76:
 303:Drivers/LCD_FMC/src/tftLCD.c ****             break;
 1053              		.loc 1 303 20 view .LVU259
 1054 00fc 2024     		movs	r4, #32
 1055 00fe A6E7     		b	.L63
 1056              	.L77:
 299:Drivers/LCD_FMC/src/tftLCD.c ****             break;
 1057              		.loc 1 299 20 view .LVU260
 1058 0100 C024     		movs	r4, #192
 1059 0102 A4E7     		b	.L63
 1060              	.L78:
 295:Drivers/LCD_FMC/src/tftLCD.c ****             break;
 1061              		.loc 1 295 20 view .LVU261
 1062 0104 4024     		movs	r4, #64
 1063 0106 A2E7     		b	.L63
 1064              	.L79:
 291:Drivers/LCD_FMC/src/tftLCD.c ****             break;
 1065              		.loc 1 291 20 view .LVU262
 1066 0108 8024     		movs	r4, #128
 1067 010a A0E7     		b	.L63
 1068              	.LVL98:
 1069              	.L64:
 295:Drivers/LCD_FMC/src/tftLCD.c ****             break;
 1070              		.loc 1 295 20 view .LVU263
 1071 010c 4024     		movs	r4, #64
 1072 010e 9EE7     		b	.L63
 1073              	.L66:
 299:Drivers/LCD_FMC/src/tftLCD.c ****             break;
 1074              		.loc 1 299 20 view .LVU264
 1075 0110 C024     		movs	r4, #192
 1076 0112 9CE7     		b	.L63
 1077              	.L69:
 303:Drivers/LCD_FMC/src/tftLCD.c ****             break;
 1078              		.loc 1 303 20 view .LVU265
 1079 0114 2024     		movs	r4, #32
 1080 0116 9AE7     		b	.L63
 1081              	.L68:
 307:Drivers/LCD_FMC/src/tftLCD.c ****             break;
ARM GAS  C:\usertemp\ccUDQ5mr.s 			page 28


 1082              		.loc 1 307 20 view .LVU266
 1083 0118 6024     		movs	r4, #96
 1084 011a 98E7     		b	.L63
 1085              	.L71:
 311:Drivers/LCD_FMC/src/tftLCD.c ****             break;
 1086              		.loc 1 311 20 view .LVU267
 1087 011c A024     		movs	r4, #160
 1088 011e 96E7     		b	.L63
 1089              	.L70:
 315:Drivers/LCD_FMC/src/tftLCD.c ****             break;
 1090              		.loc 1 315 20 view .LVU268
 1091 0120 E024     		movs	r4, #224
 1092 0122 94E7     		b	.L63
 1093              	.L86:
 248:Drivers/LCD_FMC/src/tftLCD.c ****         {
 1094              		.loc 1 248 9 view .LVU269
 1095 0124 0024     		movs	r4, #0
 1096 0126 92E7     		b	.L63
 1097              	.LVL99:
 1098              	.L87:
 284:Drivers/LCD_FMC/src/tftLCD.c ****     {
 1099              		.loc 1 284 5 view .LVU270
 1100 0128 0024     		movs	r4, #0
 1101 012a 90E7     		b	.L63
 1102              	.LVL100:
 1103              	.L91:
 319:Drivers/LCD_FMC/src/tftLCD.c ****     else dirreg = 0X36;
 1104              		.loc 1 319 36 discriminator 1 view .LVU271
 1105 012c 4FF45850 		mov	r0, #13824
 1106 0130 94E7     		b	.L80
 1107              	.LVL101:
 1108              	.L83:
 342:Drivers/LCD_FMC/src/tftLCD.c ****             {
 1109              		.loc 1 342 13 is_stmt 1 view .LVU272
 342:Drivers/LCD_FMC/src/tftLCD.c ****             {
 1110              		.loc 1 342 23 is_stmt 0 view .LVU273
 1111 0132 284A     		ldr	r2, .L93
 1112 0134 1188     		ldrh	r1, [r2]
 342:Drivers/LCD_FMC/src/tftLCD.c ****             {
 1113              		.loc 1 342 38 view .LVU274
 1114 0136 5288     		ldrh	r2, [r2, #2]
 342:Drivers/LCD_FMC/src/tftLCD.c ****             {
 1115              		.loc 1 342 16 view .LVU275
 1116 0138 9142     		cmp	r1, r2
 1117 013a ADD9     		bls	.L82
 344:Drivers/LCD_FMC/src/tftLCD.c ****                 lcddev.width = lcddev.height;
 1118              		.loc 1 344 17 is_stmt 1 view .LVU276
 1119              	.LVL102:
 345:Drivers/LCD_FMC/src/tftLCD.c ****                 lcddev.height = temp;
 1120              		.loc 1 345 17 view .LVU277
 345:Drivers/LCD_FMC/src/tftLCD.c ****                 lcddev.height = temp;
 1121              		.loc 1 345 30 is_stmt 0 view .LVU278
 1122 013c 2548     		ldr	r0, .L93
 1123 013e 0280     		strh	r2, [r0]	@ movhi
 346:Drivers/LCD_FMC/src/tftLCD.c ****             }
 1124              		.loc 1 346 17 is_stmt 1 view .LVU279
 346:Drivers/LCD_FMC/src/tftLCD.c ****             }
ARM GAS  C:\usertemp\ccUDQ5mr.s 			page 29


 1125              		.loc 1 346 31 is_stmt 0 view .LVU280
 1126 0140 4180     		strh	r1, [r0, #2]	@ movhi
 1127 0142 A9E7     		b	.L82
 1128              	.LVL103:
 1129              	.L92:
 354:Drivers/LCD_FMC/src/tftLCD.c ****         LCD_WR_DATA(0);
 1130              		.loc 1 354 9 is_stmt 1 view .LVU281
 1131 0144 234C     		ldr	r4, .L93
 1132              	.LVL104:
 354:Drivers/LCD_FMC/src/tftLCD.c ****         LCD_WR_DATA(0);
 1133              		.loc 1 354 9 is_stmt 0 view .LVU282
 1134 0146 6089     		ldrh	r0, [r4, #10]
 1135 0148 FFF7FEFF 		bl	LCD_WR_REG
 1136              	.LVL105:
 355:Drivers/LCD_FMC/src/tftLCD.c ****         LCD_WR_REG(lcddev.setxcmd + 1);
 1137              		.loc 1 355 9 is_stmt 1 view .LVU283
 1138 014c 0020     		movs	r0, #0
 1139 014e FFF7FEFF 		bl	LCD_WR_DATA
 1140              	.LVL106:
 356:Drivers/LCD_FMC/src/tftLCD.c ****         LCD_WR_DATA(0);
 1141              		.loc 1 356 9 view .LVU284
 356:Drivers/LCD_FMC/src/tftLCD.c ****         LCD_WR_DATA(0);
 1142              		.loc 1 356 26 is_stmt 0 view .LVU285
 1143 0152 6089     		ldrh	r0, [r4, #10]
 356:Drivers/LCD_FMC/src/tftLCD.c ****         LCD_WR_DATA(0);
 1144              		.loc 1 356 9 view .LVU286
 1145 0154 0130     		adds	r0, r0, #1
 1146 0156 80B2     		uxth	r0, r0
 1147 0158 FFF7FEFF 		bl	LCD_WR_REG
 1148              	.LVL107:
 357:Drivers/LCD_FMC/src/tftLCD.c ****         LCD_WR_REG(lcddev.setxcmd + 2);
 1149              		.loc 1 357 9 is_stmt 1 view .LVU287
 1150 015c 0020     		movs	r0, #0
 1151 015e FFF7FEFF 		bl	LCD_WR_DATA
 1152              	.LVL108:
 358:Drivers/LCD_FMC/src/tftLCD.c ****         LCD_WR_DATA((lcddev.width - 1) >> 8);
 1153              		.loc 1 358 9 view .LVU288
 358:Drivers/LCD_FMC/src/tftLCD.c ****         LCD_WR_DATA((lcddev.width - 1) >> 8);
 1154              		.loc 1 358 26 is_stmt 0 view .LVU289
 1155 0162 6089     		ldrh	r0, [r4, #10]
 358:Drivers/LCD_FMC/src/tftLCD.c ****         LCD_WR_DATA((lcddev.width - 1) >> 8);
 1156              		.loc 1 358 9 view .LVU290
 1157 0164 0230     		adds	r0, r0, #2
 1158 0166 80B2     		uxth	r0, r0
 1159 0168 FFF7FEFF 		bl	LCD_WR_REG
 1160              	.LVL109:
 359:Drivers/LCD_FMC/src/tftLCD.c ****         LCD_WR_REG(lcddev.setxcmd + 3);
 1161              		.loc 1 359 9 is_stmt 1 view .LVU291
 359:Drivers/LCD_FMC/src/tftLCD.c ****         LCD_WR_REG(lcddev.setxcmd + 3);
 1162              		.loc 1 359 28 is_stmt 0 view .LVU292
 1163 016c 2088     		ldrh	r0, [r4]
 359:Drivers/LCD_FMC/src/tftLCD.c ****         LCD_WR_REG(lcddev.setxcmd + 3);
 1164              		.loc 1 359 35 view .LVU293
 1165 016e 0138     		subs	r0, r0, #1
 359:Drivers/LCD_FMC/src/tftLCD.c ****         LCD_WR_REG(lcddev.setxcmd + 3);
 1166              		.loc 1 359 9 view .LVU294
 1167 0170 C0F30F20 		ubfx	r0, r0, #8, #16
ARM GAS  C:\usertemp\ccUDQ5mr.s 			page 30


 1168 0174 FFF7FEFF 		bl	LCD_WR_DATA
 1169              	.LVL110:
 360:Drivers/LCD_FMC/src/tftLCD.c ****         LCD_WR_DATA((lcddev.width - 1) & 0XFF);
 1170              		.loc 1 360 9 is_stmt 1 view .LVU295
 360:Drivers/LCD_FMC/src/tftLCD.c ****         LCD_WR_DATA((lcddev.width - 1) & 0XFF);
 1171              		.loc 1 360 26 is_stmt 0 view .LVU296
 1172 0178 6089     		ldrh	r0, [r4, #10]
 360:Drivers/LCD_FMC/src/tftLCD.c ****         LCD_WR_DATA((lcddev.width - 1) & 0XFF);
 1173              		.loc 1 360 9 view .LVU297
 1174 017a 0330     		adds	r0, r0, #3
 1175 017c 80B2     		uxth	r0, r0
 1176 017e FFF7FEFF 		bl	LCD_WR_REG
 1177              	.LVL111:
 361:Drivers/LCD_FMC/src/tftLCD.c ****         LCD_WR_REG(lcddev.setycmd);
 1178              		.loc 1 361 9 is_stmt 1 view .LVU298
 361:Drivers/LCD_FMC/src/tftLCD.c ****         LCD_WR_REG(lcddev.setycmd);
 1179              		.loc 1 361 28 is_stmt 0 view .LVU299
 1180 0182 2088     		ldrh	r0, [r4]
 361:Drivers/LCD_FMC/src/tftLCD.c ****         LCD_WR_REG(lcddev.setycmd);
 1181              		.loc 1 361 35 view .LVU300
 1182 0184 0138     		subs	r0, r0, #1
 361:Drivers/LCD_FMC/src/tftLCD.c ****         LCD_WR_REG(lcddev.setycmd);
 1183              		.loc 1 361 9 view .LVU301
 1184 0186 C0B2     		uxtb	r0, r0
 1185 0188 FFF7FEFF 		bl	LCD_WR_DATA
 1186              	.LVL112:
 362:Drivers/LCD_FMC/src/tftLCD.c ****         LCD_WR_DATA(0);
 1187              		.loc 1 362 9 is_stmt 1 view .LVU302
 1188 018c A089     		ldrh	r0, [r4, #12]
 1189 018e FFF7FEFF 		bl	LCD_WR_REG
 1190              	.LVL113:
 363:Drivers/LCD_FMC/src/tftLCD.c ****         LCD_WR_REG(lcddev.setycmd + 1);
 1191              		.loc 1 363 9 view .LVU303
 1192 0192 0020     		movs	r0, #0
 1193 0194 FFF7FEFF 		bl	LCD_WR_DATA
 1194              	.LVL114:
 364:Drivers/LCD_FMC/src/tftLCD.c ****         LCD_WR_DATA(0);
 1195              		.loc 1 364 9 view .LVU304
 364:Drivers/LCD_FMC/src/tftLCD.c ****         LCD_WR_DATA(0);
 1196              		.loc 1 364 26 is_stmt 0 view .LVU305
 1197 0198 A089     		ldrh	r0, [r4, #12]
 364:Drivers/LCD_FMC/src/tftLCD.c ****         LCD_WR_DATA(0);
 1198              		.loc 1 364 9 view .LVU306
 1199 019a 0130     		adds	r0, r0, #1
 1200 019c 80B2     		uxth	r0, r0
 1201 019e FFF7FEFF 		bl	LCD_WR_REG
 1202              	.LVL115:
 365:Drivers/LCD_FMC/src/tftLCD.c ****         LCD_WR_REG(lcddev.setycmd + 2);
 1203              		.loc 1 365 9 is_stmt 1 view .LVU307
 1204 01a2 0020     		movs	r0, #0
 1205 01a4 FFF7FEFF 		bl	LCD_WR_DATA
 1206              	.LVL116:
 366:Drivers/LCD_FMC/src/tftLCD.c ****         LCD_WR_DATA((lcddev.height - 1) >> 8);
 1207              		.loc 1 366 9 view .LVU308
 366:Drivers/LCD_FMC/src/tftLCD.c ****         LCD_WR_DATA((lcddev.height - 1) >> 8);
 1208              		.loc 1 366 26 is_stmt 0 view .LVU309
 1209 01a8 A089     		ldrh	r0, [r4, #12]
ARM GAS  C:\usertemp\ccUDQ5mr.s 			page 31


 366:Drivers/LCD_FMC/src/tftLCD.c ****         LCD_WR_DATA((lcddev.height - 1) >> 8);
 1210              		.loc 1 366 9 view .LVU310
 1211 01aa 0230     		adds	r0, r0, #2
 1212 01ac 80B2     		uxth	r0, r0
 1213 01ae FFF7FEFF 		bl	LCD_WR_REG
 1214              	.LVL117:
 367:Drivers/LCD_FMC/src/tftLCD.c ****         LCD_WR_REG(lcddev.setycmd + 3);
 1215              		.loc 1 367 9 is_stmt 1 view .LVU311
 367:Drivers/LCD_FMC/src/tftLCD.c ****         LCD_WR_REG(lcddev.setycmd + 3);
 1216              		.loc 1 367 28 is_stmt 0 view .LVU312
 1217 01b2 6088     		ldrh	r0, [r4, #2]
 367:Drivers/LCD_FMC/src/tftLCD.c ****         LCD_WR_REG(lcddev.setycmd + 3);
 1218              		.loc 1 367 36 view .LVU313
 1219 01b4 0138     		subs	r0, r0, #1
 367:Drivers/LCD_FMC/src/tftLCD.c ****         LCD_WR_REG(lcddev.setycmd + 3);
 1220              		.loc 1 367 9 view .LVU314
 1221 01b6 C0F30F20 		ubfx	r0, r0, #8, #16
 1222 01ba FFF7FEFF 		bl	LCD_WR_DATA
 1223              	.LVL118:
 368:Drivers/LCD_FMC/src/tftLCD.c ****         LCD_WR_DATA((lcddev.height - 1) & 0XFF);
 1224              		.loc 1 368 9 is_stmt 1 view .LVU315
 368:Drivers/LCD_FMC/src/tftLCD.c ****         LCD_WR_DATA((lcddev.height - 1) & 0XFF);
 1225              		.loc 1 368 26 is_stmt 0 view .LVU316
 1226 01be A089     		ldrh	r0, [r4, #12]
 368:Drivers/LCD_FMC/src/tftLCD.c ****         LCD_WR_DATA((lcddev.height - 1) & 0XFF);
 1227              		.loc 1 368 9 view .LVU317
 1228 01c0 0330     		adds	r0, r0, #3
 1229 01c2 80B2     		uxth	r0, r0
 1230 01c4 FFF7FEFF 		bl	LCD_WR_REG
 1231              	.LVL119:
 369:Drivers/LCD_FMC/src/tftLCD.c ****     }
 1232              		.loc 1 369 9 is_stmt 1 view .LVU318
 369:Drivers/LCD_FMC/src/tftLCD.c ****     }
 1233              		.loc 1 369 28 is_stmt 0 view .LVU319
 1234 01c8 6088     		ldrh	r0, [r4, #2]
 369:Drivers/LCD_FMC/src/tftLCD.c ****     }
 1235              		.loc 1 369 36 view .LVU320
 1236 01ca 0138     		subs	r0, r0, #1
 369:Drivers/LCD_FMC/src/tftLCD.c ****     }
 1237              		.loc 1 369 9 view .LVU321
 1238 01cc C0B2     		uxtb	r0, r0
 1239 01ce FFF7FEFF 		bl	LCD_WR_DATA
 1240              	.LVL120:
 1241 01d2 8EE7     		b	.L59
 1242              	.L94:
 1243              		.align	2
 1244              	.L93:
 1245 01d4 00000000 		.word	lcddev
 1246              		.cfi_endproc
 1247              	.LFE347:
 1249              		.section	.text.LCD_DrawPoint,"ax",%progbits
 1250              		.align	1
 1251              		.global	LCD_DrawPoint
 1252              		.syntax unified
 1253              		.thumb
 1254              		.thumb_func
 1256              	LCD_DrawPoint:
ARM GAS  C:\usertemp\ccUDQ5mr.s 			page 32


 1257              	.LVL121:
 1258              	.LFB348:
 385:Drivers/LCD_FMC/src/tftLCD.c **** 
 386:Drivers/LCD_FMC/src/tftLCD.c **** //画点
 387:Drivers/LCD_FMC/src/tftLCD.c **** //x,y:坐标
 388:Drivers/LCD_FMC/src/tftLCD.c **** //POINT_COLOR:此点的颜色
 389:Drivers/LCD_FMC/src/tftLCD.c **** void LCD_DrawPoint(uint16_t x,uint16_t y)
 390:Drivers/LCD_FMC/src/tftLCD.c **** {
 1259              		.loc 1 390 1 is_stmt 1 view -0
 1260              		.cfi_startproc
 1261              		@ args = 0, pretend = 0, frame = 0
 1262              		@ frame_needed = 0, uses_anonymous_args = 0
 1263              		.loc 1 390 1 is_stmt 0 view .LVU323
 1264 0000 08B5     		push	{r3, lr}
 1265              	.LCFI13:
 1266              		.cfi_def_cfa_offset 8
 1267              		.cfi_offset 3, -8
 1268              		.cfi_offset 14, -4
 391:Drivers/LCD_FMC/src/tftLCD.c ****     LCD_SetCursor(x,y);		//设置光标位置
 1269              		.loc 1 391 5 is_stmt 1 view .LVU324
 1270 0002 FFF7FEFF 		bl	LCD_SetCursor
 1271              	.LVL122:
 392:Drivers/LCD_FMC/src/tftLCD.c ****     LCD_WriteRAM_Prepare();	//开始写入GRAM
 1272              		.loc 1 392 5 view .LVU325
 1273 0006 FFF7FEFF 		bl	LCD_WriteRAM_Prepare
 1274              	.LVL123:
 393:Drivers/LCD_FMC/src/tftLCD.c ****     LCD->LCD_RAM=POINT_COLOR;
 1275              		.loc 1 393 5 view .LVU326
 1276              		.loc 1 393 17 is_stmt 0 view .LVU327
 1277 000a 034B     		ldr	r3, .L97
 1278 000c 1A88     		ldrh	r2, [r3]
 1279 000e 4FF0C843 		mov	r3, #1677721600
 1280 0012 A3F88020 		strh	r2, [r3, #128]	@ movhi
 394:Drivers/LCD_FMC/src/tftLCD.c **** }
 1281              		.loc 1 394 1 view .LVU328
 1282 0016 08BD     		pop	{r3, pc}
 1283              	.L98:
 1284              		.align	2
 1285              	.L97:
 1286 0018 00000000 		.word	POINT_COLOR
 1287              		.cfi_endproc
 1288              	.LFE348:
 1290              		.section	.text.LCD_Fast_DrawPoint,"ax",%progbits
 1291              		.align	1
 1292              		.global	LCD_Fast_DrawPoint
 1293              		.syntax unified
 1294              		.thumb
 1295              		.thumb_func
 1297              	LCD_Fast_DrawPoint:
 1298              	.LVL124:
 1299              	.LFB349:
 395:Drivers/LCD_FMC/src/tftLCD.c **** 
 396:Drivers/LCD_FMC/src/tftLCD.c **** //快速画点
 397:Drivers/LCD_FMC/src/tftLCD.c **** //x,y:坐标
 398:Drivers/LCD_FMC/src/tftLCD.c **** //color:颜色
 399:Drivers/LCD_FMC/src/tftLCD.c **** void LCD_Fast_DrawPoint(uint16_t x,uint16_t y,uint32_t color)
 400:Drivers/LCD_FMC/src/tftLCD.c **** {
ARM GAS  C:\usertemp\ccUDQ5mr.s 			page 33


 1300              		.loc 1 400 1 is_stmt 1 view -0
 1301              		.cfi_startproc
 1302              		@ args = 0, pretend = 0, frame = 0
 1303              		@ frame_needed = 0, uses_anonymous_args = 0
 1304              		.loc 1 400 1 is_stmt 0 view .LVU330
 1305 0000 2DE9F041 		push	{r4, r5, r6, r7, r8, lr}
 1306              	.LCFI14:
 1307              		.cfi_def_cfa_offset 24
 1308              		.cfi_offset 4, -24
 1309              		.cfi_offset 5, -20
 1310              		.cfi_offset 6, -16
 1311              		.cfi_offset 7, -12
 1312              		.cfi_offset 8, -8
 1313              		.cfi_offset 14, -4
 1314 0004 0446     		mov	r4, r0
 1315 0006 0E46     		mov	r6, r1
 1316 0008 1546     		mov	r5, r2
 401:Drivers/LCD_FMC/src/tftLCD.c ****     if (lcddev.id == 0X5510)
 1317              		.loc 1 401 5 is_stmt 1 view .LVU331
 1318              		.loc 1 401 15 is_stmt 0 view .LVU332
 1319 000a 3A4B     		ldr	r3, .L106
 1320 000c 9B88     		ldrh	r3, [r3, #4]
 1321              		.loc 1 401 8 view .LVU333
 1322 000e 45F2105C 		movw	ip, #21776
 1323 0012 6345     		cmp	r3, ip
 1324 0014 3BD0     		beq	.L105
 402:Drivers/LCD_FMC/src/tftLCD.c ****     {
 403:Drivers/LCD_FMC/src/tftLCD.c ****         LCD_WR_REG(lcddev.setxcmd);
 404:Drivers/LCD_FMC/src/tftLCD.c ****         LCD_WR_DATA(x >> 8);
 405:Drivers/LCD_FMC/src/tftLCD.c ****         LCD_WR_REG(lcddev.setxcmd + 1);
 406:Drivers/LCD_FMC/src/tftLCD.c ****         LCD_WR_DATA(x & 0XFF);
 407:Drivers/LCD_FMC/src/tftLCD.c ****         LCD_WR_REG(lcddev.setycmd);
 408:Drivers/LCD_FMC/src/tftLCD.c ****         LCD_WR_DATA(y >> 8);
 409:Drivers/LCD_FMC/src/tftLCD.c ****         LCD_WR_REG(lcddev.setycmd + 1);
 410:Drivers/LCD_FMC/src/tftLCD.c ****         LCD_WR_DATA(y & 0XFF);
 411:Drivers/LCD_FMC/src/tftLCD.c ****     }
 412:Drivers/LCD_FMC/src/tftLCD.c ****     else if (lcddev.id == 0X1963)
 1325              		.loc 1 412 10 is_stmt 1 view .LVU334
 1326              		.loc 1 412 13 is_stmt 0 view .LVU335
 1327 0016 41F66312 		movw	r2, #6499
 1328              	.LVL125:
 1329              		.loc 1 412 13 view .LVU336
 1330 001a 9342     		cmp	r3, r2
 1331 001c 55D1     		bne	.L102
 413:Drivers/LCD_FMC/src/tftLCD.c ****     {
 414:Drivers/LCD_FMC/src/tftLCD.c ****         if (lcddev.dir == 0)x = lcddev.width - 1 - x;
 1332              		.loc 1 414 9 is_stmt 1 view .LVU337
 1333              		.loc 1 414 19 is_stmt 0 view .LVU338
 1334 001e 354B     		ldr	r3, .L106
 1335 0020 9B79     		ldrb	r3, [r3, #6]	@ zero_extendqisi2
 1336              		.loc 1 414 12 view .LVU339
 1337 0022 2BB9     		cbnz	r3, .L103
 1338              		.loc 1 414 29 is_stmt 1 discriminator 1 view .LVU340
 1339              		.loc 1 414 39 is_stmt 0 discriminator 1 view .LVU341
 1340 0024 334B     		ldr	r3, .L106
 1341 0026 1B88     		ldrh	r3, [r3]
 1342              		.loc 1 414 50 discriminator 1 view .LVU342
ARM GAS  C:\usertemp\ccUDQ5mr.s 			page 34


 1343 0028 1B1A     		subs	r3, r3, r0
 1344 002a 9BB2     		uxth	r3, r3
 1345              		.loc 1 414 31 discriminator 1 view .LVU343
 1346 002c 013B     		subs	r3, r3, #1
 1347 002e 9CB2     		uxth	r4, r3
 1348              	.LVL126:
 1349              	.L103:
 415:Drivers/LCD_FMC/src/tftLCD.c **** 
 416:Drivers/LCD_FMC/src/tftLCD.c ****         LCD_WR_REG(lcddev.setxcmd);
 1350              		.loc 1 416 9 is_stmt 1 view .LVU344
 1351 0030 304F     		ldr	r7, .L106
 1352 0032 7889     		ldrh	r0, [r7, #10]
 1353 0034 FFF7FEFF 		bl	LCD_WR_REG
 1354              	.LVL127:
 417:Drivers/LCD_FMC/src/tftLCD.c ****         LCD_WR_DATA(x >> 8);
 1355              		.loc 1 417 9 view .LVU345
 1356 0038 4FEA1428 		lsr	r8, r4, #8
 1357 003c 4046     		mov	r0, r8
 1358 003e FFF7FEFF 		bl	LCD_WR_DATA
 1359              	.LVL128:
 418:Drivers/LCD_FMC/src/tftLCD.c ****         LCD_WR_DATA(x & 0XFF);
 1360              		.loc 1 418 9 view .LVU346
 1361 0042 E4B2     		uxtb	r4, r4
 1362              	.LVL129:
 1363              		.loc 1 418 9 is_stmt 0 view .LVU347
 1364 0044 2046     		mov	r0, r4
 1365 0046 FFF7FEFF 		bl	LCD_WR_DATA
 1366              	.LVL130:
 419:Drivers/LCD_FMC/src/tftLCD.c ****         LCD_WR_DATA(x >> 8);
 1367              		.loc 1 419 9 is_stmt 1 view .LVU348
 1368 004a 4046     		mov	r0, r8
 1369 004c FFF7FEFF 		bl	LCD_WR_DATA
 1370              	.LVL131:
 420:Drivers/LCD_FMC/src/tftLCD.c ****         LCD_WR_DATA(x & 0XFF);
 1371              		.loc 1 420 9 view .LVU349
 1372 0050 2046     		mov	r0, r4
 1373 0052 FFF7FEFF 		bl	LCD_WR_DATA
 1374              	.LVL132:
 421:Drivers/LCD_FMC/src/tftLCD.c ****         LCD_WR_REG(lcddev.setycmd);
 1375              		.loc 1 421 9 view .LVU350
 1376 0056 B889     		ldrh	r0, [r7, #12]
 1377 0058 FFF7FEFF 		bl	LCD_WR_REG
 1378              	.LVL133:
 422:Drivers/LCD_FMC/src/tftLCD.c ****         LCD_WR_DATA(y >> 8);
 1379              		.loc 1 422 9 view .LVU351
 1380 005c 340A     		lsrs	r4, r6, #8
 1381 005e 2046     		mov	r0, r4
 1382 0060 FFF7FEFF 		bl	LCD_WR_DATA
 1383              	.LVL134:
 423:Drivers/LCD_FMC/src/tftLCD.c ****         LCD_WR_DATA(y & 0XFF);
 1384              		.loc 1 423 9 view .LVU352
 1385 0064 F6B2     		uxtb	r6, r6
 1386              	.LVL135:
 1387              		.loc 1 423 9 is_stmt 0 view .LVU353
 1388 0066 3046     		mov	r0, r6
 1389 0068 FFF7FEFF 		bl	LCD_WR_DATA
 1390              	.LVL136:
ARM GAS  C:\usertemp\ccUDQ5mr.s 			page 35


 424:Drivers/LCD_FMC/src/tftLCD.c ****         LCD_WR_DATA(y >> 8);
 1391              		.loc 1 424 9 is_stmt 1 view .LVU354
 1392 006c 2046     		mov	r0, r4
 1393 006e FFF7FEFF 		bl	LCD_WR_DATA
 1394              	.LVL137:
 425:Drivers/LCD_FMC/src/tftLCD.c ****         LCD_WR_DATA(y & 0XFF);
 1395              		.loc 1 425 9 view .LVU355
 1396 0072 3046     		mov	r0, r6
 1397 0074 FFF7FEFF 		bl	LCD_WR_DATA
 1398              	.LVL138:
 1399              	.L101:
 426:Drivers/LCD_FMC/src/tftLCD.c ****     }
 427:Drivers/LCD_FMC/src/tftLCD.c ****     else     															//9341/5310/7789等设置坐标
 428:Drivers/LCD_FMC/src/tftLCD.c ****     {
 429:Drivers/LCD_FMC/src/tftLCD.c ****         LCD_WR_REG(lcddev.setxcmd);
 430:Drivers/LCD_FMC/src/tftLCD.c ****         LCD_WR_DATA(x >> 8);
 431:Drivers/LCD_FMC/src/tftLCD.c ****         LCD_WR_DATA(x & 0XFF);
 432:Drivers/LCD_FMC/src/tftLCD.c ****         LCD_WR_REG(lcddev.setycmd);
 433:Drivers/LCD_FMC/src/tftLCD.c ****         LCD_WR_DATA(y >> 8);
 434:Drivers/LCD_FMC/src/tftLCD.c ****         LCD_WR_DATA(y & 0XFF);
 435:Drivers/LCD_FMC/src/tftLCD.c ****     }
 436:Drivers/LCD_FMC/src/tftLCD.c **** 
 437:Drivers/LCD_FMC/src/tftLCD.c ****     LCD->LCD_REG=lcddev.wramcmd;
 1400              		.loc 1 437 5 view .LVU356
 1401              		.loc 1 437 24 is_stmt 0 view .LVU357
 1402 0078 1E4B     		ldr	r3, .L106
 1403 007a 1989     		ldrh	r1, [r3, #8]
 1404              		.loc 1 437 17 view .LVU358
 1405 007c 4FF0C843 		mov	r3, #1677721600
 1406 0080 A3F87E10 		strh	r1, [r3, #126]	@ movhi
 438:Drivers/LCD_FMC/src/tftLCD.c ****     LCD->LCD_RAM=color;
 1407              		.loc 1 438 5 is_stmt 1 view .LVU359
 1408              		.loc 1 438 17 is_stmt 0 view .LVU360
 1409 0084 AAB2     		uxth	r2, r5
 1410 0086 A3F88020 		strh	r2, [r3, #128]	@ movhi
 439:Drivers/LCD_FMC/src/tftLCD.c **** }
 1411              		.loc 1 439 1 view .LVU361
 1412 008a BDE8F081 		pop	{r4, r5, r6, r7, r8, pc}
 1413              	.LVL139:
 1414              	.L105:
 403:Drivers/LCD_FMC/src/tftLCD.c ****         LCD_WR_DATA(x >> 8);
 1415              		.loc 1 403 9 is_stmt 1 view .LVU362
 1416 008e 194F     		ldr	r7, .L106
 1417 0090 7889     		ldrh	r0, [r7, #10]
 1418              	.LVL140:
 403:Drivers/LCD_FMC/src/tftLCD.c ****         LCD_WR_DATA(x >> 8);
 1419              		.loc 1 403 9 is_stmt 0 view .LVU363
 1420 0092 FFF7FEFF 		bl	LCD_WR_REG
 1421              	.LVL141:
 404:Drivers/LCD_FMC/src/tftLCD.c ****         LCD_WR_REG(lcddev.setxcmd + 1);
 1422              		.loc 1 404 9 is_stmt 1 view .LVU364
 1423 0096 200A     		lsrs	r0, r4, #8
 1424 0098 FFF7FEFF 		bl	LCD_WR_DATA
 1425              	.LVL142:
 405:Drivers/LCD_FMC/src/tftLCD.c ****         LCD_WR_DATA(x & 0XFF);
 1426              		.loc 1 405 9 view .LVU365
 405:Drivers/LCD_FMC/src/tftLCD.c ****         LCD_WR_DATA(x & 0XFF);
ARM GAS  C:\usertemp\ccUDQ5mr.s 			page 36


 1427              		.loc 1 405 26 is_stmt 0 view .LVU366
 1428 009c 7889     		ldrh	r0, [r7, #10]
 405:Drivers/LCD_FMC/src/tftLCD.c ****         LCD_WR_DATA(x & 0XFF);
 1429              		.loc 1 405 9 view .LVU367
 1430 009e 0130     		adds	r0, r0, #1
 1431 00a0 80B2     		uxth	r0, r0
 1432 00a2 FFF7FEFF 		bl	LCD_WR_REG
 1433              	.LVL143:
 406:Drivers/LCD_FMC/src/tftLCD.c ****         LCD_WR_REG(lcddev.setycmd);
 1434              		.loc 1 406 9 is_stmt 1 view .LVU368
 1435 00a6 E0B2     		uxtb	r0, r4
 1436 00a8 FFF7FEFF 		bl	LCD_WR_DATA
 1437              	.LVL144:
 407:Drivers/LCD_FMC/src/tftLCD.c ****         LCD_WR_DATA(y >> 8);
 1438              		.loc 1 407 9 view .LVU369
 1439 00ac B889     		ldrh	r0, [r7, #12]
 1440 00ae FFF7FEFF 		bl	LCD_WR_REG
 1441              	.LVL145:
 408:Drivers/LCD_FMC/src/tftLCD.c ****         LCD_WR_REG(lcddev.setycmd + 1);
 1442              		.loc 1 408 9 view .LVU370
 1443 00b2 300A     		lsrs	r0, r6, #8
 1444 00b4 FFF7FEFF 		bl	LCD_WR_DATA
 1445              	.LVL146:
 409:Drivers/LCD_FMC/src/tftLCD.c ****         LCD_WR_DATA(y & 0XFF);
 1446              		.loc 1 409 9 view .LVU371
 409:Drivers/LCD_FMC/src/tftLCD.c ****         LCD_WR_DATA(y & 0XFF);
 1447              		.loc 1 409 26 is_stmt 0 view .LVU372
 1448 00b8 B889     		ldrh	r0, [r7, #12]
 409:Drivers/LCD_FMC/src/tftLCD.c ****         LCD_WR_DATA(y & 0XFF);
 1449              		.loc 1 409 9 view .LVU373
 1450 00ba 0130     		adds	r0, r0, #1
 1451 00bc 80B2     		uxth	r0, r0
 1452 00be FFF7FEFF 		bl	LCD_WR_REG
 1453              	.LVL147:
 410:Drivers/LCD_FMC/src/tftLCD.c ****     }
 1454              		.loc 1 410 9 is_stmt 1 view .LVU374
 1455 00c2 F0B2     		uxtb	r0, r6
 1456 00c4 FFF7FEFF 		bl	LCD_WR_DATA
 1457              	.LVL148:
 1458 00c8 D6E7     		b	.L101
 1459              	.LVL149:
 1460              	.L102:
 429:Drivers/LCD_FMC/src/tftLCD.c ****         LCD_WR_DATA(x >> 8);
 1461              		.loc 1 429 9 view .LVU375
 1462 00ca 0A4F     		ldr	r7, .L106
 1463 00cc 7889     		ldrh	r0, [r7, #10]
 1464              	.LVL150:
 429:Drivers/LCD_FMC/src/tftLCD.c ****         LCD_WR_DATA(x >> 8);
 1465              		.loc 1 429 9 is_stmt 0 view .LVU376
 1466 00ce FFF7FEFF 		bl	LCD_WR_REG
 1467              	.LVL151:
 430:Drivers/LCD_FMC/src/tftLCD.c ****         LCD_WR_DATA(x & 0XFF);
 1468              		.loc 1 430 9 is_stmt 1 view .LVU377
 1469 00d2 200A     		lsrs	r0, r4, #8
 1470 00d4 FFF7FEFF 		bl	LCD_WR_DATA
 1471              	.LVL152:
 431:Drivers/LCD_FMC/src/tftLCD.c ****         LCD_WR_REG(lcddev.setycmd);
ARM GAS  C:\usertemp\ccUDQ5mr.s 			page 37


 1472              		.loc 1 431 9 view .LVU378
 1473 00d8 E0B2     		uxtb	r0, r4
 1474 00da FFF7FEFF 		bl	LCD_WR_DATA
 1475              	.LVL153:
 432:Drivers/LCD_FMC/src/tftLCD.c ****         LCD_WR_DATA(y >> 8);
 1476              		.loc 1 432 9 view .LVU379
 1477 00de B889     		ldrh	r0, [r7, #12]
 1478 00e0 FFF7FEFF 		bl	LCD_WR_REG
 1479              	.LVL154:
 433:Drivers/LCD_FMC/src/tftLCD.c ****         LCD_WR_DATA(y & 0XFF);
 1480              		.loc 1 433 9 view .LVU380
 1481 00e4 300A     		lsrs	r0, r6, #8
 1482 00e6 FFF7FEFF 		bl	LCD_WR_DATA
 1483              	.LVL155:
 434:Drivers/LCD_FMC/src/tftLCD.c ****     }
 1484              		.loc 1 434 9 view .LVU381
 1485 00ea F0B2     		uxtb	r0, r6
 1486 00ec FFF7FEFF 		bl	LCD_WR_DATA
 1487              	.LVL156:
 1488 00f0 C2E7     		b	.L101
 1489              	.L107:
 1490 00f2 00BF     		.align	2
 1491              	.L106:
 1492 00f4 00000000 		.word	lcddev
 1493              		.cfi_endproc
 1494              	.LFE349:
 1496              		.section	.text.LCD_SSD_BackLightSet,"ax",%progbits
 1497              		.align	1
 1498              		.global	LCD_SSD_BackLightSet
 1499              		.syntax unified
 1500              		.thumb
 1501              		.thumb_func
 1503              	LCD_SSD_BackLightSet:
 1504              	.LVL157:
 1505              	.LFB350:
 440:Drivers/LCD_FMC/src/tftLCD.c **** 
 441:Drivers/LCD_FMC/src/tftLCD.c **** //SSD1963 背光设置
 442:Drivers/LCD_FMC/src/tftLCD.c **** //pwm:背光等级,0~100.越大越亮.
 443:Drivers/LCD_FMC/src/tftLCD.c **** void LCD_SSD_BackLightSet(uint8_t pwm)
 444:Drivers/LCD_FMC/src/tftLCD.c **** {
 1506              		.loc 1 444 1 view -0
 1507              		.cfi_startproc
 1508              		@ args = 0, pretend = 0, frame = 0
 1509              		@ frame_needed = 0, uses_anonymous_args = 0
 1510              		.loc 1 444 1 is_stmt 0 view .LVU383
 1511 0000 08B5     		push	{r3, lr}
 1512              	.LCFI15:
 1513              		.cfi_def_cfa_offset 8
 1514              		.cfi_offset 3, -8
 1515              		.cfi_offset 14, -4
 1516 0002 2DED028B 		vpush.64	{d8}
 1517              	.LCFI16:
 1518              		.cfi_def_cfa_offset 16
 1519              		.cfi_offset 80, -16
 1520              		.cfi_offset 81, -12
 1521 0006 08EE100A 		vmov	s16, r0	@ int
 445:Drivers/LCD_FMC/src/tftLCD.c ****     LCD_WR_REG(0xBE);												//配置PWM输出
ARM GAS  C:\usertemp\ccUDQ5mr.s 			page 38


 1522              		.loc 1 445 5 is_stmt 1 view .LVU384
 1523 000a BE20     		movs	r0, #190
 1524              	.LVL158:
 1525              		.loc 1 445 5 is_stmt 0 view .LVU385
 1526 000c FFF7FEFF 		bl	LCD_WR_REG
 1527              	.LVL159:
 446:Drivers/LCD_FMC/src/tftLCD.c ****     LCD_WR_DATA(0x05);											//1设置PWM频率
 1528              		.loc 1 446 5 is_stmt 1 view .LVU386
 1529 0010 0520     		movs	r0, #5
 1530 0012 FFF7FEFF 		bl	LCD_WR_DATA
 1531              	.LVL160:
 447:Drivers/LCD_FMC/src/tftLCD.c ****     LCD_WR_DATA(pwm*2.55);									//2设置PWM占空比
 1532              		.loc 1 447 5 view .LVU387
 1533              		.loc 1 447 20 is_stmt 0 view .LVU388
 1534 0016 B8EEC87B 		vcvt.f64.s32	d7, s16
 1535 001a 9FED0D6B 		vldr.64	d6, .L110
 1536 001e 27EE067B 		vmul.f64	d7, d7, d6
 1537              		.loc 1 447 5 view .LVU389
 1538 0022 BCEEC77B 		vcvt.u32.f64	s14, d7
 1539 0026 17EE103A 		vmov	r3, s14	@ int
 1540 002a 98B2     		uxth	r0, r3
 1541 002c FFF7FEFF 		bl	LCD_WR_DATA
 1542              	.LVL161:
 448:Drivers/LCD_FMC/src/tftLCD.c ****     LCD_WR_DATA(0x01);											//3设置C
 1543              		.loc 1 448 5 is_stmt 1 view .LVU390
 1544 0030 0120     		movs	r0, #1
 1545 0032 FFF7FEFF 		bl	LCD_WR_DATA
 1546              	.LVL162:
 449:Drivers/LCD_FMC/src/tftLCD.c ****     LCD_WR_DATA(0xFF);											//4设置D
 1547              		.loc 1 449 5 view .LVU391
 1548 0036 FF20     		movs	r0, #255
 1549 0038 FFF7FEFF 		bl	LCD_WR_DATA
 1550              	.LVL163:
 450:Drivers/LCD_FMC/src/tftLCD.c ****     LCD_WR_DATA(0x00);											//5设置E
 1551              		.loc 1 450 5 view .LVU392
 1552 003c 0020     		movs	r0, #0
 1553 003e FFF7FEFF 		bl	LCD_WR_DATA
 1554              	.LVL164:
 451:Drivers/LCD_FMC/src/tftLCD.c ****     LCD_WR_DATA(0x00);											//6设置F
 1555              		.loc 1 451 5 view .LVU393
 1556 0042 0020     		movs	r0, #0
 1557 0044 FFF7FEFF 		bl	LCD_WR_DATA
 1558              	.LVL165:
 452:Drivers/LCD_FMC/src/tftLCD.c **** }
 1559              		.loc 1 452 1 is_stmt 0 view .LVU394
 1560 0048 BDEC028B 		vldm	sp!, {d8}
 1561              	.LCFI17:
 1562              		.cfi_restore 80
 1563              		.cfi_restore 81
 1564              		.cfi_def_cfa_offset 8
 1565              	.LVL166:
 1566              		.loc 1 452 1 view .LVU395
 1567 004c 08BD     		pop	{r3, pc}
 1568              	.L111:
 1569 004e 00BF     		.align	3
 1570              	.L110:
 1571 0050 66666666 		.word	1717986918
ARM GAS  C:\usertemp\ccUDQ5mr.s 			page 39


 1572 0054 66660440 		.word	1074030182
 1573              		.cfi_endproc
 1574              	.LFE350:
 1576              		.section	.text.LCD_Display_Dir,"ax",%progbits
 1577              		.align	1
 1578              		.global	LCD_Display_Dir
 1579              		.syntax unified
 1580              		.thumb
 1581              		.thumb_func
 1583              	LCD_Display_Dir:
 1584              	.LVL167:
 1585              	.LFB351:
 453:Drivers/LCD_FMC/src/tftLCD.c **** 
 454:Drivers/LCD_FMC/src/tftLCD.c **** //设置LCD显示方向
 455:Drivers/LCD_FMC/src/tftLCD.c **** //dir:0,竖屏；1,横屏
 456:Drivers/LCD_FMC/src/tftLCD.c **** void LCD_Display_Dir(uint8_t dir)
 457:Drivers/LCD_FMC/src/tftLCD.c **** {
 1586              		.loc 1 457 1 is_stmt 1 view -0
 1587              		.cfi_startproc
 1588              		@ args = 0, pretend = 0, frame = 0
 1589              		@ frame_needed = 0, uses_anonymous_args = 0
 1590              		.loc 1 457 1 is_stmt 0 view .LVU397
 1591 0000 08B5     		push	{r3, lr}
 1592              	.LCFI18:
 1593              		.cfi_def_cfa_offset 8
 1594              		.cfi_offset 3, -8
 1595              		.cfi_offset 14, -4
 458:Drivers/LCD_FMC/src/tftLCD.c ****     lcddev.dir = dir;       								//竖屏/横屏
 1596              		.loc 1 458 5 is_stmt 1 view .LVU398
 1597              		.loc 1 458 16 is_stmt 0 view .LVU399
 1598 0002 444B     		ldr	r3, .L127
 1599 0004 9871     		strb	r0, [r3, #6]
 459:Drivers/LCD_FMC/src/tftLCD.c **** 
 460:Drivers/LCD_FMC/src/tftLCD.c ****     if (dir == 0)           								//竖屏
 1600              		.loc 1 460 5 is_stmt 1 view .LVU400
 1601              		.loc 1 460 8 is_stmt 0 view .LVU401
 1602 0006 0028     		cmp	r0, #0
 1603 0008 43D1     		bne	.L113
 461:Drivers/LCD_FMC/src/tftLCD.c ****     {
 462:Drivers/LCD_FMC/src/tftLCD.c ****         lcddev.width = 240;
 1604              		.loc 1 462 9 is_stmt 1 view .LVU402
 1605              		.loc 1 462 22 is_stmt 0 view .LVU403
 1606 000a F022     		movs	r2, #240
 1607 000c 1A80     		strh	r2, [r3]	@ movhi
 463:Drivers/LCD_FMC/src/tftLCD.c ****         lcddev.height = 320;
 1608              		.loc 1 463 9 is_stmt 1 view .LVU404
 1609              		.loc 1 463 23 is_stmt 0 view .LVU405
 1610 000e 4FF4A072 		mov	r2, #320
 1611 0012 5A80     		strh	r2, [r3, #2]	@ movhi
 464:Drivers/LCD_FMC/src/tftLCD.c **** 
 465:Drivers/LCD_FMC/src/tftLCD.c ****         if (lcddev.id == 0x5510)
 1612              		.loc 1 465 9 is_stmt 1 view .LVU406
 1613              		.loc 1 465 19 is_stmt 0 view .LVU407
 1614 0014 9B88     		ldrh	r3, [r3, #4]
 1615              		.loc 1 465 12 view .LVU408
 1616 0016 45F21052 		movw	r2, #21776
 1617 001a 9342     		cmp	r3, r2
ARM GAS  C:\usertemp\ccUDQ5mr.s 			page 40


 1618 001c 12D0     		beq	.L122
 466:Drivers/LCD_FMC/src/tftLCD.c ****         {
 467:Drivers/LCD_FMC/src/tftLCD.c ****             lcddev.wramcmd = 0X2C00;
 468:Drivers/LCD_FMC/src/tftLCD.c ****             lcddev.setxcmd = 0X2A00;
 469:Drivers/LCD_FMC/src/tftLCD.c ****             lcddev.setycmd = 0X2B00;
 470:Drivers/LCD_FMC/src/tftLCD.c ****             lcddev.width = 480;
 471:Drivers/LCD_FMC/src/tftLCD.c ****             lcddev.height = 800;
 472:Drivers/LCD_FMC/src/tftLCD.c ****         }
 473:Drivers/LCD_FMC/src/tftLCD.c ****         else if (lcddev.id == 0X1963)
 1619              		.loc 1 473 14 is_stmt 1 view .LVU409
 1620              		.loc 1 473 17 is_stmt 0 view .LVU410
 1621 001e 41F66312 		movw	r2, #6499
 1622 0022 9342     		cmp	r3, r2
 1623 0024 1FD0     		beq	.L123
 474:Drivers/LCD_FMC/src/tftLCD.c ****         {
 475:Drivers/LCD_FMC/src/tftLCD.c ****             lcddev.wramcmd = 0X2C;  				//设置写入GRAM的指令
 476:Drivers/LCD_FMC/src/tftLCD.c ****             lcddev.setxcmd = 0X2B;  				//设置写X坐标指令
 477:Drivers/LCD_FMC/src/tftLCD.c ****             lcddev.setycmd = 0X2A;  				//设置写Y坐标指令
 478:Drivers/LCD_FMC/src/tftLCD.c ****             lcddev.width = 480;     				//设置宽度480
 479:Drivers/LCD_FMC/src/tftLCD.c ****             lcddev.height = 800;    				//设置高度800
 480:Drivers/LCD_FMC/src/tftLCD.c ****         }
 481:Drivers/LCD_FMC/src/tftLCD.c ****         else                        				//其他IC, 包括: 9341 / 5310 / 7789等IC
 482:Drivers/LCD_FMC/src/tftLCD.c ****         {
 483:Drivers/LCD_FMC/src/tftLCD.c ****             lcddev.wramcmd = 0X2C;
 1624              		.loc 1 483 13 is_stmt 1 view .LVU411
 1625              		.loc 1 483 28 is_stmt 0 view .LVU412
 1626 0026 3B4A     		ldr	r2, .L127
 1627 0028 2C21     		movs	r1, #44
 1628 002a 1181     		strh	r1, [r2, #8]	@ movhi
 484:Drivers/LCD_FMC/src/tftLCD.c ****             lcddev.setxcmd = 0X2A;
 1629              		.loc 1 484 13 is_stmt 1 view .LVU413
 1630              		.loc 1 484 28 is_stmt 0 view .LVU414
 1631 002c 2A21     		movs	r1, #42
 1632 002e 5181     		strh	r1, [r2, #10]	@ movhi
 485:Drivers/LCD_FMC/src/tftLCD.c ****             lcddev.setycmd = 0X2B;
 1633              		.loc 1 485 13 is_stmt 1 view .LVU415
 1634              		.loc 1 485 28 is_stmt 0 view .LVU416
 1635 0030 2B21     		movs	r1, #43
 1636 0032 9181     		strh	r1, [r2, #12]	@ movhi
 1637              	.L115:
 486:Drivers/LCD_FMC/src/tftLCD.c ****         }
 487:Drivers/LCD_FMC/src/tftLCD.c **** 
 488:Drivers/LCD_FMC/src/tftLCD.c ****         if (lcddev.id == 0X5310)    				//如果是5310 则表示是 320*480分辨率
 1638              		.loc 1 488 9 is_stmt 1 view .LVU417
 1639              		.loc 1 488 12 is_stmt 0 view .LVU418
 1640 0034 45F21032 		movw	r2, #21264
 1641 0038 9342     		cmp	r3, r2
 1642 003a 22D0     		beq	.L124
 1643              	.L117:
 489:Drivers/LCD_FMC/src/tftLCD.c ****         {
 490:Drivers/LCD_FMC/src/tftLCD.c ****             lcddev.width = 320;
 491:Drivers/LCD_FMC/src/tftLCD.c ****             lcddev.height = 480;
 492:Drivers/LCD_FMC/src/tftLCD.c ****         }
 493:Drivers/LCD_FMC/src/tftLCD.c ****     }
 494:Drivers/LCD_FMC/src/tftLCD.c ****     else     																//横屏
 495:Drivers/LCD_FMC/src/tftLCD.c ****     {
 496:Drivers/LCD_FMC/src/tftLCD.c ****         lcddev.width = 320;
ARM GAS  C:\usertemp\ccUDQ5mr.s 			page 41


 497:Drivers/LCD_FMC/src/tftLCD.c ****         lcddev.height = 240;
 498:Drivers/LCD_FMC/src/tftLCD.c **** 
 499:Drivers/LCD_FMC/src/tftLCD.c ****         if (lcddev.id == 0x5510)
 500:Drivers/LCD_FMC/src/tftLCD.c ****         {
 501:Drivers/LCD_FMC/src/tftLCD.c ****             lcddev.wramcmd = 0X2C00;
 502:Drivers/LCD_FMC/src/tftLCD.c ****             lcddev.setxcmd = 0X2A00;
 503:Drivers/LCD_FMC/src/tftLCD.c ****             lcddev.setycmd = 0X2B00;
 504:Drivers/LCD_FMC/src/tftLCD.c ****             lcddev.width = 800;
 505:Drivers/LCD_FMC/src/tftLCD.c ****             lcddev.height = 480;
 506:Drivers/LCD_FMC/src/tftLCD.c ****         }
 507:Drivers/LCD_FMC/src/tftLCD.c ****         else if (lcddev.id == 0X1963)
 508:Drivers/LCD_FMC/src/tftLCD.c ****         {
 509:Drivers/LCD_FMC/src/tftLCD.c ****             lcddev.wramcmd = 0X2C;  				//设置写入GRAM的指令
 510:Drivers/LCD_FMC/src/tftLCD.c ****             lcddev.setxcmd = 0X2A;  				//设置写X坐标指令
 511:Drivers/LCD_FMC/src/tftLCD.c ****             lcddev.setycmd = 0X2B;  				//设置写Y坐标指令
 512:Drivers/LCD_FMC/src/tftLCD.c ****             lcddev.width = 800;     				//设置宽度800
 513:Drivers/LCD_FMC/src/tftLCD.c ****             lcddev.height = 480;    				//设置高度480
 514:Drivers/LCD_FMC/src/tftLCD.c ****         }
 515:Drivers/LCD_FMC/src/tftLCD.c ****         else                        				//其他IC, 包括: 9341 / 5310 / 7789等IC
 516:Drivers/LCD_FMC/src/tftLCD.c ****         {
 517:Drivers/LCD_FMC/src/tftLCD.c ****             lcddev.wramcmd = 0X2C;
 518:Drivers/LCD_FMC/src/tftLCD.c ****             lcddev.setxcmd = 0X2A;
 519:Drivers/LCD_FMC/src/tftLCD.c ****             lcddev.setycmd = 0X2B;
 520:Drivers/LCD_FMC/src/tftLCD.c ****         }
 521:Drivers/LCD_FMC/src/tftLCD.c **** 
 522:Drivers/LCD_FMC/src/tftLCD.c ****         if (lcddev.id == 0X5310)    				//如果是5310 则表示是 320*480分辨率
 523:Drivers/LCD_FMC/src/tftLCD.c ****         {
 524:Drivers/LCD_FMC/src/tftLCD.c ****             lcddev.width = 480;
 525:Drivers/LCD_FMC/src/tftLCD.c ****             lcddev.height = 320;
 526:Drivers/LCD_FMC/src/tftLCD.c ****         }
 527:Drivers/LCD_FMC/src/tftLCD.c ****     }
 528:Drivers/LCD_FMC/src/tftLCD.c **** 
 529:Drivers/LCD_FMC/src/tftLCD.c ****     LCD_Scan_Dir(DFT_SCAN_DIR);     				//默认扫描方向
 1644              		.loc 1 529 5 is_stmt 1 view .LVU419
 1645 003c 0020     		movs	r0, #0
 1646              	.LVL168:
 1647              		.loc 1 529 5 is_stmt 0 view .LVU420
 1648 003e FFF7FEFF 		bl	LCD_Scan_Dir
 1649              	.LVL169:
 530:Drivers/LCD_FMC/src/tftLCD.c **** }
 1650              		.loc 1 530 1 view .LVU421
 1651 0042 08BD     		pop	{r3, pc}
 1652              	.LVL170:
 1653              	.L122:
 467:Drivers/LCD_FMC/src/tftLCD.c ****             lcddev.setxcmd = 0X2A00;
 1654              		.loc 1 467 13 is_stmt 1 view .LVU422
 467:Drivers/LCD_FMC/src/tftLCD.c ****             lcddev.setxcmd = 0X2A00;
 1655              		.loc 1 467 28 is_stmt 0 view .LVU423
 1656 0044 334A     		ldr	r2, .L127
 1657 0046 4FF43051 		mov	r1, #11264
 1658 004a 1181     		strh	r1, [r2, #8]	@ movhi
 468:Drivers/LCD_FMC/src/tftLCD.c ****             lcddev.setycmd = 0X2B00;
 1659              		.loc 1 468 13 is_stmt 1 view .LVU424
 468:Drivers/LCD_FMC/src/tftLCD.c ****             lcddev.setycmd = 0X2B00;
 1660              		.loc 1 468 28 is_stmt 0 view .LVU425
 1661 004c 4FF42851 		mov	r1, #10752
 1662 0050 5181     		strh	r1, [r2, #10]	@ movhi
ARM GAS  C:\usertemp\ccUDQ5mr.s 			page 42


 469:Drivers/LCD_FMC/src/tftLCD.c ****             lcddev.width = 480;
 1663              		.loc 1 469 13 is_stmt 1 view .LVU426
 469:Drivers/LCD_FMC/src/tftLCD.c ****             lcddev.width = 480;
 1664              		.loc 1 469 28 is_stmt 0 view .LVU427
 1665 0052 4FF42C51 		mov	r1, #11008
 1666 0056 9181     		strh	r1, [r2, #12]	@ movhi
 470:Drivers/LCD_FMC/src/tftLCD.c ****             lcddev.height = 800;
 1667              		.loc 1 470 13 is_stmt 1 view .LVU428
 470:Drivers/LCD_FMC/src/tftLCD.c ****             lcddev.height = 800;
 1668              		.loc 1 470 26 is_stmt 0 view .LVU429
 1669 0058 4FF4F071 		mov	r1, #480
 1670 005c 1180     		strh	r1, [r2]	@ movhi
 471:Drivers/LCD_FMC/src/tftLCD.c ****         }
 1671              		.loc 1 471 13 is_stmt 1 view .LVU430
 471:Drivers/LCD_FMC/src/tftLCD.c ****         }
 1672              		.loc 1 471 27 is_stmt 0 view .LVU431
 1673 005e 4FF44871 		mov	r1, #800
 1674 0062 5180     		strh	r1, [r2, #2]	@ movhi
 1675 0064 E6E7     		b	.L115
 1676              	.L123:
 475:Drivers/LCD_FMC/src/tftLCD.c ****             lcddev.setxcmd = 0X2B;  				//设置写X坐标指令
 1677              		.loc 1 475 13 is_stmt 1 view .LVU432
 475:Drivers/LCD_FMC/src/tftLCD.c ****             lcddev.setxcmd = 0X2B;  				//设置写X坐标指令
 1678              		.loc 1 475 28 is_stmt 0 view .LVU433
 1679 0066 2B4A     		ldr	r2, .L127
 1680 0068 2C21     		movs	r1, #44
 1681 006a 1181     		strh	r1, [r2, #8]	@ movhi
 476:Drivers/LCD_FMC/src/tftLCD.c ****             lcddev.setycmd = 0X2A;  				//设置写Y坐标指令
 1682              		.loc 1 476 13 is_stmt 1 view .LVU434
 476:Drivers/LCD_FMC/src/tftLCD.c ****             lcddev.setycmd = 0X2A;  				//设置写Y坐标指令
 1683              		.loc 1 476 28 is_stmt 0 view .LVU435
 1684 006c 2B21     		movs	r1, #43
 1685 006e 5181     		strh	r1, [r2, #10]	@ movhi
 477:Drivers/LCD_FMC/src/tftLCD.c ****             lcddev.width = 480;     				//设置宽度480
 1686              		.loc 1 477 13 is_stmt 1 view .LVU436
 477:Drivers/LCD_FMC/src/tftLCD.c ****             lcddev.width = 480;     				//设置宽度480
 1687              		.loc 1 477 28 is_stmt 0 view .LVU437
 1688 0070 2A21     		movs	r1, #42
 1689 0072 9181     		strh	r1, [r2, #12]	@ movhi
 478:Drivers/LCD_FMC/src/tftLCD.c ****             lcddev.height = 800;    				//设置高度800
 1690              		.loc 1 478 13 is_stmt 1 view .LVU438
 478:Drivers/LCD_FMC/src/tftLCD.c ****             lcddev.height = 800;    				//设置高度800
 1691              		.loc 1 478 26 is_stmt 0 view .LVU439
 1692 0074 4FF4F071 		mov	r1, #480
 1693 0078 1180     		strh	r1, [r2]	@ movhi
 479:Drivers/LCD_FMC/src/tftLCD.c ****         }
 1694              		.loc 1 479 13 is_stmt 1 view .LVU440
 479:Drivers/LCD_FMC/src/tftLCD.c ****         }
 1695              		.loc 1 479 27 is_stmt 0 view .LVU441
 1696 007a 4FF44871 		mov	r1, #800
 1697 007e 5180     		strh	r1, [r2, #2]	@ movhi
 1698 0080 D8E7     		b	.L115
 1699              	.L124:
 490:Drivers/LCD_FMC/src/tftLCD.c ****             lcddev.height = 480;
 1700              		.loc 1 490 13 is_stmt 1 view .LVU442
 490:Drivers/LCD_FMC/src/tftLCD.c ****             lcddev.height = 480;
 1701              		.loc 1 490 26 is_stmt 0 view .LVU443
ARM GAS  C:\usertemp\ccUDQ5mr.s 			page 43


 1702 0082 244B     		ldr	r3, .L127
 1703 0084 4FF4A072 		mov	r2, #320
 1704 0088 1A80     		strh	r2, [r3]	@ movhi
 491:Drivers/LCD_FMC/src/tftLCD.c ****         }
 1705              		.loc 1 491 13 is_stmt 1 view .LVU444
 491:Drivers/LCD_FMC/src/tftLCD.c ****         }
 1706              		.loc 1 491 27 is_stmt 0 view .LVU445
 1707 008a 4FF4F072 		mov	r2, #480
 1708 008e 5A80     		strh	r2, [r3, #2]	@ movhi
 1709 0090 D4E7     		b	.L117
 1710              	.L113:
 496:Drivers/LCD_FMC/src/tftLCD.c ****         lcddev.height = 240;
 1711              		.loc 1 496 9 is_stmt 1 view .LVU446
 496:Drivers/LCD_FMC/src/tftLCD.c ****         lcddev.height = 240;
 1712              		.loc 1 496 22 is_stmt 0 view .LVU447
 1713 0092 204B     		ldr	r3, .L127
 1714 0094 4FF4A072 		mov	r2, #320
 1715 0098 1A80     		strh	r2, [r3]	@ movhi
 497:Drivers/LCD_FMC/src/tftLCD.c **** 
 1716              		.loc 1 497 9 is_stmt 1 view .LVU448
 497:Drivers/LCD_FMC/src/tftLCD.c **** 
 1717              		.loc 1 497 23 is_stmt 0 view .LVU449
 1718 009a F022     		movs	r2, #240
 1719 009c 5A80     		strh	r2, [r3, #2]	@ movhi
 499:Drivers/LCD_FMC/src/tftLCD.c ****         {
 1720              		.loc 1 499 9 is_stmt 1 view .LVU450
 499:Drivers/LCD_FMC/src/tftLCD.c ****         {
 1721              		.loc 1 499 19 is_stmt 0 view .LVU451
 1722 009e 9B88     		ldrh	r3, [r3, #4]
 499:Drivers/LCD_FMC/src/tftLCD.c ****         {
 1723              		.loc 1 499 12 view .LVU452
 1724 00a0 45F21052 		movw	r2, #21776
 1725 00a4 9342     		cmp	r3, r2
 1726 00a6 16D0     		beq	.L125
 507:Drivers/LCD_FMC/src/tftLCD.c ****         {
 1727              		.loc 1 507 14 is_stmt 1 view .LVU453
 507:Drivers/LCD_FMC/src/tftLCD.c ****         {
 1728              		.loc 1 507 17 is_stmt 0 view .LVU454
 1729 00a8 41F66312 		movw	r2, #6499
 1730 00ac 9342     		cmp	r3, r2
 1731 00ae 23D0     		beq	.L126
 517:Drivers/LCD_FMC/src/tftLCD.c ****             lcddev.setxcmd = 0X2A;
 1732              		.loc 1 517 13 is_stmt 1 view .LVU455
 517:Drivers/LCD_FMC/src/tftLCD.c ****             lcddev.setxcmd = 0X2A;
 1733              		.loc 1 517 28 is_stmt 0 view .LVU456
 1734 00b0 184A     		ldr	r2, .L127
 1735 00b2 2C21     		movs	r1, #44
 1736 00b4 1181     		strh	r1, [r2, #8]	@ movhi
 518:Drivers/LCD_FMC/src/tftLCD.c ****             lcddev.setycmd = 0X2B;
 1737              		.loc 1 518 13 is_stmt 1 view .LVU457
 518:Drivers/LCD_FMC/src/tftLCD.c ****             lcddev.setycmd = 0X2B;
 1738              		.loc 1 518 28 is_stmt 0 view .LVU458
 1739 00b6 2A21     		movs	r1, #42
 1740 00b8 5181     		strh	r1, [r2, #10]	@ movhi
 519:Drivers/LCD_FMC/src/tftLCD.c ****         }
 1741              		.loc 1 519 13 is_stmt 1 view .LVU459
 519:Drivers/LCD_FMC/src/tftLCD.c ****         }
ARM GAS  C:\usertemp\ccUDQ5mr.s 			page 44


 1742              		.loc 1 519 28 is_stmt 0 view .LVU460
 1743 00ba 2B21     		movs	r1, #43
 1744 00bc 9181     		strh	r1, [r2, #12]	@ movhi
 1745              	.L119:
 522:Drivers/LCD_FMC/src/tftLCD.c ****         {
 1746              		.loc 1 522 9 is_stmt 1 view .LVU461
 522:Drivers/LCD_FMC/src/tftLCD.c ****         {
 1747              		.loc 1 522 12 is_stmt 0 view .LVU462
 1748 00be 45F21032 		movw	r2, #21264
 1749 00c2 9342     		cmp	r3, r2
 1750 00c4 BAD1     		bne	.L117
 524:Drivers/LCD_FMC/src/tftLCD.c ****             lcddev.height = 320;
 1751              		.loc 1 524 13 is_stmt 1 view .LVU463
 524:Drivers/LCD_FMC/src/tftLCD.c ****             lcddev.height = 320;
 1752              		.loc 1 524 26 is_stmt 0 view .LVU464
 1753 00c6 134B     		ldr	r3, .L127
 1754 00c8 4FF4F072 		mov	r2, #480
 1755 00cc 1A80     		strh	r2, [r3]	@ movhi
 525:Drivers/LCD_FMC/src/tftLCD.c ****         }
 1756              		.loc 1 525 13 is_stmt 1 view .LVU465
 525:Drivers/LCD_FMC/src/tftLCD.c ****         }
 1757              		.loc 1 525 27 is_stmt 0 view .LVU466
 1758 00ce 4FF4A072 		mov	r2, #320
 1759 00d2 5A80     		strh	r2, [r3, #2]	@ movhi
 1760 00d4 B2E7     		b	.L117
 1761              	.L125:
 501:Drivers/LCD_FMC/src/tftLCD.c ****             lcddev.setxcmd = 0X2A00;
 1762              		.loc 1 501 13 is_stmt 1 view .LVU467
 501:Drivers/LCD_FMC/src/tftLCD.c ****             lcddev.setxcmd = 0X2A00;
 1763              		.loc 1 501 28 is_stmt 0 view .LVU468
 1764 00d6 0F4A     		ldr	r2, .L127
 1765 00d8 4FF43051 		mov	r1, #11264
 1766 00dc 1181     		strh	r1, [r2, #8]	@ movhi
 502:Drivers/LCD_FMC/src/tftLCD.c ****             lcddev.setycmd = 0X2B00;
 1767              		.loc 1 502 13 is_stmt 1 view .LVU469
 502:Drivers/LCD_FMC/src/tftLCD.c ****             lcddev.setycmd = 0X2B00;
 1768              		.loc 1 502 28 is_stmt 0 view .LVU470
 1769 00de 4FF42851 		mov	r1, #10752
 1770 00e2 5181     		strh	r1, [r2, #10]	@ movhi
 503:Drivers/LCD_FMC/src/tftLCD.c ****             lcddev.width = 800;
 1771              		.loc 1 503 13 is_stmt 1 view .LVU471
 503:Drivers/LCD_FMC/src/tftLCD.c ****             lcddev.width = 800;
 1772              		.loc 1 503 28 is_stmt 0 view .LVU472
 1773 00e4 4FF42C51 		mov	r1, #11008
 1774 00e8 9181     		strh	r1, [r2, #12]	@ movhi
 504:Drivers/LCD_FMC/src/tftLCD.c ****             lcddev.height = 480;
 1775              		.loc 1 504 13 is_stmt 1 view .LVU473
 504:Drivers/LCD_FMC/src/tftLCD.c ****             lcddev.height = 480;
 1776              		.loc 1 504 26 is_stmt 0 view .LVU474
 1777 00ea 4FF44871 		mov	r1, #800
 1778 00ee 1180     		strh	r1, [r2]	@ movhi
 505:Drivers/LCD_FMC/src/tftLCD.c ****         }
 1779              		.loc 1 505 13 is_stmt 1 view .LVU475
 505:Drivers/LCD_FMC/src/tftLCD.c ****         }
 1780              		.loc 1 505 27 is_stmt 0 view .LVU476
 1781 00f0 4FF4F071 		mov	r1, #480
 1782 00f4 5180     		strh	r1, [r2, #2]	@ movhi
ARM GAS  C:\usertemp\ccUDQ5mr.s 			page 45


 1783 00f6 E2E7     		b	.L119
 1784              	.L126:
 509:Drivers/LCD_FMC/src/tftLCD.c ****             lcddev.setxcmd = 0X2A;  				//设置写X坐标指令
 1785              		.loc 1 509 13 is_stmt 1 view .LVU477
 509:Drivers/LCD_FMC/src/tftLCD.c ****             lcddev.setxcmd = 0X2A;  				//设置写X坐标指令
 1786              		.loc 1 509 28 is_stmt 0 view .LVU478
 1787 00f8 064A     		ldr	r2, .L127
 1788 00fa 2C21     		movs	r1, #44
 1789 00fc 1181     		strh	r1, [r2, #8]	@ movhi
 510:Drivers/LCD_FMC/src/tftLCD.c ****             lcddev.setycmd = 0X2B;  				//设置写Y坐标指令
 1790              		.loc 1 510 13 is_stmt 1 view .LVU479
 510:Drivers/LCD_FMC/src/tftLCD.c ****             lcddev.setycmd = 0X2B;  				//设置写Y坐标指令
 1791              		.loc 1 510 28 is_stmt 0 view .LVU480
 1792 00fe 2A21     		movs	r1, #42
 1793 0100 5181     		strh	r1, [r2, #10]	@ movhi
 511:Drivers/LCD_FMC/src/tftLCD.c ****             lcddev.width = 800;     				//设置宽度800
 1794              		.loc 1 511 13 is_stmt 1 view .LVU481
 511:Drivers/LCD_FMC/src/tftLCD.c ****             lcddev.width = 800;     				//设置宽度800
 1795              		.loc 1 511 28 is_stmt 0 view .LVU482
 1796 0102 2B21     		movs	r1, #43
 1797 0104 9181     		strh	r1, [r2, #12]	@ movhi
 512:Drivers/LCD_FMC/src/tftLCD.c ****             lcddev.height = 480;    				//设置高度480
 1798              		.loc 1 512 13 is_stmt 1 view .LVU483
 512:Drivers/LCD_FMC/src/tftLCD.c ****             lcddev.height = 480;    				//设置高度480
 1799              		.loc 1 512 26 is_stmt 0 view .LVU484
 1800 0106 4FF44871 		mov	r1, #800
 1801 010a 1180     		strh	r1, [r2]	@ movhi
 513:Drivers/LCD_FMC/src/tftLCD.c ****         }
 1802              		.loc 1 513 13 is_stmt 1 view .LVU485
 513:Drivers/LCD_FMC/src/tftLCD.c ****         }
 1803              		.loc 1 513 27 is_stmt 0 view .LVU486
 1804 010c 4FF4F071 		mov	r1, #480
 1805 0110 5180     		strh	r1, [r2, #2]	@ movhi
 1806 0112 D4E7     		b	.L119
 1807              	.L128:
 1808              		.align	2
 1809              	.L127:
 1810 0114 00000000 		.word	lcddev
 1811              		.cfi_endproc
 1812              	.LFE351:
 1814              		.section	.text.LCD_Set_Window,"ax",%progbits
 1815              		.align	1
 1816              		.global	LCD_Set_Window
 1817              		.syntax unified
 1818              		.thumb
 1819              		.thumb_func
 1821              	LCD_Set_Window:
 1822              	.LVL171:
 1823              	.LFB352:
 531:Drivers/LCD_FMC/src/tftLCD.c **** 
 532:Drivers/LCD_FMC/src/tftLCD.c **** //设置窗口,并自动设置画点坐标到窗口左上角(sx,sy).
 533:Drivers/LCD_FMC/src/tftLCD.c **** //sx,sy:窗口起始坐标(左上角)
 534:Drivers/LCD_FMC/src/tftLCD.c **** //width,height:窗口宽度和高度,必须大于0!!
 535:Drivers/LCD_FMC/src/tftLCD.c **** //窗体大小:width*height.
 536:Drivers/LCD_FMC/src/tftLCD.c **** void LCD_Set_Window(uint16_t sx, uint16_t sy, uint16_t width, uint16_t height)
 537:Drivers/LCD_FMC/src/tftLCD.c **** {
 1824              		.loc 1 537 1 is_stmt 1 view -0
ARM GAS  C:\usertemp\ccUDQ5mr.s 			page 46


 1825              		.cfi_startproc
 1826              		@ args = 0, pretend = 0, frame = 0
 1827              		@ frame_needed = 0, uses_anonymous_args = 0
 1828              		.loc 1 537 1 is_stmt 0 view .LVU488
 1829 0000 2DE9F843 		push	{r3, r4, r5, r6, r7, r8, r9, lr}
 1830              	.LCFI19:
 1831              		.cfi_def_cfa_offset 32
 1832              		.cfi_offset 3, -32
 1833              		.cfi_offset 4, -28
 1834              		.cfi_offset 5, -24
 1835              		.cfi_offset 6, -20
 1836              		.cfi_offset 7, -16
 1837              		.cfi_offset 8, -12
 1838              		.cfi_offset 9, -8
 1839              		.cfi_offset 14, -4
 1840 0004 0746     		mov	r7, r0
 1841 0006 0E46     		mov	r6, r1
 1842 0008 9046     		mov	r8, r2
 538:Drivers/LCD_FMC/src/tftLCD.c ****     uint16_t twidth, theight;
 1843              		.loc 1 538 5 is_stmt 1 view .LVU489
 539:Drivers/LCD_FMC/src/tftLCD.c ****     twidth = sx + width - 1;
 1844              		.loc 1 539 5 view .LVU490
 1845              		.loc 1 539 17 is_stmt 0 view .LVU491
 1846 000a 8518     		adds	r5, r0, r2
 1847 000c ADB2     		uxth	r5, r5
 1848              		.loc 1 539 12 view .LVU492
 1849 000e 013D     		subs	r5, r5, #1
 1850 0010 ADB2     		uxth	r5, r5
 1851              	.LVL172:
 540:Drivers/LCD_FMC/src/tftLCD.c ****     theight = sy + height - 1;
 1852              		.loc 1 540 5 is_stmt 1 view .LVU493
 1853              		.loc 1 540 18 is_stmt 0 view .LVU494
 1854 0012 CC18     		adds	r4, r1, r3
 1855 0014 A4B2     		uxth	r4, r4
 1856              		.loc 1 540 13 view .LVU495
 1857 0016 013C     		subs	r4, r4, #1
 1858 0018 A4B2     		uxth	r4, r4
 1859              	.LVL173:
 541:Drivers/LCD_FMC/src/tftLCD.c **** 
 542:Drivers/LCD_FMC/src/tftLCD.c ****     if (lcddev.id == 0X1963 && lcddev.dir != 1)     //1963竖屏特殊处理
 1860              		.loc 1 542 5 is_stmt 1 view .LVU496
 1861              		.loc 1 542 15 is_stmt 0 view .LVU497
 1862 001a 544B     		ldr	r3, .L136
 1863              	.LVL174:
 1864              		.loc 1 542 15 view .LVU498
 1865 001c 9B88     		ldrh	r3, [r3, #4]
 1866              		.loc 1 542 8 view .LVU499
 1867 001e 41F66312 		movw	r2, #6499
 1868              	.LVL175:
 1869              		.loc 1 542 8 view .LVU500
 1870 0022 9342     		cmp	r3, r2
 1871 0024 27D0     		beq	.L134
 1872              	.L130:
 543:Drivers/LCD_FMC/src/tftLCD.c ****     {
 544:Drivers/LCD_FMC/src/tftLCD.c ****         sx = lcddev.width - width - sx;
 545:Drivers/LCD_FMC/src/tftLCD.c ****         height = sy + height - 1;
 546:Drivers/LCD_FMC/src/tftLCD.c ****         LCD_WR_REG(lcddev.setxcmd);
ARM GAS  C:\usertemp\ccUDQ5mr.s 			page 47


 547:Drivers/LCD_FMC/src/tftLCD.c ****         LCD_WR_DATA(sx >> 8);
 548:Drivers/LCD_FMC/src/tftLCD.c ****         LCD_WR_DATA(sx & 0XFF);
 549:Drivers/LCD_FMC/src/tftLCD.c ****         LCD_WR_DATA((sx + width - 1) >> 8);
 550:Drivers/LCD_FMC/src/tftLCD.c ****         LCD_WR_DATA((sx + width - 1) & 0XFF);
 551:Drivers/LCD_FMC/src/tftLCD.c ****         LCD_WR_REG(lcddev.setycmd);
 552:Drivers/LCD_FMC/src/tftLCD.c ****         LCD_WR_DATA(sy >> 8);
 553:Drivers/LCD_FMC/src/tftLCD.c ****         LCD_WR_DATA(sy & 0XFF);
 554:Drivers/LCD_FMC/src/tftLCD.c ****         LCD_WR_DATA(height >> 8);
 555:Drivers/LCD_FMC/src/tftLCD.c ****         LCD_WR_DATA(height & 0XFF);
 556:Drivers/LCD_FMC/src/tftLCD.c ****     }
 557:Drivers/LCD_FMC/src/tftLCD.c ****     else if (lcddev.id == 0X5510)
 1873              		.loc 1 557 10 is_stmt 1 view .LVU501
 1874              		.loc 1 557 13 is_stmt 0 view .LVU502
 1875 0026 45F21052 		movw	r2, #21776
 1876 002a 9342     		cmp	r3, r2
 1877 002c 56D0     		beq	.L135
 558:Drivers/LCD_FMC/src/tftLCD.c ****     {
 559:Drivers/LCD_FMC/src/tftLCD.c ****         LCD_WR_REG(lcddev.setxcmd);
 560:Drivers/LCD_FMC/src/tftLCD.c ****         LCD_WR_DATA(sx >> 8);
 561:Drivers/LCD_FMC/src/tftLCD.c ****         LCD_WR_REG(lcddev.setxcmd + 1);
 562:Drivers/LCD_FMC/src/tftLCD.c ****         LCD_WR_DATA(sx & 0XFF);
 563:Drivers/LCD_FMC/src/tftLCD.c ****         LCD_WR_REG(lcddev.setxcmd + 2);
 564:Drivers/LCD_FMC/src/tftLCD.c ****         LCD_WR_DATA(twidth >> 8);
 565:Drivers/LCD_FMC/src/tftLCD.c ****         LCD_WR_REG(lcddev.setxcmd + 3);
 566:Drivers/LCD_FMC/src/tftLCD.c ****         LCD_WR_DATA(twidth & 0XFF);
 567:Drivers/LCD_FMC/src/tftLCD.c ****         LCD_WR_REG(lcddev.setycmd);
 568:Drivers/LCD_FMC/src/tftLCD.c ****         LCD_WR_DATA(sy >> 8);
 569:Drivers/LCD_FMC/src/tftLCD.c ****         LCD_WR_REG(lcddev.setycmd + 1);
 570:Drivers/LCD_FMC/src/tftLCD.c ****         LCD_WR_DATA(sy & 0XFF);
 571:Drivers/LCD_FMC/src/tftLCD.c ****         LCD_WR_REG(lcddev.setycmd + 2);
 572:Drivers/LCD_FMC/src/tftLCD.c ****         LCD_WR_DATA(theight >> 8);
 573:Drivers/LCD_FMC/src/tftLCD.c ****         LCD_WR_REG(lcddev.setycmd + 3);
 574:Drivers/LCD_FMC/src/tftLCD.c ****         LCD_WR_DATA(theight & 0XFF);
 575:Drivers/LCD_FMC/src/tftLCD.c ****     }
 576:Drivers/LCD_FMC/src/tftLCD.c ****     else     //9341/5310/7789/1963横屏 等 设置窗口
 577:Drivers/LCD_FMC/src/tftLCD.c ****     {
 578:Drivers/LCD_FMC/src/tftLCD.c ****         LCD_WR_REG(lcddev.setxcmd);
 1878              		.loc 1 578 9 is_stmt 1 view .LVU503
 1879 002e DFF83C81 		ldr	r8, .L136
 1880              	.LVL176:
 1881              		.loc 1 578 9 is_stmt 0 view .LVU504
 1882 0032 B8F80A00 		ldrh	r0, [r8, #10]
 1883              	.LVL177:
 1884              		.loc 1 578 9 view .LVU505
 1885 0036 FFF7FEFF 		bl	LCD_WR_REG
 1886              	.LVL178:
 579:Drivers/LCD_FMC/src/tftLCD.c ****         LCD_WR_DATA(sx >> 8);
 1887              		.loc 1 579 9 is_stmt 1 view .LVU506
 1888 003a 380A     		lsrs	r0, r7, #8
 1889 003c FFF7FEFF 		bl	LCD_WR_DATA
 1890              	.LVL179:
 580:Drivers/LCD_FMC/src/tftLCD.c ****         LCD_WR_DATA(sx & 0XFF);
 1891              		.loc 1 580 9 view .LVU507
 1892 0040 F8B2     		uxtb	r0, r7
 1893 0042 FFF7FEFF 		bl	LCD_WR_DATA
 1894              	.LVL180:
 581:Drivers/LCD_FMC/src/tftLCD.c ****         LCD_WR_DATA(twidth >> 8);
ARM GAS  C:\usertemp\ccUDQ5mr.s 			page 48


 1895              		.loc 1 581 9 view .LVU508
 1896 0046 280A     		lsrs	r0, r5, #8
 1897 0048 FFF7FEFF 		bl	LCD_WR_DATA
 1898              	.LVL181:
 582:Drivers/LCD_FMC/src/tftLCD.c ****         LCD_WR_DATA(twidth & 0XFF);
 1899              		.loc 1 582 9 view .LVU509
 1900 004c E8B2     		uxtb	r0, r5
 1901 004e FFF7FEFF 		bl	LCD_WR_DATA
 1902              	.LVL182:
 583:Drivers/LCD_FMC/src/tftLCD.c ****         LCD_WR_REG(lcddev.setycmd);
 1903              		.loc 1 583 9 view .LVU510
 1904 0052 B8F80C00 		ldrh	r0, [r8, #12]
 1905 0056 FFF7FEFF 		bl	LCD_WR_REG
 1906              	.LVL183:
 584:Drivers/LCD_FMC/src/tftLCD.c ****         LCD_WR_DATA(sy >> 8);
 1907              		.loc 1 584 9 view .LVU511
 1908 005a 300A     		lsrs	r0, r6, #8
 1909 005c FFF7FEFF 		bl	LCD_WR_DATA
 1910              	.LVL184:
 585:Drivers/LCD_FMC/src/tftLCD.c ****         LCD_WR_DATA(sy & 0XFF);
 1911              		.loc 1 585 9 view .LVU512
 1912 0060 F0B2     		uxtb	r0, r6
 1913 0062 FFF7FEFF 		bl	LCD_WR_DATA
 1914              	.LVL185:
 586:Drivers/LCD_FMC/src/tftLCD.c ****         LCD_WR_DATA(theight >> 8);
 1915              		.loc 1 586 9 view .LVU513
 1916 0066 200A     		lsrs	r0, r4, #8
 1917 0068 FFF7FEFF 		bl	LCD_WR_DATA
 1918              	.LVL186:
 587:Drivers/LCD_FMC/src/tftLCD.c ****         LCD_WR_DATA(theight & 0XFF);
 1919              		.loc 1 587 9 view .LVU514
 1920 006c E0B2     		uxtb	r0, r4
 1921 006e FFF7FEFF 		bl	LCD_WR_DATA
 1922              	.LVL187:
 1923              	.L129:
 588:Drivers/LCD_FMC/src/tftLCD.c ****     }
 589:Drivers/LCD_FMC/src/tftLCD.c **** }
 1924              		.loc 1 589 1 is_stmt 0 view .LVU515
 1925 0072 BDE8F883 		pop	{r3, r4, r5, r6, r7, r8, r9, pc}
 1926              	.LVL188:
 1927              	.L134:
 542:Drivers/LCD_FMC/src/tftLCD.c ****     {
 1928              		.loc 1 542 38 discriminator 1 view .LVU516
 1929 0076 3D4A     		ldr	r2, .L136
 1930 0078 9279     		ldrb	r2, [r2, #6]	@ zero_extendqisi2
 542:Drivers/LCD_FMC/src/tftLCD.c ****     {
 1931              		.loc 1 542 29 discriminator 1 view .LVU517
 1932 007a 012A     		cmp	r2, #1
 1933 007c D3D0     		beq	.L130
 544:Drivers/LCD_FMC/src/tftLCD.c ****         height = sy + height - 1;
 1934              		.loc 1 544 9 is_stmt 1 view .LVU518
 544:Drivers/LCD_FMC/src/tftLCD.c ****         height = sy + height - 1;
 1935              		.loc 1 544 20 is_stmt 0 view .LVU519
 1936 007e DFF8EC90 		ldr	r9, .L136
 1937 0082 B9F80050 		ldrh	r5, [r9]
 1938              	.LVL189:
 544:Drivers/LCD_FMC/src/tftLCD.c ****         height = sy + height - 1;
ARM GAS  C:\usertemp\ccUDQ5mr.s 			page 49


 1939              		.loc 1 544 27 view .LVU520
 1940 0086 A5EB0805 		sub	r5, r5, r8
 1941 008a ADB2     		uxth	r5, r5
 544:Drivers/LCD_FMC/src/tftLCD.c ****         height = sy + height - 1;
 1942              		.loc 1 544 12 view .LVU521
 1943 008c 2D1A     		subs	r5, r5, r0
 1944 008e ADB2     		uxth	r5, r5
 1945              	.LVL190:
 545:Drivers/LCD_FMC/src/tftLCD.c ****         LCD_WR_REG(lcddev.setxcmd);
 1946              		.loc 1 545 9 is_stmt 1 view .LVU522
 546:Drivers/LCD_FMC/src/tftLCD.c ****         LCD_WR_DATA(sx >> 8);
 1947              		.loc 1 546 9 view .LVU523
 1948 0090 B9F80A00 		ldrh	r0, [r9, #10]
 1949 0094 FFF7FEFF 		bl	LCD_WR_REG
 1950              	.LVL191:
 547:Drivers/LCD_FMC/src/tftLCD.c ****         LCD_WR_DATA(sx & 0XFF);
 1951              		.loc 1 547 9 view .LVU524
 1952 0098 280A     		lsrs	r0, r5, #8
 1953 009a FFF7FEFF 		bl	LCD_WR_DATA
 1954              	.LVL192:
 548:Drivers/LCD_FMC/src/tftLCD.c ****         LCD_WR_DATA((sx + width - 1) >> 8);
 1955              		.loc 1 548 9 view .LVU525
 1956 009e E8B2     		uxtb	r0, r5
 1957 00a0 FFF7FEFF 		bl	LCD_WR_DATA
 1958              	.LVL193:
 549:Drivers/LCD_FMC/src/tftLCD.c ****         LCD_WR_DATA((sx + width - 1) & 0XFF);
 1959              		.loc 1 549 9 view .LVU526
 549:Drivers/LCD_FMC/src/tftLCD.c ****         LCD_WR_DATA((sx + width - 1) & 0XFF);
 1960              		.loc 1 549 25 is_stmt 0 view .LVU527
 1961 00a4 4544     		add	r5, r5, r8
 1962              	.LVL194:
 549:Drivers/LCD_FMC/src/tftLCD.c ****         LCD_WR_DATA((sx + width - 1) & 0XFF);
 1963              		.loc 1 549 33 view .LVU528
 1964 00a6 681E     		subs	r0, r5, #1
 549:Drivers/LCD_FMC/src/tftLCD.c ****         LCD_WR_DATA((sx + width - 1) & 0XFF);
 1965              		.loc 1 549 9 view .LVU529
 1966 00a8 C0F30F20 		ubfx	r0, r0, #8, #16
 1967 00ac FFF7FEFF 		bl	LCD_WR_DATA
 1968              	.LVL195:
 550:Drivers/LCD_FMC/src/tftLCD.c ****         LCD_WR_REG(lcddev.setycmd);
 1969              		.loc 1 550 9 is_stmt 1 view .LVU530
 550:Drivers/LCD_FMC/src/tftLCD.c ****         LCD_WR_REG(lcddev.setycmd);
 1970              		.loc 1 550 25 is_stmt 0 view .LVU531
 1971 00b0 ADB2     		uxth	r5, r5
 550:Drivers/LCD_FMC/src/tftLCD.c ****         LCD_WR_REG(lcddev.setycmd);
 1972              		.loc 1 550 33 view .LVU532
 1973 00b2 681E     		subs	r0, r5, #1
 550:Drivers/LCD_FMC/src/tftLCD.c ****         LCD_WR_REG(lcddev.setycmd);
 1974              		.loc 1 550 9 view .LVU533
 1975 00b4 C0B2     		uxtb	r0, r0
 1976 00b6 FFF7FEFF 		bl	LCD_WR_DATA
 1977              	.LVL196:
 551:Drivers/LCD_FMC/src/tftLCD.c ****         LCD_WR_DATA(sy >> 8);
 1978              		.loc 1 551 9 is_stmt 1 view .LVU534
 1979 00ba B9F80C00 		ldrh	r0, [r9, #12]
 1980 00be FFF7FEFF 		bl	LCD_WR_REG
 1981              	.LVL197:
ARM GAS  C:\usertemp\ccUDQ5mr.s 			page 50


 552:Drivers/LCD_FMC/src/tftLCD.c ****         LCD_WR_DATA(sy & 0XFF);
 1982              		.loc 1 552 9 view .LVU535
 1983 00c2 300A     		lsrs	r0, r6, #8
 1984 00c4 FFF7FEFF 		bl	LCD_WR_DATA
 1985              	.LVL198:
 553:Drivers/LCD_FMC/src/tftLCD.c ****         LCD_WR_DATA(height >> 8);
 1986              		.loc 1 553 9 view .LVU536
 1987 00c8 F0B2     		uxtb	r0, r6
 1988 00ca FFF7FEFF 		bl	LCD_WR_DATA
 1989              	.LVL199:
 554:Drivers/LCD_FMC/src/tftLCD.c ****         LCD_WR_DATA(height & 0XFF);
 1990              		.loc 1 554 9 view .LVU537
 1991 00ce 200A     		lsrs	r0, r4, #8
 1992 00d0 FFF7FEFF 		bl	LCD_WR_DATA
 1993              	.LVL200:
 555:Drivers/LCD_FMC/src/tftLCD.c ****     }
 1994              		.loc 1 555 9 view .LVU538
 1995 00d4 E0B2     		uxtb	r0, r4
 1996 00d6 FFF7FEFF 		bl	LCD_WR_DATA
 1997              	.LVL201:
 1998 00da CAE7     		b	.L129
 1999              	.LVL202:
 2000              	.L135:
 559:Drivers/LCD_FMC/src/tftLCD.c ****         LCD_WR_DATA(sx >> 8);
 2001              		.loc 1 559 9 view .LVU539
 2002 00dc DFF88C80 		ldr	r8, .L136
 2003 00e0 B8F80A00 		ldrh	r0, [r8, #10]
 2004              	.LVL203:
 559:Drivers/LCD_FMC/src/tftLCD.c ****         LCD_WR_DATA(sx >> 8);
 2005              		.loc 1 559 9 is_stmt 0 view .LVU540
 2006 00e4 FFF7FEFF 		bl	LCD_WR_REG
 2007              	.LVL204:
 560:Drivers/LCD_FMC/src/tftLCD.c ****         LCD_WR_REG(lcddev.setxcmd + 1);
 2008              		.loc 1 560 9 is_stmt 1 view .LVU541
 2009 00e8 380A     		lsrs	r0, r7, #8
 2010 00ea FFF7FEFF 		bl	LCD_WR_DATA
 2011              	.LVL205:
 561:Drivers/LCD_FMC/src/tftLCD.c ****         LCD_WR_DATA(sx & 0XFF);
 2012              		.loc 1 561 9 view .LVU542
 561:Drivers/LCD_FMC/src/tftLCD.c ****         LCD_WR_DATA(sx & 0XFF);
 2013              		.loc 1 561 26 is_stmt 0 view .LVU543
 2014 00ee B8F80A00 		ldrh	r0, [r8, #10]
 561:Drivers/LCD_FMC/src/tftLCD.c ****         LCD_WR_DATA(sx & 0XFF);
 2015              		.loc 1 561 9 view .LVU544
 2016 00f2 0130     		adds	r0, r0, #1
 2017 00f4 80B2     		uxth	r0, r0
 2018 00f6 FFF7FEFF 		bl	LCD_WR_REG
 2019              	.LVL206:
 562:Drivers/LCD_FMC/src/tftLCD.c ****         LCD_WR_REG(lcddev.setxcmd + 2);
 2020              		.loc 1 562 9 is_stmt 1 view .LVU545
 2021 00fa F8B2     		uxtb	r0, r7
 2022 00fc FFF7FEFF 		bl	LCD_WR_DATA
 2023              	.LVL207:
 563:Drivers/LCD_FMC/src/tftLCD.c ****         LCD_WR_DATA(twidth >> 8);
 2024              		.loc 1 563 9 view .LVU546
 563:Drivers/LCD_FMC/src/tftLCD.c ****         LCD_WR_DATA(twidth >> 8);
 2025              		.loc 1 563 26 is_stmt 0 view .LVU547
ARM GAS  C:\usertemp\ccUDQ5mr.s 			page 51


 2026 0100 B8F80A00 		ldrh	r0, [r8, #10]
 563:Drivers/LCD_FMC/src/tftLCD.c ****         LCD_WR_DATA(twidth >> 8);
 2027              		.loc 1 563 9 view .LVU548
 2028 0104 0230     		adds	r0, r0, #2
 2029 0106 80B2     		uxth	r0, r0
 2030 0108 FFF7FEFF 		bl	LCD_WR_REG
 2031              	.LVL208:
 564:Drivers/LCD_FMC/src/tftLCD.c ****         LCD_WR_REG(lcddev.setxcmd + 3);
 2032              		.loc 1 564 9 is_stmt 1 view .LVU549
 2033 010c 280A     		lsrs	r0, r5, #8
 2034 010e FFF7FEFF 		bl	LCD_WR_DATA
 2035              	.LVL209:
 565:Drivers/LCD_FMC/src/tftLCD.c ****         LCD_WR_DATA(twidth & 0XFF);
 2036              		.loc 1 565 9 view .LVU550
 565:Drivers/LCD_FMC/src/tftLCD.c ****         LCD_WR_DATA(twidth & 0XFF);
 2037              		.loc 1 565 26 is_stmt 0 view .LVU551
 2038 0112 B8F80A00 		ldrh	r0, [r8, #10]
 565:Drivers/LCD_FMC/src/tftLCD.c ****         LCD_WR_DATA(twidth & 0XFF);
 2039              		.loc 1 565 9 view .LVU552
 2040 0116 0330     		adds	r0, r0, #3
 2041 0118 80B2     		uxth	r0, r0
 2042 011a FFF7FEFF 		bl	LCD_WR_REG
 2043              	.LVL210:
 566:Drivers/LCD_FMC/src/tftLCD.c ****         LCD_WR_REG(lcddev.setycmd);
 2044              		.loc 1 566 9 is_stmt 1 view .LVU553
 2045 011e E8B2     		uxtb	r0, r5
 2046 0120 FFF7FEFF 		bl	LCD_WR_DATA
 2047              	.LVL211:
 567:Drivers/LCD_FMC/src/tftLCD.c ****         LCD_WR_DATA(sy >> 8);
 2048              		.loc 1 567 9 view .LVU554
 2049 0124 B8F80C00 		ldrh	r0, [r8, #12]
 2050 0128 FFF7FEFF 		bl	LCD_WR_REG
 2051              	.LVL212:
 568:Drivers/LCD_FMC/src/tftLCD.c ****         LCD_WR_REG(lcddev.setycmd + 1);
 2052              		.loc 1 568 9 view .LVU555
 2053 012c 300A     		lsrs	r0, r6, #8
 2054 012e FFF7FEFF 		bl	LCD_WR_DATA
 2055              	.LVL213:
 569:Drivers/LCD_FMC/src/tftLCD.c ****         LCD_WR_DATA(sy & 0XFF);
 2056              		.loc 1 569 9 view .LVU556
 569:Drivers/LCD_FMC/src/tftLCD.c ****         LCD_WR_DATA(sy & 0XFF);
 2057              		.loc 1 569 26 is_stmt 0 view .LVU557
 2058 0132 B8F80C00 		ldrh	r0, [r8, #12]
 569:Drivers/LCD_FMC/src/tftLCD.c ****         LCD_WR_DATA(sy & 0XFF);
 2059              		.loc 1 569 9 view .LVU558
 2060 0136 0130     		adds	r0, r0, #1
 2061 0138 80B2     		uxth	r0, r0
 2062 013a FFF7FEFF 		bl	LCD_WR_REG
 2063              	.LVL214:
 570:Drivers/LCD_FMC/src/tftLCD.c ****         LCD_WR_REG(lcddev.setycmd + 2);
 2064              		.loc 1 570 9 is_stmt 1 view .LVU559
 2065 013e F0B2     		uxtb	r0, r6
 2066 0140 FFF7FEFF 		bl	LCD_WR_DATA
 2067              	.LVL215:
 571:Drivers/LCD_FMC/src/tftLCD.c ****         LCD_WR_DATA(theight >> 8);
 2068              		.loc 1 571 9 view .LVU560
 571:Drivers/LCD_FMC/src/tftLCD.c ****         LCD_WR_DATA(theight >> 8);
ARM GAS  C:\usertemp\ccUDQ5mr.s 			page 52


 2069              		.loc 1 571 26 is_stmt 0 view .LVU561
 2070 0144 B8F80C00 		ldrh	r0, [r8, #12]
 571:Drivers/LCD_FMC/src/tftLCD.c ****         LCD_WR_DATA(theight >> 8);
 2071              		.loc 1 571 9 view .LVU562
 2072 0148 0230     		adds	r0, r0, #2
 2073 014a 80B2     		uxth	r0, r0
 2074 014c FFF7FEFF 		bl	LCD_WR_REG
 2075              	.LVL216:
 572:Drivers/LCD_FMC/src/tftLCD.c ****         LCD_WR_REG(lcddev.setycmd + 3);
 2076              		.loc 1 572 9 is_stmt 1 view .LVU563
 2077 0150 200A     		lsrs	r0, r4, #8
 2078 0152 FFF7FEFF 		bl	LCD_WR_DATA
 2079              	.LVL217:
 573:Drivers/LCD_FMC/src/tftLCD.c ****         LCD_WR_DATA(theight & 0XFF);
 2080              		.loc 1 573 9 view .LVU564
 573:Drivers/LCD_FMC/src/tftLCD.c ****         LCD_WR_DATA(theight & 0XFF);
 2081              		.loc 1 573 26 is_stmt 0 view .LVU565
 2082 0156 B8F80C00 		ldrh	r0, [r8, #12]
 573:Drivers/LCD_FMC/src/tftLCD.c ****         LCD_WR_DATA(theight & 0XFF);
 2083              		.loc 1 573 9 view .LVU566
 2084 015a 0330     		adds	r0, r0, #3
 2085 015c 80B2     		uxth	r0, r0
 2086 015e FFF7FEFF 		bl	LCD_WR_REG
 2087              	.LVL218:
 574:Drivers/LCD_FMC/src/tftLCD.c ****     }
 2088              		.loc 1 574 9 is_stmt 1 view .LVU567
 2089 0162 E0B2     		uxtb	r0, r4
 2090 0164 FFF7FEFF 		bl	LCD_WR_DATA
 2091              	.LVL219:
 2092 0168 83E7     		b	.L129
 2093              	.L137:
 2094 016a 00BF     		.align	2
 2095              	.L136:
 2096 016c 00000000 		.word	lcddev
 2097              		.cfi_endproc
 2098              	.LFE352:
 2100              		.section	.text.LCD_Clear,"ax",%progbits
 2101              		.align	1
 2102              		.global	LCD_Clear
 2103              		.syntax unified
 2104              		.thumb
 2105              		.thumb_func
 2107              	LCD_Clear:
 2108              	.LVL220:
 2109              	.LFB354:
 590:Drivers/LCD_FMC/src/tftLCD.c **** 
 591:Drivers/LCD_FMC/src/tftLCD.c **** //初始化lcd
 592:Drivers/LCD_FMC/src/tftLCD.c **** //该初始化函数可以初始化各种ILI93XX液晶,但是其他函数是基于ILI9320的!!!
 593:Drivers/LCD_FMC/src/tftLCD.c **** //在其他型号的驱动芯片上没有测试!
 594:Drivers/LCD_FMC/src/tftLCD.c **** void LCD_Init(void)
 595:Drivers/LCD_FMC/src/tftLCD.c **** {
 596:Drivers/LCD_FMC/src/tftLCD.c ****     //尝试9341 ID的读取
 597:Drivers/LCD_FMC/src/tftLCD.c ****    LCD_WR_REG(0XD3);
 598:Drivers/LCD_FMC/src/tftLCD.c ****     lcddev.id = LCD_RD_DATA();	//dummy read
 599:Drivers/LCD_FMC/src/tftLCD.c ****     lcddev.id = LCD_RD_DATA();	//读到0X00
 600:Drivers/LCD_FMC/src/tftLCD.c ****     lcddev.id = LCD_RD_DATA();   	//读取93
 601:Drivers/LCD_FMC/src/tftLCD.c ****     lcddev.id <<= 8;
ARM GAS  C:\usertemp\ccUDQ5mr.s 			page 53


 602:Drivers/LCD_FMC/src/tftLCD.c ****     lcddev.id |= LCD_RD_DATA();  	//读取41
 603:Drivers/LCD_FMC/src/tftLCD.c **** 
 604:Drivers/LCD_FMC/src/tftLCD.c ****     if (lcddev.id != 0X9341)		//非9341,尝试看看是不是NT35310
 605:Drivers/LCD_FMC/src/tftLCD.c ****     {
 606:Drivers/LCD_FMC/src/tftLCD.c ****         LCD_WR_REG(0X04);
 607:Drivers/LCD_FMC/src/tftLCD.c ****         lcddev.id = LCD_RD_DATA();      //dummy read
 608:Drivers/LCD_FMC/src/tftLCD.c ****         lcddev.id = LCD_RD_DATA();      //读到0X85
 609:Drivers/LCD_FMC/src/tftLCD.c ****         lcddev.id = LCD_RD_DATA();      //读取0X85
 610:Drivers/LCD_FMC/src/tftLCD.c ****         lcddev.id <<= 8;
 611:Drivers/LCD_FMC/src/tftLCD.c ****         lcddev.id |= LCD_RD_DATA();     //读取0X52
 612:Drivers/LCD_FMC/src/tftLCD.c **** 
 613:Drivers/LCD_FMC/src/tftLCD.c ****         if (lcddev.id == 0X8552)        //将8552的ID转换成7789
 614:Drivers/LCD_FMC/src/tftLCD.c ****         {
 615:Drivers/LCD_FMC/src/tftLCD.c ****             lcddev.id = 0x7789;
 616:Drivers/LCD_FMC/src/tftLCD.c ****         }
 617:Drivers/LCD_FMC/src/tftLCD.c **** 
 618:Drivers/LCD_FMC/src/tftLCD.c ****         if (lcddev.id != 0x7789)        //也不是ST7789, 尝试是不是 NT35310
 619:Drivers/LCD_FMC/src/tftLCD.c ****         {
 620:Drivers/LCD_FMC/src/tftLCD.c ****             LCD_WR_REG(0XD4);
 621:Drivers/LCD_FMC/src/tftLCD.c ****             lcddev.id = LCD_RD_DATA(); //dummy read
 622:Drivers/LCD_FMC/src/tftLCD.c ****             lcddev.id = LCD_RD_DATA(); //读回0X01
 623:Drivers/LCD_FMC/src/tftLCD.c ****             lcddev.id = LCD_RD_DATA(); //读回0X53
 624:Drivers/LCD_FMC/src/tftLCD.c ****             lcddev.id <<= 8;
 625:Drivers/LCD_FMC/src/tftLCD.c ****             lcddev.id |= LCD_RD_DATA();	//这里读回0X10
 626:Drivers/LCD_FMC/src/tftLCD.c **** 
 627:Drivers/LCD_FMC/src/tftLCD.c ****             if (lcddev.id != 0X5310)    //也不是NT35310,尝试看看是不是NT35510
 628:Drivers/LCD_FMC/src/tftLCD.c ****             {
 629:Drivers/LCD_FMC/src/tftLCD.c ****                 LCD_WR_REG(0XD3);
 630:Drivers/LCD_FMC/src/tftLCD.c ****                 lcddev.id = LCD_RD_DATA();  /* dummy read */
 631:Drivers/LCD_FMC/src/tftLCD.c ****                 lcddev.id = LCD_RD_DATA();  /* 读到0X00 */
 632:Drivers/LCD_FMC/src/tftLCD.c ****                 lcddev.id = LCD_RD_DATA();  /* 读取0X77 */
 633:Drivers/LCD_FMC/src/tftLCD.c ****                 lcddev.id <<= 8;
 634:Drivers/LCD_FMC/src/tftLCD.c ****                 lcddev.id |= LCD_RD_DATA(); /* 读取0X96 */
 635:Drivers/LCD_FMC/src/tftLCD.c ****                 
 636:Drivers/LCD_FMC/src/tftLCD.c ****                 if (lcddev.id != 0x7796)    /* 也不是ST7796,尝试看看是不是NT35510 */
 637:Drivers/LCD_FMC/src/tftLCD.c ****                 {
 638:Drivers/LCD_FMC/src/tftLCD.c ****                     //发送秘钥（厂家提供,照搬即可）
 639:Drivers/LCD_FMC/src/tftLCD.c ****                     LCD_WriteReg(0xF000, 0x0055);
 640:Drivers/LCD_FMC/src/tftLCD.c ****                     LCD_WriteReg(0xF001, 0x00AA);
 641:Drivers/LCD_FMC/src/tftLCD.c ****                     LCD_WriteReg(0xF002, 0x0052);
 642:Drivers/LCD_FMC/src/tftLCD.c ****                     LCD_WriteReg(0xF003, 0x0008);
 643:Drivers/LCD_FMC/src/tftLCD.c ****                     LCD_WriteReg(0xF004, 0x0001);
 644:Drivers/LCD_FMC/src/tftLCD.c **** 
 645:Drivers/LCD_FMC/src/tftLCD.c ****                     LCD_WR_REG(0xC500);             //读取ID高8位
 646:Drivers/LCD_FMC/src/tftLCD.c ****                     lcddev.id = LCD_RD_DATA();      //读回0X55
 647:Drivers/LCD_FMC/src/tftLCD.c ****                     lcddev.id <<= 8;
 648:Drivers/LCD_FMC/src/tftLCD.c **** 
 649:Drivers/LCD_FMC/src/tftLCD.c ****                     LCD_WR_REG(0xC501);             //读取ID低8位
 650:Drivers/LCD_FMC/src/tftLCD.c ****                     lcddev.id |= LCD_RD_DATA();     //读回0X10
 651:Drivers/LCD_FMC/src/tftLCD.c ****                     HAL_Delay(5);
 652:Drivers/LCD_FMC/src/tftLCD.c ****                     
 653:Drivers/LCD_FMC/src/tftLCD.c ****                     if (lcddev.id != 0X5510)        //也不是NT5510,尝试看看是不是SSD1963
 654:Drivers/LCD_FMC/src/tftLCD.c ****                     {
 655:Drivers/LCD_FMC/src/tftLCD.c ****                         LCD_WR_REG(0XD3);
 656:Drivers/LCD_FMC/src/tftLCD.c ****                         lcddev.id = LCD_RD_DATA();  /* dummy read */
 657:Drivers/LCD_FMC/src/tftLCD.c ****                         lcddev.id = LCD_RD_DATA();  /* 读回0X00 */
 658:Drivers/LCD_FMC/src/tftLCD.c ****                         lcddev.id = LCD_RD_DATA();  /* 读回0X98 */
ARM GAS  C:\usertemp\ccUDQ5mr.s 			page 54


 659:Drivers/LCD_FMC/src/tftLCD.c ****                         lcddev.id <<= 8;
 660:Drivers/LCD_FMC/src/tftLCD.c ****                         lcddev.id |= LCD_RD_DATA(); /* 读回0X06 */
 661:Drivers/LCD_FMC/src/tftLCD.c ****                         
 662:Drivers/LCD_FMC/src/tftLCD.c ****                         if (lcddev.id != 0x9806)    /* 也不是ILI9806,尝试看看是不是SSD196
 663:Drivers/LCD_FMC/src/tftLCD.c ****                         {
 664:Drivers/LCD_FMC/src/tftLCD.c ****                             LCD_WR_REG(0XA1);
 665:Drivers/LCD_FMC/src/tftLCD.c ****                             lcddev.id = LCD_RD_DATA();
 666:Drivers/LCD_FMC/src/tftLCD.c ****                             lcddev.id = LCD_RD_DATA();  //读回0X57
 667:Drivers/LCD_FMC/src/tftLCD.c ****                             lcddev.id <<= 8;
 668:Drivers/LCD_FMC/src/tftLCD.c ****                             lcddev.id |= LCD_RD_DATA(); //读回0X61
 669:Drivers/LCD_FMC/src/tftLCD.c **** 
 670:Drivers/LCD_FMC/src/tftLCD.c ****                             if (lcddev.id == 0X5761)lcddev.id = 0X1963; //SSD1963读回的ID是5761
 671:Drivers/LCD_FMC/src/tftLCD.c ****                         }
 672:Drivers/LCD_FMC/src/tftLCD.c ****                     }
 673:Drivers/LCD_FMC/src/tftLCD.c ****                 }
 674:Drivers/LCD_FMC/src/tftLCD.c ****             }
 675:Drivers/LCD_FMC/src/tftLCD.c ****         }
 676:Drivers/LCD_FMC/src/tftLCD.c ****     }
 677:Drivers/LCD_FMC/src/tftLCD.c ****     /* 特别注意, 如果在main函数里面屏蔽串口1初始化, 则会卡死在printf
 678:Drivers/LCD_FMC/src/tftLCD.c ****      * 里面(卡死在f_putc函数), 所以, 必须初始化串口1, 或者屏蔽掉下面
 679:Drivers/LCD_FMC/src/tftLCD.c ****      * 这行 printf 语句 !!!!!!!
 680:Drivers/LCD_FMC/src/tftLCD.c ****      */
 681:Drivers/LCD_FMC/src/tftLCD.c **** 
 682:Drivers/LCD_FMC/src/tftLCD.c **** //    printf("LCD ID:%x\r\n",lcddev.id); //打印LCD ID
 683:Drivers/LCD_FMC/src/tftLCD.c ****     if(lcddev.id==0X9341)	//9341初始化
 684:Drivers/LCD_FMC/src/tftLCD.c ****     {
 685:Drivers/LCD_FMC/src/tftLCD.c ****         LCD_WR_REG(0xCF);
 686:Drivers/LCD_FMC/src/tftLCD.c ****         LCD_WR_DATA(0x00);
 687:Drivers/LCD_FMC/src/tftLCD.c ****         LCD_WR_DATA(0xC1);
 688:Drivers/LCD_FMC/src/tftLCD.c ****         LCD_WR_DATA(0X30);
 689:Drivers/LCD_FMC/src/tftLCD.c ****         LCD_WR_REG(0xED);
 690:Drivers/LCD_FMC/src/tftLCD.c ****         LCD_WR_DATA(0x64);
 691:Drivers/LCD_FMC/src/tftLCD.c ****         LCD_WR_DATA(0x03);
 692:Drivers/LCD_FMC/src/tftLCD.c ****         LCD_WR_DATA(0X12);
 693:Drivers/LCD_FMC/src/tftLCD.c ****         LCD_WR_DATA(0X81);
 694:Drivers/LCD_FMC/src/tftLCD.c ****         LCD_WR_REG(0xE8);
 695:Drivers/LCD_FMC/src/tftLCD.c ****         LCD_WR_DATA(0x85);
 696:Drivers/LCD_FMC/src/tftLCD.c ****         LCD_WR_DATA(0x10);
 697:Drivers/LCD_FMC/src/tftLCD.c ****         LCD_WR_DATA(0x7A);
 698:Drivers/LCD_FMC/src/tftLCD.c ****         LCD_WR_REG(0xCB);
 699:Drivers/LCD_FMC/src/tftLCD.c ****         LCD_WR_DATA(0x39);
 700:Drivers/LCD_FMC/src/tftLCD.c ****         LCD_WR_DATA(0x2C);
 701:Drivers/LCD_FMC/src/tftLCD.c ****         LCD_WR_DATA(0x00);
 702:Drivers/LCD_FMC/src/tftLCD.c ****         LCD_WR_DATA(0x34);
 703:Drivers/LCD_FMC/src/tftLCD.c ****         LCD_WR_DATA(0x02);
 704:Drivers/LCD_FMC/src/tftLCD.c ****         LCD_WR_REG(0xF7);
 705:Drivers/LCD_FMC/src/tftLCD.c ****         LCD_WR_DATA(0x20);
 706:Drivers/LCD_FMC/src/tftLCD.c ****         LCD_WR_REG(0xEA);
 707:Drivers/LCD_FMC/src/tftLCD.c ****         LCD_WR_DATA(0x00);
 708:Drivers/LCD_FMC/src/tftLCD.c ****         LCD_WR_DATA(0x00);
 709:Drivers/LCD_FMC/src/tftLCD.c ****         LCD_WR_REG(0xC0);    //Power control
 710:Drivers/LCD_FMC/src/tftLCD.c ****         LCD_WR_DATA(0x1B);   //VRH[5:0]
 711:Drivers/LCD_FMC/src/tftLCD.c ****         LCD_WR_REG(0xC1);    //Power control
 712:Drivers/LCD_FMC/src/tftLCD.c ****         LCD_WR_DATA(0x01);   //SAP[2:0];BT[3:0]
 713:Drivers/LCD_FMC/src/tftLCD.c ****         LCD_WR_REG(0xC5);    //VCM control
 714:Drivers/LCD_FMC/src/tftLCD.c ****         LCD_WR_DATA(0x30); 	 //3F
 715:Drivers/LCD_FMC/src/tftLCD.c ****         LCD_WR_DATA(0x30); 	 //3C
ARM GAS  C:\usertemp\ccUDQ5mr.s 			page 55


 716:Drivers/LCD_FMC/src/tftLCD.c ****         LCD_WR_REG(0xC7);    //VCM control2
 717:Drivers/LCD_FMC/src/tftLCD.c ****         LCD_WR_DATA(0XB7);
 718:Drivers/LCD_FMC/src/tftLCD.c ****         LCD_WR_REG(0x36);    // Memory Access Control
 719:Drivers/LCD_FMC/src/tftLCD.c ****         LCD_WR_DATA(0x48);
 720:Drivers/LCD_FMC/src/tftLCD.c ****         LCD_WR_REG(0x3A);
 721:Drivers/LCD_FMC/src/tftLCD.c ****         LCD_WR_DATA(0x55);
 722:Drivers/LCD_FMC/src/tftLCD.c ****         LCD_WR_REG(0xB1);
 723:Drivers/LCD_FMC/src/tftLCD.c ****         LCD_WR_DATA(0x00);
 724:Drivers/LCD_FMC/src/tftLCD.c ****         LCD_WR_DATA(0x1A);
 725:Drivers/LCD_FMC/src/tftLCD.c ****         LCD_WR_REG(0xB6);    // Display Function Control
 726:Drivers/LCD_FMC/src/tftLCD.c ****         LCD_WR_DATA(0x0A);
 727:Drivers/LCD_FMC/src/tftLCD.c ****         LCD_WR_DATA(0xA2);
 728:Drivers/LCD_FMC/src/tftLCD.c ****         LCD_WR_REG(0xF2);    // 3Gamma Function Disable
 729:Drivers/LCD_FMC/src/tftLCD.c ****         LCD_WR_DATA(0x00);
 730:Drivers/LCD_FMC/src/tftLCD.c ****         LCD_WR_REG(0x26);    //Gamma curve selected
 731:Drivers/LCD_FMC/src/tftLCD.c ****         LCD_WR_DATA(0x01);
 732:Drivers/LCD_FMC/src/tftLCD.c ****         LCD_WR_REG(0xE0);    //Set Gamma
 733:Drivers/LCD_FMC/src/tftLCD.c ****         LCD_WR_DATA(0x0F);
 734:Drivers/LCD_FMC/src/tftLCD.c ****         LCD_WR_DATA(0x2A);
 735:Drivers/LCD_FMC/src/tftLCD.c ****         LCD_WR_DATA(0x28);
 736:Drivers/LCD_FMC/src/tftLCD.c ****         LCD_WR_DATA(0x08);
 737:Drivers/LCD_FMC/src/tftLCD.c ****         LCD_WR_DATA(0x0E);
 738:Drivers/LCD_FMC/src/tftLCD.c ****         LCD_WR_DATA(0x08);
 739:Drivers/LCD_FMC/src/tftLCD.c ****         LCD_WR_DATA(0x54);
 740:Drivers/LCD_FMC/src/tftLCD.c ****         LCD_WR_DATA(0XA9);
 741:Drivers/LCD_FMC/src/tftLCD.c ****         LCD_WR_DATA(0x43);
 742:Drivers/LCD_FMC/src/tftLCD.c ****         LCD_WR_DATA(0x0A);
 743:Drivers/LCD_FMC/src/tftLCD.c ****         LCD_WR_DATA(0x0F);
 744:Drivers/LCD_FMC/src/tftLCD.c ****         LCD_WR_DATA(0x00);
 745:Drivers/LCD_FMC/src/tftLCD.c ****         LCD_WR_DATA(0x00);
 746:Drivers/LCD_FMC/src/tftLCD.c ****         LCD_WR_DATA(0x00);
 747:Drivers/LCD_FMC/src/tftLCD.c ****         LCD_WR_DATA(0x00);
 748:Drivers/LCD_FMC/src/tftLCD.c ****         LCD_WR_REG(0XE1);    //Set Gamma
 749:Drivers/LCD_FMC/src/tftLCD.c ****         LCD_WR_DATA(0x00);
 750:Drivers/LCD_FMC/src/tftLCD.c ****         LCD_WR_DATA(0x15);
 751:Drivers/LCD_FMC/src/tftLCD.c ****         LCD_WR_DATA(0x17);
 752:Drivers/LCD_FMC/src/tftLCD.c ****         LCD_WR_DATA(0x07);
 753:Drivers/LCD_FMC/src/tftLCD.c ****         LCD_WR_DATA(0x11);
 754:Drivers/LCD_FMC/src/tftLCD.c ****         LCD_WR_DATA(0x06);
 755:Drivers/LCD_FMC/src/tftLCD.c ****         LCD_WR_DATA(0x2B);
 756:Drivers/LCD_FMC/src/tftLCD.c ****         LCD_WR_DATA(0x56);
 757:Drivers/LCD_FMC/src/tftLCD.c ****         LCD_WR_DATA(0x3C);
 758:Drivers/LCD_FMC/src/tftLCD.c ****         LCD_WR_DATA(0x05);
 759:Drivers/LCD_FMC/src/tftLCD.c ****         LCD_WR_DATA(0x10);
 760:Drivers/LCD_FMC/src/tftLCD.c ****         LCD_WR_DATA(0x0F);
 761:Drivers/LCD_FMC/src/tftLCD.c ****         LCD_WR_DATA(0x3F);
 762:Drivers/LCD_FMC/src/tftLCD.c ****         LCD_WR_DATA(0x3F);
 763:Drivers/LCD_FMC/src/tftLCD.c ****         LCD_WR_DATA(0x0F);
 764:Drivers/LCD_FMC/src/tftLCD.c ****         LCD_WR_REG(0x2B);
 765:Drivers/LCD_FMC/src/tftLCD.c ****         LCD_WR_DATA(0x00);
 766:Drivers/LCD_FMC/src/tftLCD.c ****         LCD_WR_DATA(0x00);
 767:Drivers/LCD_FMC/src/tftLCD.c ****         LCD_WR_DATA(0x01);
 768:Drivers/LCD_FMC/src/tftLCD.c ****         LCD_WR_DATA(0x3f);
 769:Drivers/LCD_FMC/src/tftLCD.c ****         LCD_WR_REG(0x2A);
 770:Drivers/LCD_FMC/src/tftLCD.c ****         LCD_WR_DATA(0x00);
 771:Drivers/LCD_FMC/src/tftLCD.c ****         LCD_WR_DATA(0x00);
 772:Drivers/LCD_FMC/src/tftLCD.c ****         LCD_WR_DATA(0x00);
ARM GAS  C:\usertemp\ccUDQ5mr.s 			page 56


 773:Drivers/LCD_FMC/src/tftLCD.c ****         LCD_WR_DATA(0xef);
 774:Drivers/LCD_FMC/src/tftLCD.c ****         LCD_WR_REG(0x11); //Exit Sleep
 775:Drivers/LCD_FMC/src/tftLCD.c ****         HAL_Delay(120);
 776:Drivers/LCD_FMC/src/tftLCD.c ****         LCD_WR_REG(0x29); //display on
 777:Drivers/LCD_FMC/src/tftLCD.c ****     }
 778:Drivers/LCD_FMC/src/tftLCD.c ****     else if(lcddev.id==0x7789)      //7789初始化
 779:Drivers/LCD_FMC/src/tftLCD.c ****     {
 780:Drivers/LCD_FMC/src/tftLCD.c ****         LCD_WR_REG(0x11);
 781:Drivers/LCD_FMC/src/tftLCD.c **** 
 782:Drivers/LCD_FMC/src/tftLCD.c ****         HAL_Delay(120);
 783:Drivers/LCD_FMC/src/tftLCD.c **** 
 784:Drivers/LCD_FMC/src/tftLCD.c ****         LCD_WR_REG(0x36);
 785:Drivers/LCD_FMC/src/tftLCD.c ****         LCD_WR_DATA(0x00);
 786:Drivers/LCD_FMC/src/tftLCD.c **** 
 787:Drivers/LCD_FMC/src/tftLCD.c **** 
 788:Drivers/LCD_FMC/src/tftLCD.c ****         LCD_WR_REG(0x3A);
 789:Drivers/LCD_FMC/src/tftLCD.c ****         LCD_WR_DATA(0X05);
 790:Drivers/LCD_FMC/src/tftLCD.c **** 
 791:Drivers/LCD_FMC/src/tftLCD.c ****         LCD_WR_REG(0xB2);
 792:Drivers/LCD_FMC/src/tftLCD.c ****         LCD_WR_DATA(0x0C);
 793:Drivers/LCD_FMC/src/tftLCD.c ****         LCD_WR_DATA(0x0C);
 794:Drivers/LCD_FMC/src/tftLCD.c ****         LCD_WR_DATA(0x00);
 795:Drivers/LCD_FMC/src/tftLCD.c ****         LCD_WR_DATA(0x33);
 796:Drivers/LCD_FMC/src/tftLCD.c ****         LCD_WR_DATA(0x33);
 797:Drivers/LCD_FMC/src/tftLCD.c **** 
 798:Drivers/LCD_FMC/src/tftLCD.c ****         LCD_WR_REG(0xB7);
 799:Drivers/LCD_FMC/src/tftLCD.c ****         LCD_WR_DATA(0x35);
 800:Drivers/LCD_FMC/src/tftLCD.c **** 
 801:Drivers/LCD_FMC/src/tftLCD.c ****         LCD_WR_REG(0xBB);       //vcom
 802:Drivers/LCD_FMC/src/tftLCD.c ****         LCD_WR_DATA(0x32);      //30
 803:Drivers/LCD_FMC/src/tftLCD.c **** 
 804:Drivers/LCD_FMC/src/tftLCD.c ****         LCD_WR_REG(0xC0);
 805:Drivers/LCD_FMC/src/tftLCD.c ****         LCD_WR_DATA(0x0C);
 806:Drivers/LCD_FMC/src/tftLCD.c **** 
 807:Drivers/LCD_FMC/src/tftLCD.c ****         LCD_WR_REG(0xC2);
 808:Drivers/LCD_FMC/src/tftLCD.c ****         LCD_WR_DATA(0x01);
 809:Drivers/LCD_FMC/src/tftLCD.c **** 
 810:Drivers/LCD_FMC/src/tftLCD.c ****         LCD_WR_REG(0xC3);       //vrh
 811:Drivers/LCD_FMC/src/tftLCD.c ****         LCD_WR_DATA(0x10);      //17 0D
 812:Drivers/LCD_FMC/src/tftLCD.c **** 
 813:Drivers/LCD_FMC/src/tftLCD.c ****         LCD_WR_REG(0xC4);       //vdv
 814:Drivers/LCD_FMC/src/tftLCD.c ****         LCD_WR_DATA(0x20);      //20
 815:Drivers/LCD_FMC/src/tftLCD.c **** 
 816:Drivers/LCD_FMC/src/tftLCD.c ****         LCD_WR_REG(0xC6);
 817:Drivers/LCD_FMC/src/tftLCD.c ****         LCD_WR_DATA(0x0f);
 818:Drivers/LCD_FMC/src/tftLCD.c **** 
 819:Drivers/LCD_FMC/src/tftLCD.c ****         LCD_WR_REG(0xD0);
 820:Drivers/LCD_FMC/src/tftLCD.c ****         LCD_WR_DATA(0xA4);
 821:Drivers/LCD_FMC/src/tftLCD.c ****         LCD_WR_DATA(0xA1);
 822:Drivers/LCD_FMC/src/tftLCD.c **** 
 823:Drivers/LCD_FMC/src/tftLCD.c ****         LCD_WR_REG(0xE0);       //Set Gamma
 824:Drivers/LCD_FMC/src/tftLCD.c ****         LCD_WR_DATA(0xd0);
 825:Drivers/LCD_FMC/src/tftLCD.c ****         LCD_WR_DATA(0x00);
 826:Drivers/LCD_FMC/src/tftLCD.c ****         LCD_WR_DATA(0x02);
 827:Drivers/LCD_FMC/src/tftLCD.c ****         LCD_WR_DATA(0x07);
 828:Drivers/LCD_FMC/src/tftLCD.c ****         LCD_WR_DATA(0x0a);
 829:Drivers/LCD_FMC/src/tftLCD.c ****         LCD_WR_DATA(0x28);
ARM GAS  C:\usertemp\ccUDQ5mr.s 			page 57


 830:Drivers/LCD_FMC/src/tftLCD.c ****         LCD_WR_DATA(0x32);
 831:Drivers/LCD_FMC/src/tftLCD.c ****         LCD_WR_DATA(0X44);
 832:Drivers/LCD_FMC/src/tftLCD.c ****         LCD_WR_DATA(0x42);
 833:Drivers/LCD_FMC/src/tftLCD.c ****         LCD_WR_DATA(0x06);
 834:Drivers/LCD_FMC/src/tftLCD.c ****         LCD_WR_DATA(0x0e);
 835:Drivers/LCD_FMC/src/tftLCD.c ****         LCD_WR_DATA(0x12);
 836:Drivers/LCD_FMC/src/tftLCD.c ****         LCD_WR_DATA(0x14);
 837:Drivers/LCD_FMC/src/tftLCD.c ****         LCD_WR_DATA(0x17);
 838:Drivers/LCD_FMC/src/tftLCD.c **** 
 839:Drivers/LCD_FMC/src/tftLCD.c ****         LCD_WR_REG(0XE1);       //Set Gamma
 840:Drivers/LCD_FMC/src/tftLCD.c ****         LCD_WR_DATA(0xd0);
 841:Drivers/LCD_FMC/src/tftLCD.c ****         LCD_WR_DATA(0x00);
 842:Drivers/LCD_FMC/src/tftLCD.c ****         LCD_WR_DATA(0x02);
 843:Drivers/LCD_FMC/src/tftLCD.c ****         LCD_WR_DATA(0x07);
 844:Drivers/LCD_FMC/src/tftLCD.c ****         LCD_WR_DATA(0x0a);
 845:Drivers/LCD_FMC/src/tftLCD.c ****         LCD_WR_DATA(0x28);
 846:Drivers/LCD_FMC/src/tftLCD.c ****         LCD_WR_DATA(0x31);
 847:Drivers/LCD_FMC/src/tftLCD.c ****         LCD_WR_DATA(0x54);
 848:Drivers/LCD_FMC/src/tftLCD.c ****         LCD_WR_DATA(0x47);
 849:Drivers/LCD_FMC/src/tftLCD.c ****         LCD_WR_DATA(0x0e);
 850:Drivers/LCD_FMC/src/tftLCD.c ****         LCD_WR_DATA(0x1c);
 851:Drivers/LCD_FMC/src/tftLCD.c ****         LCD_WR_DATA(0x17);
 852:Drivers/LCD_FMC/src/tftLCD.c ****         LCD_WR_DATA(0x1b);
 853:Drivers/LCD_FMC/src/tftLCD.c ****         LCD_WR_DATA(0x1e);
 854:Drivers/LCD_FMC/src/tftLCD.c **** 
 855:Drivers/LCD_FMC/src/tftLCD.c ****         LCD_WR_REG(0x2A);
 856:Drivers/LCD_FMC/src/tftLCD.c ****         LCD_WR_DATA(0x00);
 857:Drivers/LCD_FMC/src/tftLCD.c ****         LCD_WR_DATA(0x00);
 858:Drivers/LCD_FMC/src/tftLCD.c ****         LCD_WR_DATA(0x00);
 859:Drivers/LCD_FMC/src/tftLCD.c ****         LCD_WR_DATA(0xef);
 860:Drivers/LCD_FMC/src/tftLCD.c **** 
 861:Drivers/LCD_FMC/src/tftLCD.c ****         LCD_WR_REG(0x2B);
 862:Drivers/LCD_FMC/src/tftLCD.c ****         LCD_WR_DATA(0x00);
 863:Drivers/LCD_FMC/src/tftLCD.c ****         LCD_WR_DATA(0x00);
 864:Drivers/LCD_FMC/src/tftLCD.c ****         LCD_WR_DATA(0x01);
 865:Drivers/LCD_FMC/src/tftLCD.c ****         LCD_WR_DATA(0x3f);
 866:Drivers/LCD_FMC/src/tftLCD.c **** 
 867:Drivers/LCD_FMC/src/tftLCD.c ****         LCD_WR_REG(0x29);       //display on
 868:Drivers/LCD_FMC/src/tftLCD.c ****     }
 869:Drivers/LCD_FMC/src/tftLCD.c ****     else if(lcddev.id==0x5310)
 870:Drivers/LCD_FMC/src/tftLCD.c ****     {
 871:Drivers/LCD_FMC/src/tftLCD.c ****         LCD_WR_REG(0xED);
 872:Drivers/LCD_FMC/src/tftLCD.c ****         LCD_WR_DATA(0x01);
 873:Drivers/LCD_FMC/src/tftLCD.c ****         LCD_WR_DATA(0xFE);
 874:Drivers/LCD_FMC/src/tftLCD.c **** 
 875:Drivers/LCD_FMC/src/tftLCD.c ****         LCD_WR_REG(0xEE);
 876:Drivers/LCD_FMC/src/tftLCD.c ****         LCD_WR_DATA(0xDE);
 877:Drivers/LCD_FMC/src/tftLCD.c ****         LCD_WR_DATA(0x21);
 878:Drivers/LCD_FMC/src/tftLCD.c **** 
 879:Drivers/LCD_FMC/src/tftLCD.c ****         LCD_WR_REG(0xF1);
 880:Drivers/LCD_FMC/src/tftLCD.c ****         LCD_WR_DATA(0x01);
 881:Drivers/LCD_FMC/src/tftLCD.c ****         LCD_WR_REG(0xDF);
 882:Drivers/LCD_FMC/src/tftLCD.c ****         LCD_WR_DATA(0x10);
 883:Drivers/LCD_FMC/src/tftLCD.c **** 
 884:Drivers/LCD_FMC/src/tftLCD.c ****         //VCOMvoltage//
 885:Drivers/LCD_FMC/src/tftLCD.c ****         LCD_WR_REG(0xC4);
 886:Drivers/LCD_FMC/src/tftLCD.c ****         LCD_WR_DATA(0x8F);	  //5f
ARM GAS  C:\usertemp\ccUDQ5mr.s 			page 58


 887:Drivers/LCD_FMC/src/tftLCD.c **** 
 888:Drivers/LCD_FMC/src/tftLCD.c ****         LCD_WR_REG(0xC6);
 889:Drivers/LCD_FMC/src/tftLCD.c ****         LCD_WR_DATA(0x00);
 890:Drivers/LCD_FMC/src/tftLCD.c ****         LCD_WR_DATA(0xE2);
 891:Drivers/LCD_FMC/src/tftLCD.c ****         LCD_WR_DATA(0xE2);
 892:Drivers/LCD_FMC/src/tftLCD.c ****         LCD_WR_DATA(0xE2);
 893:Drivers/LCD_FMC/src/tftLCD.c ****         LCD_WR_REG(0xBF);
 894:Drivers/LCD_FMC/src/tftLCD.c ****         LCD_WR_DATA(0xAA);
 895:Drivers/LCD_FMC/src/tftLCD.c **** 
 896:Drivers/LCD_FMC/src/tftLCD.c ****         LCD_WR_REG(0xB0);
 897:Drivers/LCD_FMC/src/tftLCD.c ****         LCD_WR_DATA(0x0D);
 898:Drivers/LCD_FMC/src/tftLCD.c ****         LCD_WR_DATA(0x00);
 899:Drivers/LCD_FMC/src/tftLCD.c ****         LCD_WR_DATA(0x0D);
 900:Drivers/LCD_FMC/src/tftLCD.c ****         LCD_WR_DATA(0x00);
 901:Drivers/LCD_FMC/src/tftLCD.c ****         LCD_WR_DATA(0x11);
 902:Drivers/LCD_FMC/src/tftLCD.c ****         LCD_WR_DATA(0x00);
 903:Drivers/LCD_FMC/src/tftLCD.c ****         LCD_WR_DATA(0x19);
 904:Drivers/LCD_FMC/src/tftLCD.c ****         LCD_WR_DATA(0x00);
 905:Drivers/LCD_FMC/src/tftLCD.c ****         LCD_WR_DATA(0x21);
 906:Drivers/LCD_FMC/src/tftLCD.c ****         LCD_WR_DATA(0x00);
 907:Drivers/LCD_FMC/src/tftLCD.c ****         LCD_WR_DATA(0x2D);
 908:Drivers/LCD_FMC/src/tftLCD.c ****         LCD_WR_DATA(0x00);
 909:Drivers/LCD_FMC/src/tftLCD.c ****         LCD_WR_DATA(0x3D);
 910:Drivers/LCD_FMC/src/tftLCD.c ****         LCD_WR_DATA(0x00);
 911:Drivers/LCD_FMC/src/tftLCD.c ****         LCD_WR_DATA(0x5D);
 912:Drivers/LCD_FMC/src/tftLCD.c ****         LCD_WR_DATA(0x00);
 913:Drivers/LCD_FMC/src/tftLCD.c ****         LCD_WR_DATA(0x5D);
 914:Drivers/LCD_FMC/src/tftLCD.c ****         LCD_WR_DATA(0x00);
 915:Drivers/LCD_FMC/src/tftLCD.c **** 
 916:Drivers/LCD_FMC/src/tftLCD.c ****         LCD_WR_REG(0xB1);
 917:Drivers/LCD_FMC/src/tftLCD.c ****         LCD_WR_DATA(0x80);
 918:Drivers/LCD_FMC/src/tftLCD.c ****         LCD_WR_DATA(0x00);
 919:Drivers/LCD_FMC/src/tftLCD.c ****         LCD_WR_DATA(0x8B);
 920:Drivers/LCD_FMC/src/tftLCD.c ****         LCD_WR_DATA(0x00);
 921:Drivers/LCD_FMC/src/tftLCD.c ****         LCD_WR_DATA(0x96);
 922:Drivers/LCD_FMC/src/tftLCD.c ****         LCD_WR_DATA(0x00);
 923:Drivers/LCD_FMC/src/tftLCD.c **** 
 924:Drivers/LCD_FMC/src/tftLCD.c ****         LCD_WR_REG(0xB2);
 925:Drivers/LCD_FMC/src/tftLCD.c ****         LCD_WR_DATA(0x00);
 926:Drivers/LCD_FMC/src/tftLCD.c ****         LCD_WR_DATA(0x00);
 927:Drivers/LCD_FMC/src/tftLCD.c ****         LCD_WR_DATA(0x02);
 928:Drivers/LCD_FMC/src/tftLCD.c ****         LCD_WR_DATA(0x00);
 929:Drivers/LCD_FMC/src/tftLCD.c ****         LCD_WR_DATA(0x03);
 930:Drivers/LCD_FMC/src/tftLCD.c ****         LCD_WR_DATA(0x00);
 931:Drivers/LCD_FMC/src/tftLCD.c **** 
 932:Drivers/LCD_FMC/src/tftLCD.c ****         LCD_WR_REG(0xB3);
 933:Drivers/LCD_FMC/src/tftLCD.c ****         LCD_WR_DATA(0x00);
 934:Drivers/LCD_FMC/src/tftLCD.c ****         LCD_WR_DATA(0x00);
 935:Drivers/LCD_FMC/src/tftLCD.c ****         LCD_WR_DATA(0x00);
 936:Drivers/LCD_FMC/src/tftLCD.c ****         LCD_WR_DATA(0x00);
 937:Drivers/LCD_FMC/src/tftLCD.c ****         LCD_WR_DATA(0x00);
 938:Drivers/LCD_FMC/src/tftLCD.c ****         LCD_WR_DATA(0x00);
 939:Drivers/LCD_FMC/src/tftLCD.c ****         LCD_WR_DATA(0x00);
 940:Drivers/LCD_FMC/src/tftLCD.c ****         LCD_WR_DATA(0x00);
 941:Drivers/LCD_FMC/src/tftLCD.c ****         LCD_WR_DATA(0x00);
 942:Drivers/LCD_FMC/src/tftLCD.c ****         LCD_WR_DATA(0x00);
 943:Drivers/LCD_FMC/src/tftLCD.c ****         LCD_WR_DATA(0x00);
ARM GAS  C:\usertemp\ccUDQ5mr.s 			page 59


 944:Drivers/LCD_FMC/src/tftLCD.c ****         LCD_WR_DATA(0x00);
 945:Drivers/LCD_FMC/src/tftLCD.c ****         LCD_WR_DATA(0x00);
 946:Drivers/LCD_FMC/src/tftLCD.c ****         LCD_WR_DATA(0x00);
 947:Drivers/LCD_FMC/src/tftLCD.c ****         LCD_WR_DATA(0x00);
 948:Drivers/LCD_FMC/src/tftLCD.c ****         LCD_WR_DATA(0x00);
 949:Drivers/LCD_FMC/src/tftLCD.c ****         LCD_WR_DATA(0x00);
 950:Drivers/LCD_FMC/src/tftLCD.c ****         LCD_WR_DATA(0x00);
 951:Drivers/LCD_FMC/src/tftLCD.c ****         LCD_WR_DATA(0x00);
 952:Drivers/LCD_FMC/src/tftLCD.c ****         LCD_WR_DATA(0x00);
 953:Drivers/LCD_FMC/src/tftLCD.c ****         LCD_WR_DATA(0x00);
 954:Drivers/LCD_FMC/src/tftLCD.c ****         LCD_WR_DATA(0x00);
 955:Drivers/LCD_FMC/src/tftLCD.c ****         LCD_WR_DATA(0x00);
 956:Drivers/LCD_FMC/src/tftLCD.c ****         LCD_WR_DATA(0x00);
 957:Drivers/LCD_FMC/src/tftLCD.c **** 
 958:Drivers/LCD_FMC/src/tftLCD.c ****         LCD_WR_REG(0xB4);
 959:Drivers/LCD_FMC/src/tftLCD.c ****         LCD_WR_DATA(0x8B);
 960:Drivers/LCD_FMC/src/tftLCD.c ****         LCD_WR_DATA(0x00);
 961:Drivers/LCD_FMC/src/tftLCD.c ****         LCD_WR_DATA(0x96);
 962:Drivers/LCD_FMC/src/tftLCD.c ****         LCD_WR_DATA(0x00);
 963:Drivers/LCD_FMC/src/tftLCD.c ****         LCD_WR_DATA(0xA1);
 964:Drivers/LCD_FMC/src/tftLCD.c ****         LCD_WR_DATA(0x00);
 965:Drivers/LCD_FMC/src/tftLCD.c **** 
 966:Drivers/LCD_FMC/src/tftLCD.c ****         LCD_WR_REG(0xB5);
 967:Drivers/LCD_FMC/src/tftLCD.c ****         LCD_WR_DATA(0x02);
 968:Drivers/LCD_FMC/src/tftLCD.c ****         LCD_WR_DATA(0x00);
 969:Drivers/LCD_FMC/src/tftLCD.c ****         LCD_WR_DATA(0x03);
 970:Drivers/LCD_FMC/src/tftLCD.c ****         LCD_WR_DATA(0x00);
 971:Drivers/LCD_FMC/src/tftLCD.c ****         LCD_WR_DATA(0x04);
 972:Drivers/LCD_FMC/src/tftLCD.c ****         LCD_WR_DATA(0x00);
 973:Drivers/LCD_FMC/src/tftLCD.c **** 
 974:Drivers/LCD_FMC/src/tftLCD.c ****         LCD_WR_REG(0xB6);
 975:Drivers/LCD_FMC/src/tftLCD.c ****         LCD_WR_DATA(0x00);
 976:Drivers/LCD_FMC/src/tftLCD.c ****         LCD_WR_DATA(0x00);
 977:Drivers/LCD_FMC/src/tftLCD.c **** 
 978:Drivers/LCD_FMC/src/tftLCD.c ****         LCD_WR_REG(0xB7);
 979:Drivers/LCD_FMC/src/tftLCD.c ****         LCD_WR_DATA(0x00);
 980:Drivers/LCD_FMC/src/tftLCD.c ****         LCD_WR_DATA(0x00);
 981:Drivers/LCD_FMC/src/tftLCD.c ****         LCD_WR_DATA(0x3F);
 982:Drivers/LCD_FMC/src/tftLCD.c ****         LCD_WR_DATA(0x00);
 983:Drivers/LCD_FMC/src/tftLCD.c ****         LCD_WR_DATA(0x5E);
 984:Drivers/LCD_FMC/src/tftLCD.c ****         LCD_WR_DATA(0x00);
 985:Drivers/LCD_FMC/src/tftLCD.c ****         LCD_WR_DATA(0x64);
 986:Drivers/LCD_FMC/src/tftLCD.c ****         LCD_WR_DATA(0x00);
 987:Drivers/LCD_FMC/src/tftLCD.c ****         LCD_WR_DATA(0x8C);
 988:Drivers/LCD_FMC/src/tftLCD.c ****         LCD_WR_DATA(0x00);
 989:Drivers/LCD_FMC/src/tftLCD.c ****         LCD_WR_DATA(0xAC);
 990:Drivers/LCD_FMC/src/tftLCD.c ****         LCD_WR_DATA(0x00);
 991:Drivers/LCD_FMC/src/tftLCD.c ****         LCD_WR_DATA(0xDC);
 992:Drivers/LCD_FMC/src/tftLCD.c ****         LCD_WR_DATA(0x00);
 993:Drivers/LCD_FMC/src/tftLCD.c ****         LCD_WR_DATA(0x70);
 994:Drivers/LCD_FMC/src/tftLCD.c ****         LCD_WR_DATA(0x00);
 995:Drivers/LCD_FMC/src/tftLCD.c ****         LCD_WR_DATA(0x90);
 996:Drivers/LCD_FMC/src/tftLCD.c ****         LCD_WR_DATA(0x00);
 997:Drivers/LCD_FMC/src/tftLCD.c ****         LCD_WR_DATA(0xEB);
 998:Drivers/LCD_FMC/src/tftLCD.c ****         LCD_WR_DATA(0x00);
 999:Drivers/LCD_FMC/src/tftLCD.c ****         LCD_WR_DATA(0xDC);
1000:Drivers/LCD_FMC/src/tftLCD.c ****         LCD_WR_DATA(0x00);
ARM GAS  C:\usertemp\ccUDQ5mr.s 			page 60


1001:Drivers/LCD_FMC/src/tftLCD.c **** 
1002:Drivers/LCD_FMC/src/tftLCD.c ****         LCD_WR_REG(0xB8);
1003:Drivers/LCD_FMC/src/tftLCD.c ****         LCD_WR_DATA(0x00);
1004:Drivers/LCD_FMC/src/tftLCD.c ****         LCD_WR_DATA(0x00);
1005:Drivers/LCD_FMC/src/tftLCD.c ****         LCD_WR_DATA(0x00);
1006:Drivers/LCD_FMC/src/tftLCD.c ****         LCD_WR_DATA(0x00);
1007:Drivers/LCD_FMC/src/tftLCD.c ****         LCD_WR_DATA(0x00);
1008:Drivers/LCD_FMC/src/tftLCD.c ****         LCD_WR_DATA(0x00);
1009:Drivers/LCD_FMC/src/tftLCD.c ****         LCD_WR_DATA(0x00);
1010:Drivers/LCD_FMC/src/tftLCD.c ****         LCD_WR_DATA(0x00);
1011:Drivers/LCD_FMC/src/tftLCD.c **** 
1012:Drivers/LCD_FMC/src/tftLCD.c ****         LCD_WR_REG(0xBA);
1013:Drivers/LCD_FMC/src/tftLCD.c ****         LCD_WR_DATA(0x24);
1014:Drivers/LCD_FMC/src/tftLCD.c ****         LCD_WR_DATA(0x00);
1015:Drivers/LCD_FMC/src/tftLCD.c ****         LCD_WR_DATA(0x00);
1016:Drivers/LCD_FMC/src/tftLCD.c ****         LCD_WR_DATA(0x00);
1017:Drivers/LCD_FMC/src/tftLCD.c **** 
1018:Drivers/LCD_FMC/src/tftLCD.c ****         LCD_WR_REG(0xC1);
1019:Drivers/LCD_FMC/src/tftLCD.c ****         LCD_WR_DATA(0x20);
1020:Drivers/LCD_FMC/src/tftLCD.c ****         LCD_WR_DATA(0x00);
1021:Drivers/LCD_FMC/src/tftLCD.c ****         LCD_WR_DATA(0x54);
1022:Drivers/LCD_FMC/src/tftLCD.c ****         LCD_WR_DATA(0x00);
1023:Drivers/LCD_FMC/src/tftLCD.c ****         LCD_WR_DATA(0xFF);
1024:Drivers/LCD_FMC/src/tftLCD.c ****         LCD_WR_DATA(0x00);
1025:Drivers/LCD_FMC/src/tftLCD.c **** 
1026:Drivers/LCD_FMC/src/tftLCD.c ****         LCD_WR_REG(0xC2);
1027:Drivers/LCD_FMC/src/tftLCD.c ****         LCD_WR_DATA(0x0A);
1028:Drivers/LCD_FMC/src/tftLCD.c ****         LCD_WR_DATA(0x00);
1029:Drivers/LCD_FMC/src/tftLCD.c ****         LCD_WR_DATA(0x04);
1030:Drivers/LCD_FMC/src/tftLCD.c ****         LCD_WR_DATA(0x00);
1031:Drivers/LCD_FMC/src/tftLCD.c **** 
1032:Drivers/LCD_FMC/src/tftLCD.c ****         LCD_WR_REG(0xC3);
1033:Drivers/LCD_FMC/src/tftLCD.c ****         LCD_WR_DATA(0x3C);
1034:Drivers/LCD_FMC/src/tftLCD.c ****         LCD_WR_DATA(0x00);
1035:Drivers/LCD_FMC/src/tftLCD.c ****         LCD_WR_DATA(0x3A);
1036:Drivers/LCD_FMC/src/tftLCD.c ****         LCD_WR_DATA(0x00);
1037:Drivers/LCD_FMC/src/tftLCD.c ****         LCD_WR_DATA(0x39);
1038:Drivers/LCD_FMC/src/tftLCD.c ****         LCD_WR_DATA(0x00);
1039:Drivers/LCD_FMC/src/tftLCD.c ****         LCD_WR_DATA(0x37);
1040:Drivers/LCD_FMC/src/tftLCD.c ****         LCD_WR_DATA(0x00);
1041:Drivers/LCD_FMC/src/tftLCD.c ****         LCD_WR_DATA(0x3C);
1042:Drivers/LCD_FMC/src/tftLCD.c ****         LCD_WR_DATA(0x00);
1043:Drivers/LCD_FMC/src/tftLCD.c ****         LCD_WR_DATA(0x36);
1044:Drivers/LCD_FMC/src/tftLCD.c ****         LCD_WR_DATA(0x00);
1045:Drivers/LCD_FMC/src/tftLCD.c ****         LCD_WR_DATA(0x32);
1046:Drivers/LCD_FMC/src/tftLCD.c ****         LCD_WR_DATA(0x00);
1047:Drivers/LCD_FMC/src/tftLCD.c ****         LCD_WR_DATA(0x2F);
1048:Drivers/LCD_FMC/src/tftLCD.c ****         LCD_WR_DATA(0x00);
1049:Drivers/LCD_FMC/src/tftLCD.c ****         LCD_WR_DATA(0x2C);
1050:Drivers/LCD_FMC/src/tftLCD.c ****         LCD_WR_DATA(0x00);
1051:Drivers/LCD_FMC/src/tftLCD.c ****         LCD_WR_DATA(0x29);
1052:Drivers/LCD_FMC/src/tftLCD.c ****         LCD_WR_DATA(0x00);
1053:Drivers/LCD_FMC/src/tftLCD.c ****         LCD_WR_DATA(0x26);
1054:Drivers/LCD_FMC/src/tftLCD.c ****         LCD_WR_DATA(0x00);
1055:Drivers/LCD_FMC/src/tftLCD.c ****         LCD_WR_DATA(0x24);
1056:Drivers/LCD_FMC/src/tftLCD.c ****         LCD_WR_DATA(0x00);
1057:Drivers/LCD_FMC/src/tftLCD.c ****         LCD_WR_DATA(0x24);
ARM GAS  C:\usertemp\ccUDQ5mr.s 			page 61


1058:Drivers/LCD_FMC/src/tftLCD.c ****         LCD_WR_DATA(0x00);
1059:Drivers/LCD_FMC/src/tftLCD.c ****         LCD_WR_DATA(0x23);
1060:Drivers/LCD_FMC/src/tftLCD.c ****         LCD_WR_DATA(0x00);
1061:Drivers/LCD_FMC/src/tftLCD.c ****         LCD_WR_DATA(0x3C);
1062:Drivers/LCD_FMC/src/tftLCD.c ****         LCD_WR_DATA(0x00);
1063:Drivers/LCD_FMC/src/tftLCD.c ****         LCD_WR_DATA(0x36);
1064:Drivers/LCD_FMC/src/tftLCD.c ****         LCD_WR_DATA(0x00);
1065:Drivers/LCD_FMC/src/tftLCD.c ****         LCD_WR_DATA(0x32);
1066:Drivers/LCD_FMC/src/tftLCD.c ****         LCD_WR_DATA(0x00);
1067:Drivers/LCD_FMC/src/tftLCD.c ****         LCD_WR_DATA(0x2F);
1068:Drivers/LCD_FMC/src/tftLCD.c ****         LCD_WR_DATA(0x00);
1069:Drivers/LCD_FMC/src/tftLCD.c ****         LCD_WR_DATA(0x2C);
1070:Drivers/LCD_FMC/src/tftLCD.c ****         LCD_WR_DATA(0x00);
1071:Drivers/LCD_FMC/src/tftLCD.c ****         LCD_WR_DATA(0x29);
1072:Drivers/LCD_FMC/src/tftLCD.c ****         LCD_WR_DATA(0x00);
1073:Drivers/LCD_FMC/src/tftLCD.c ****         LCD_WR_DATA(0x26);
1074:Drivers/LCD_FMC/src/tftLCD.c ****         LCD_WR_DATA(0x00);
1075:Drivers/LCD_FMC/src/tftLCD.c ****         LCD_WR_DATA(0x24);
1076:Drivers/LCD_FMC/src/tftLCD.c ****         LCD_WR_DATA(0x00);
1077:Drivers/LCD_FMC/src/tftLCD.c ****         LCD_WR_DATA(0x24);
1078:Drivers/LCD_FMC/src/tftLCD.c ****         LCD_WR_DATA(0x00);
1079:Drivers/LCD_FMC/src/tftLCD.c ****         LCD_WR_DATA(0x23);
1080:Drivers/LCD_FMC/src/tftLCD.c ****         LCD_WR_DATA(0x00);
1081:Drivers/LCD_FMC/src/tftLCD.c **** 
1082:Drivers/LCD_FMC/src/tftLCD.c ****         LCD_WR_REG(0xC4);
1083:Drivers/LCD_FMC/src/tftLCD.c ****         LCD_WR_DATA(0x62);
1084:Drivers/LCD_FMC/src/tftLCD.c ****         LCD_WR_DATA(0x00);
1085:Drivers/LCD_FMC/src/tftLCD.c ****         LCD_WR_DATA(0x05);
1086:Drivers/LCD_FMC/src/tftLCD.c ****         LCD_WR_DATA(0x00);
1087:Drivers/LCD_FMC/src/tftLCD.c ****         LCD_WR_DATA(0x84);
1088:Drivers/LCD_FMC/src/tftLCD.c ****         LCD_WR_DATA(0x00);
1089:Drivers/LCD_FMC/src/tftLCD.c ****         LCD_WR_DATA(0xF0);
1090:Drivers/LCD_FMC/src/tftLCD.c ****         LCD_WR_DATA(0x00);
1091:Drivers/LCD_FMC/src/tftLCD.c ****         LCD_WR_DATA(0x18);
1092:Drivers/LCD_FMC/src/tftLCD.c ****         LCD_WR_DATA(0x00);
1093:Drivers/LCD_FMC/src/tftLCD.c ****         LCD_WR_DATA(0xA4);
1094:Drivers/LCD_FMC/src/tftLCD.c ****         LCD_WR_DATA(0x00);
1095:Drivers/LCD_FMC/src/tftLCD.c ****         LCD_WR_DATA(0x18);
1096:Drivers/LCD_FMC/src/tftLCD.c ****         LCD_WR_DATA(0x00);
1097:Drivers/LCD_FMC/src/tftLCD.c ****         LCD_WR_DATA(0x50);
1098:Drivers/LCD_FMC/src/tftLCD.c ****         LCD_WR_DATA(0x00);
1099:Drivers/LCD_FMC/src/tftLCD.c ****         LCD_WR_DATA(0x0C);
1100:Drivers/LCD_FMC/src/tftLCD.c ****         LCD_WR_DATA(0x00);
1101:Drivers/LCD_FMC/src/tftLCD.c ****         LCD_WR_DATA(0x17);
1102:Drivers/LCD_FMC/src/tftLCD.c ****         LCD_WR_DATA(0x00);
1103:Drivers/LCD_FMC/src/tftLCD.c ****         LCD_WR_DATA(0x95);
1104:Drivers/LCD_FMC/src/tftLCD.c ****         LCD_WR_DATA(0x00);
1105:Drivers/LCD_FMC/src/tftLCD.c ****         LCD_WR_DATA(0xF3);
1106:Drivers/LCD_FMC/src/tftLCD.c ****         LCD_WR_DATA(0x00);
1107:Drivers/LCD_FMC/src/tftLCD.c ****         LCD_WR_DATA(0xE6);
1108:Drivers/LCD_FMC/src/tftLCD.c ****         LCD_WR_DATA(0x00);
1109:Drivers/LCD_FMC/src/tftLCD.c **** 
1110:Drivers/LCD_FMC/src/tftLCD.c ****         LCD_WR_REG(0xC5);
1111:Drivers/LCD_FMC/src/tftLCD.c ****         LCD_WR_DATA(0x32);
1112:Drivers/LCD_FMC/src/tftLCD.c ****         LCD_WR_DATA(0x00);
1113:Drivers/LCD_FMC/src/tftLCD.c ****         LCD_WR_DATA(0x44);
1114:Drivers/LCD_FMC/src/tftLCD.c ****         LCD_WR_DATA(0x00);
ARM GAS  C:\usertemp\ccUDQ5mr.s 			page 62


1115:Drivers/LCD_FMC/src/tftLCD.c ****         LCD_WR_DATA(0x65);
1116:Drivers/LCD_FMC/src/tftLCD.c ****         LCD_WR_DATA(0x00);
1117:Drivers/LCD_FMC/src/tftLCD.c ****         LCD_WR_DATA(0x76);
1118:Drivers/LCD_FMC/src/tftLCD.c ****         LCD_WR_DATA(0x00);
1119:Drivers/LCD_FMC/src/tftLCD.c ****         LCD_WR_DATA(0x88);
1120:Drivers/LCD_FMC/src/tftLCD.c ****         LCD_WR_DATA(0x00);
1121:Drivers/LCD_FMC/src/tftLCD.c **** 
1122:Drivers/LCD_FMC/src/tftLCD.c ****         LCD_WR_REG(0xC6);
1123:Drivers/LCD_FMC/src/tftLCD.c ****         LCD_WR_DATA(0x20);
1124:Drivers/LCD_FMC/src/tftLCD.c ****         LCD_WR_DATA(0x00);
1125:Drivers/LCD_FMC/src/tftLCD.c ****         LCD_WR_DATA(0x17);
1126:Drivers/LCD_FMC/src/tftLCD.c ****         LCD_WR_DATA(0x00);
1127:Drivers/LCD_FMC/src/tftLCD.c ****         LCD_WR_DATA(0x01);
1128:Drivers/LCD_FMC/src/tftLCD.c ****         LCD_WR_DATA(0x00);
1129:Drivers/LCD_FMC/src/tftLCD.c **** 
1130:Drivers/LCD_FMC/src/tftLCD.c ****         LCD_WR_REG(0xC7);
1131:Drivers/LCD_FMC/src/tftLCD.c ****         LCD_WR_DATA(0x00);
1132:Drivers/LCD_FMC/src/tftLCD.c ****         LCD_WR_DATA(0x00);
1133:Drivers/LCD_FMC/src/tftLCD.c ****         LCD_WR_DATA(0x00);
1134:Drivers/LCD_FMC/src/tftLCD.c ****         LCD_WR_DATA(0x00);
1135:Drivers/LCD_FMC/src/tftLCD.c **** 
1136:Drivers/LCD_FMC/src/tftLCD.c ****         LCD_WR_REG(0xC8);
1137:Drivers/LCD_FMC/src/tftLCD.c ****         LCD_WR_DATA(0x00);
1138:Drivers/LCD_FMC/src/tftLCD.c ****         LCD_WR_DATA(0x00);
1139:Drivers/LCD_FMC/src/tftLCD.c ****         LCD_WR_DATA(0x00);
1140:Drivers/LCD_FMC/src/tftLCD.c ****         LCD_WR_DATA(0x00);
1141:Drivers/LCD_FMC/src/tftLCD.c **** 
1142:Drivers/LCD_FMC/src/tftLCD.c ****         LCD_WR_REG(0xC9);
1143:Drivers/LCD_FMC/src/tftLCD.c ****         LCD_WR_DATA(0x00);
1144:Drivers/LCD_FMC/src/tftLCD.c ****         LCD_WR_DATA(0x00);
1145:Drivers/LCD_FMC/src/tftLCD.c ****         LCD_WR_DATA(0x00);
1146:Drivers/LCD_FMC/src/tftLCD.c ****         LCD_WR_DATA(0x00);
1147:Drivers/LCD_FMC/src/tftLCD.c ****         LCD_WR_DATA(0x00);
1148:Drivers/LCD_FMC/src/tftLCD.c ****         LCD_WR_DATA(0x00);
1149:Drivers/LCD_FMC/src/tftLCD.c ****         LCD_WR_DATA(0x00);
1150:Drivers/LCD_FMC/src/tftLCD.c ****         LCD_WR_DATA(0x00);
1151:Drivers/LCD_FMC/src/tftLCD.c ****         LCD_WR_DATA(0x00);
1152:Drivers/LCD_FMC/src/tftLCD.c ****         LCD_WR_DATA(0x00);
1153:Drivers/LCD_FMC/src/tftLCD.c ****         LCD_WR_DATA(0x00);
1154:Drivers/LCD_FMC/src/tftLCD.c ****         LCD_WR_DATA(0x00);
1155:Drivers/LCD_FMC/src/tftLCD.c ****         LCD_WR_DATA(0x00);
1156:Drivers/LCD_FMC/src/tftLCD.c ****         LCD_WR_DATA(0x00);
1157:Drivers/LCD_FMC/src/tftLCD.c ****         LCD_WR_DATA(0x00);
1158:Drivers/LCD_FMC/src/tftLCD.c ****         LCD_WR_DATA(0x00);
1159:Drivers/LCD_FMC/src/tftLCD.c **** 
1160:Drivers/LCD_FMC/src/tftLCD.c ****         LCD_WR_REG(0xE0);
1161:Drivers/LCD_FMC/src/tftLCD.c ****         LCD_WR_DATA(0x16);
1162:Drivers/LCD_FMC/src/tftLCD.c ****         LCD_WR_DATA(0x00);
1163:Drivers/LCD_FMC/src/tftLCD.c ****         LCD_WR_DATA(0x1C);
1164:Drivers/LCD_FMC/src/tftLCD.c ****         LCD_WR_DATA(0x00);
1165:Drivers/LCD_FMC/src/tftLCD.c ****         LCD_WR_DATA(0x21);
1166:Drivers/LCD_FMC/src/tftLCD.c ****         LCD_WR_DATA(0x00);
1167:Drivers/LCD_FMC/src/tftLCD.c ****         LCD_WR_DATA(0x36);
1168:Drivers/LCD_FMC/src/tftLCD.c ****         LCD_WR_DATA(0x00);
1169:Drivers/LCD_FMC/src/tftLCD.c ****         LCD_WR_DATA(0x46);
1170:Drivers/LCD_FMC/src/tftLCD.c ****         LCD_WR_DATA(0x00);
1171:Drivers/LCD_FMC/src/tftLCD.c ****         LCD_WR_DATA(0x52);
ARM GAS  C:\usertemp\ccUDQ5mr.s 			page 63


1172:Drivers/LCD_FMC/src/tftLCD.c ****         LCD_WR_DATA(0x00);
1173:Drivers/LCD_FMC/src/tftLCD.c ****         LCD_WR_DATA(0x64);
1174:Drivers/LCD_FMC/src/tftLCD.c ****         LCD_WR_DATA(0x00);
1175:Drivers/LCD_FMC/src/tftLCD.c ****         LCD_WR_DATA(0x7A);
1176:Drivers/LCD_FMC/src/tftLCD.c ****         LCD_WR_DATA(0x00);
1177:Drivers/LCD_FMC/src/tftLCD.c ****         LCD_WR_DATA(0x8B);
1178:Drivers/LCD_FMC/src/tftLCD.c ****         LCD_WR_DATA(0x00);
1179:Drivers/LCD_FMC/src/tftLCD.c ****         LCD_WR_DATA(0x99);
1180:Drivers/LCD_FMC/src/tftLCD.c ****         LCD_WR_DATA(0x00);
1181:Drivers/LCD_FMC/src/tftLCD.c ****         LCD_WR_DATA(0xA8);
1182:Drivers/LCD_FMC/src/tftLCD.c ****         LCD_WR_DATA(0x00);
1183:Drivers/LCD_FMC/src/tftLCD.c ****         LCD_WR_DATA(0xB9);
1184:Drivers/LCD_FMC/src/tftLCD.c ****         LCD_WR_DATA(0x00);
1185:Drivers/LCD_FMC/src/tftLCD.c ****         LCD_WR_DATA(0xC4);
1186:Drivers/LCD_FMC/src/tftLCD.c ****         LCD_WR_DATA(0x00);
1187:Drivers/LCD_FMC/src/tftLCD.c ****         LCD_WR_DATA(0xCA);
1188:Drivers/LCD_FMC/src/tftLCD.c ****         LCD_WR_DATA(0x00);
1189:Drivers/LCD_FMC/src/tftLCD.c ****         LCD_WR_DATA(0xD2);
1190:Drivers/LCD_FMC/src/tftLCD.c ****         LCD_WR_DATA(0x00);
1191:Drivers/LCD_FMC/src/tftLCD.c ****         LCD_WR_DATA(0xD9);
1192:Drivers/LCD_FMC/src/tftLCD.c ****         LCD_WR_DATA(0x00);
1193:Drivers/LCD_FMC/src/tftLCD.c ****         LCD_WR_DATA(0xE0);
1194:Drivers/LCD_FMC/src/tftLCD.c ****         LCD_WR_DATA(0x00);
1195:Drivers/LCD_FMC/src/tftLCD.c ****         LCD_WR_DATA(0xF3);
1196:Drivers/LCD_FMC/src/tftLCD.c ****         LCD_WR_DATA(0x00);
1197:Drivers/LCD_FMC/src/tftLCD.c **** 
1198:Drivers/LCD_FMC/src/tftLCD.c ****         LCD_WR_REG(0xE1);
1199:Drivers/LCD_FMC/src/tftLCD.c ****         LCD_WR_DATA(0x16);
1200:Drivers/LCD_FMC/src/tftLCD.c ****         LCD_WR_DATA(0x00);
1201:Drivers/LCD_FMC/src/tftLCD.c ****         LCD_WR_DATA(0x1C);
1202:Drivers/LCD_FMC/src/tftLCD.c ****         LCD_WR_DATA(0x00);
1203:Drivers/LCD_FMC/src/tftLCD.c ****         LCD_WR_DATA(0x22);
1204:Drivers/LCD_FMC/src/tftLCD.c ****         LCD_WR_DATA(0x00);
1205:Drivers/LCD_FMC/src/tftLCD.c ****         LCD_WR_DATA(0x36);
1206:Drivers/LCD_FMC/src/tftLCD.c ****         LCD_WR_DATA(0x00);
1207:Drivers/LCD_FMC/src/tftLCD.c ****         LCD_WR_DATA(0x45);
1208:Drivers/LCD_FMC/src/tftLCD.c ****         LCD_WR_DATA(0x00);
1209:Drivers/LCD_FMC/src/tftLCD.c ****         LCD_WR_DATA(0x52);
1210:Drivers/LCD_FMC/src/tftLCD.c ****         LCD_WR_DATA(0x00);
1211:Drivers/LCD_FMC/src/tftLCD.c ****         LCD_WR_DATA(0x64);
1212:Drivers/LCD_FMC/src/tftLCD.c ****         LCD_WR_DATA(0x00);
1213:Drivers/LCD_FMC/src/tftLCD.c ****         LCD_WR_DATA(0x7A);
1214:Drivers/LCD_FMC/src/tftLCD.c ****         LCD_WR_DATA(0x00);
1215:Drivers/LCD_FMC/src/tftLCD.c ****         LCD_WR_DATA(0x8B);
1216:Drivers/LCD_FMC/src/tftLCD.c ****         LCD_WR_DATA(0x00);
1217:Drivers/LCD_FMC/src/tftLCD.c ****         LCD_WR_DATA(0x99);
1218:Drivers/LCD_FMC/src/tftLCD.c ****         LCD_WR_DATA(0x00);
1219:Drivers/LCD_FMC/src/tftLCD.c ****         LCD_WR_DATA(0xA8);
1220:Drivers/LCD_FMC/src/tftLCD.c ****         LCD_WR_DATA(0x00);
1221:Drivers/LCD_FMC/src/tftLCD.c ****         LCD_WR_DATA(0xB9);
1222:Drivers/LCD_FMC/src/tftLCD.c ****         LCD_WR_DATA(0x00);
1223:Drivers/LCD_FMC/src/tftLCD.c ****         LCD_WR_DATA(0xC4);
1224:Drivers/LCD_FMC/src/tftLCD.c ****         LCD_WR_DATA(0x00);
1225:Drivers/LCD_FMC/src/tftLCD.c ****         LCD_WR_DATA(0xCA);
1226:Drivers/LCD_FMC/src/tftLCD.c ****         LCD_WR_DATA(0x00);
1227:Drivers/LCD_FMC/src/tftLCD.c ****         LCD_WR_DATA(0xD2);
1228:Drivers/LCD_FMC/src/tftLCD.c ****         LCD_WR_DATA(0x00);
ARM GAS  C:\usertemp\ccUDQ5mr.s 			page 64


1229:Drivers/LCD_FMC/src/tftLCD.c ****         LCD_WR_DATA(0xD8);
1230:Drivers/LCD_FMC/src/tftLCD.c ****         LCD_WR_DATA(0x00);
1231:Drivers/LCD_FMC/src/tftLCD.c ****         LCD_WR_DATA(0xE0);
1232:Drivers/LCD_FMC/src/tftLCD.c ****         LCD_WR_DATA(0x00);
1233:Drivers/LCD_FMC/src/tftLCD.c ****         LCD_WR_DATA(0xF3);
1234:Drivers/LCD_FMC/src/tftLCD.c ****         LCD_WR_DATA(0x00);
1235:Drivers/LCD_FMC/src/tftLCD.c **** 
1236:Drivers/LCD_FMC/src/tftLCD.c ****         LCD_WR_REG(0xE2);
1237:Drivers/LCD_FMC/src/tftLCD.c ****         LCD_WR_DATA(0x05);
1238:Drivers/LCD_FMC/src/tftLCD.c ****         LCD_WR_DATA(0x00);
1239:Drivers/LCD_FMC/src/tftLCD.c ****         LCD_WR_DATA(0x0B);
1240:Drivers/LCD_FMC/src/tftLCD.c ****         LCD_WR_DATA(0x00);
1241:Drivers/LCD_FMC/src/tftLCD.c ****         LCD_WR_DATA(0x1B);
1242:Drivers/LCD_FMC/src/tftLCD.c ****         LCD_WR_DATA(0x00);
1243:Drivers/LCD_FMC/src/tftLCD.c ****         LCD_WR_DATA(0x34);
1244:Drivers/LCD_FMC/src/tftLCD.c ****         LCD_WR_DATA(0x00);
1245:Drivers/LCD_FMC/src/tftLCD.c ****         LCD_WR_DATA(0x44);
1246:Drivers/LCD_FMC/src/tftLCD.c ****         LCD_WR_DATA(0x00);
1247:Drivers/LCD_FMC/src/tftLCD.c ****         LCD_WR_DATA(0x4F);
1248:Drivers/LCD_FMC/src/tftLCD.c ****         LCD_WR_DATA(0x00);
1249:Drivers/LCD_FMC/src/tftLCD.c ****         LCD_WR_DATA(0x61);
1250:Drivers/LCD_FMC/src/tftLCD.c ****         LCD_WR_DATA(0x00);
1251:Drivers/LCD_FMC/src/tftLCD.c ****         LCD_WR_DATA(0x79);
1252:Drivers/LCD_FMC/src/tftLCD.c ****         LCD_WR_DATA(0x00);
1253:Drivers/LCD_FMC/src/tftLCD.c ****         LCD_WR_DATA(0x88);
1254:Drivers/LCD_FMC/src/tftLCD.c ****         LCD_WR_DATA(0x00);
1255:Drivers/LCD_FMC/src/tftLCD.c ****         LCD_WR_DATA(0x97);
1256:Drivers/LCD_FMC/src/tftLCD.c ****         LCD_WR_DATA(0x00);
1257:Drivers/LCD_FMC/src/tftLCD.c ****         LCD_WR_DATA(0xA6);
1258:Drivers/LCD_FMC/src/tftLCD.c ****         LCD_WR_DATA(0x00);
1259:Drivers/LCD_FMC/src/tftLCD.c ****         LCD_WR_DATA(0xB7);
1260:Drivers/LCD_FMC/src/tftLCD.c ****         LCD_WR_DATA(0x00);
1261:Drivers/LCD_FMC/src/tftLCD.c ****         LCD_WR_DATA(0xC2);
1262:Drivers/LCD_FMC/src/tftLCD.c ****         LCD_WR_DATA(0x00);
1263:Drivers/LCD_FMC/src/tftLCD.c ****         LCD_WR_DATA(0xC7);
1264:Drivers/LCD_FMC/src/tftLCD.c ****         LCD_WR_DATA(0x00);
1265:Drivers/LCD_FMC/src/tftLCD.c ****         LCD_WR_DATA(0xD1);
1266:Drivers/LCD_FMC/src/tftLCD.c ****         LCD_WR_DATA(0x00);
1267:Drivers/LCD_FMC/src/tftLCD.c ****         LCD_WR_DATA(0xD6);
1268:Drivers/LCD_FMC/src/tftLCD.c ****         LCD_WR_DATA(0x00);
1269:Drivers/LCD_FMC/src/tftLCD.c ****         LCD_WR_DATA(0xDD);
1270:Drivers/LCD_FMC/src/tftLCD.c ****         LCD_WR_DATA(0x00);
1271:Drivers/LCD_FMC/src/tftLCD.c ****         LCD_WR_DATA(0xF3);
1272:Drivers/LCD_FMC/src/tftLCD.c ****         LCD_WR_DATA(0x00);
1273:Drivers/LCD_FMC/src/tftLCD.c ****         LCD_WR_REG(0xE3);
1274:Drivers/LCD_FMC/src/tftLCD.c ****         LCD_WR_DATA(0x05);
1275:Drivers/LCD_FMC/src/tftLCD.c ****         LCD_WR_DATA(0x00);
1276:Drivers/LCD_FMC/src/tftLCD.c ****         LCD_WR_DATA(0xA);
1277:Drivers/LCD_FMC/src/tftLCD.c ****         LCD_WR_DATA(0x00);
1278:Drivers/LCD_FMC/src/tftLCD.c ****         LCD_WR_DATA(0x1C);
1279:Drivers/LCD_FMC/src/tftLCD.c ****         LCD_WR_DATA(0x00);
1280:Drivers/LCD_FMC/src/tftLCD.c ****         LCD_WR_DATA(0x33);
1281:Drivers/LCD_FMC/src/tftLCD.c ****         LCD_WR_DATA(0x00);
1282:Drivers/LCD_FMC/src/tftLCD.c ****         LCD_WR_DATA(0x44);
1283:Drivers/LCD_FMC/src/tftLCD.c ****         LCD_WR_DATA(0x00);
1284:Drivers/LCD_FMC/src/tftLCD.c ****         LCD_WR_DATA(0x50);
1285:Drivers/LCD_FMC/src/tftLCD.c ****         LCD_WR_DATA(0x00);
ARM GAS  C:\usertemp\ccUDQ5mr.s 			page 65


1286:Drivers/LCD_FMC/src/tftLCD.c ****         LCD_WR_DATA(0x62);
1287:Drivers/LCD_FMC/src/tftLCD.c ****         LCD_WR_DATA(0x00);
1288:Drivers/LCD_FMC/src/tftLCD.c ****         LCD_WR_DATA(0x78);
1289:Drivers/LCD_FMC/src/tftLCD.c ****         LCD_WR_DATA(0x00);
1290:Drivers/LCD_FMC/src/tftLCD.c ****         LCD_WR_DATA(0x88);
1291:Drivers/LCD_FMC/src/tftLCD.c ****         LCD_WR_DATA(0x00);
1292:Drivers/LCD_FMC/src/tftLCD.c ****         LCD_WR_DATA(0x97);
1293:Drivers/LCD_FMC/src/tftLCD.c ****         LCD_WR_DATA(0x00);
1294:Drivers/LCD_FMC/src/tftLCD.c ****         LCD_WR_DATA(0xA6);
1295:Drivers/LCD_FMC/src/tftLCD.c ****         LCD_WR_DATA(0x00);
1296:Drivers/LCD_FMC/src/tftLCD.c ****         LCD_WR_DATA(0xB7);
1297:Drivers/LCD_FMC/src/tftLCD.c ****         LCD_WR_DATA(0x00);
1298:Drivers/LCD_FMC/src/tftLCD.c ****         LCD_WR_DATA(0xC2);
1299:Drivers/LCD_FMC/src/tftLCD.c ****         LCD_WR_DATA(0x00);
1300:Drivers/LCD_FMC/src/tftLCD.c ****         LCD_WR_DATA(0xC7);
1301:Drivers/LCD_FMC/src/tftLCD.c ****         LCD_WR_DATA(0x00);
1302:Drivers/LCD_FMC/src/tftLCD.c ****         LCD_WR_DATA(0xD1);
1303:Drivers/LCD_FMC/src/tftLCD.c ****         LCD_WR_DATA(0x00);
1304:Drivers/LCD_FMC/src/tftLCD.c ****         LCD_WR_DATA(0xD5);
1305:Drivers/LCD_FMC/src/tftLCD.c ****         LCD_WR_DATA(0x00);
1306:Drivers/LCD_FMC/src/tftLCD.c ****         LCD_WR_DATA(0xDD);
1307:Drivers/LCD_FMC/src/tftLCD.c ****         LCD_WR_DATA(0x00);
1308:Drivers/LCD_FMC/src/tftLCD.c ****         LCD_WR_DATA(0xF3);
1309:Drivers/LCD_FMC/src/tftLCD.c ****         LCD_WR_DATA(0x00);
1310:Drivers/LCD_FMC/src/tftLCD.c **** 
1311:Drivers/LCD_FMC/src/tftLCD.c ****         LCD_WR_REG(0xE4);
1312:Drivers/LCD_FMC/src/tftLCD.c ****         LCD_WR_DATA(0x01);
1313:Drivers/LCD_FMC/src/tftLCD.c ****         LCD_WR_DATA(0x00);
1314:Drivers/LCD_FMC/src/tftLCD.c ****         LCD_WR_DATA(0x01);
1315:Drivers/LCD_FMC/src/tftLCD.c ****         LCD_WR_DATA(0x00);
1316:Drivers/LCD_FMC/src/tftLCD.c ****         LCD_WR_DATA(0x02);
1317:Drivers/LCD_FMC/src/tftLCD.c ****         LCD_WR_DATA(0x00);
1318:Drivers/LCD_FMC/src/tftLCD.c ****         LCD_WR_DATA(0x2A);
1319:Drivers/LCD_FMC/src/tftLCD.c ****         LCD_WR_DATA(0x00);
1320:Drivers/LCD_FMC/src/tftLCD.c ****         LCD_WR_DATA(0x3C);
1321:Drivers/LCD_FMC/src/tftLCD.c ****         LCD_WR_DATA(0x00);
1322:Drivers/LCD_FMC/src/tftLCD.c ****         LCD_WR_DATA(0x4B);
1323:Drivers/LCD_FMC/src/tftLCD.c ****         LCD_WR_DATA(0x00);
1324:Drivers/LCD_FMC/src/tftLCD.c ****         LCD_WR_DATA(0x5D);
1325:Drivers/LCD_FMC/src/tftLCD.c ****         LCD_WR_DATA(0x00);
1326:Drivers/LCD_FMC/src/tftLCD.c ****         LCD_WR_DATA(0x74);
1327:Drivers/LCD_FMC/src/tftLCD.c ****         LCD_WR_DATA(0x00);
1328:Drivers/LCD_FMC/src/tftLCD.c ****         LCD_WR_DATA(0x84);
1329:Drivers/LCD_FMC/src/tftLCD.c ****         LCD_WR_DATA(0x00);
1330:Drivers/LCD_FMC/src/tftLCD.c ****         LCD_WR_DATA(0x93);
1331:Drivers/LCD_FMC/src/tftLCD.c ****         LCD_WR_DATA(0x00);
1332:Drivers/LCD_FMC/src/tftLCD.c ****         LCD_WR_DATA(0xA2);
1333:Drivers/LCD_FMC/src/tftLCD.c ****         LCD_WR_DATA(0x00);
1334:Drivers/LCD_FMC/src/tftLCD.c ****         LCD_WR_DATA(0xB3);
1335:Drivers/LCD_FMC/src/tftLCD.c ****         LCD_WR_DATA(0x00);
1336:Drivers/LCD_FMC/src/tftLCD.c ****         LCD_WR_DATA(0xBE);
1337:Drivers/LCD_FMC/src/tftLCD.c ****         LCD_WR_DATA(0x00);
1338:Drivers/LCD_FMC/src/tftLCD.c ****         LCD_WR_DATA(0xC4);
1339:Drivers/LCD_FMC/src/tftLCD.c ****         LCD_WR_DATA(0x00);
1340:Drivers/LCD_FMC/src/tftLCD.c ****         LCD_WR_DATA(0xCD);
1341:Drivers/LCD_FMC/src/tftLCD.c ****         LCD_WR_DATA(0x00);
1342:Drivers/LCD_FMC/src/tftLCD.c ****         LCD_WR_DATA(0xD3);
ARM GAS  C:\usertemp\ccUDQ5mr.s 			page 66


1343:Drivers/LCD_FMC/src/tftLCD.c ****         LCD_WR_DATA(0x00);
1344:Drivers/LCD_FMC/src/tftLCD.c ****         LCD_WR_DATA(0xDD);
1345:Drivers/LCD_FMC/src/tftLCD.c ****         LCD_WR_DATA(0x00);
1346:Drivers/LCD_FMC/src/tftLCD.c ****         LCD_WR_DATA(0xF3);
1347:Drivers/LCD_FMC/src/tftLCD.c ****         LCD_WR_DATA(0x00);
1348:Drivers/LCD_FMC/src/tftLCD.c ****         LCD_WR_REG(0xE5);
1349:Drivers/LCD_FMC/src/tftLCD.c ****         LCD_WR_DATA(0x00);
1350:Drivers/LCD_FMC/src/tftLCD.c ****         LCD_WR_DATA(0x00);
1351:Drivers/LCD_FMC/src/tftLCD.c ****         LCD_WR_DATA(0x00);
1352:Drivers/LCD_FMC/src/tftLCD.c ****         LCD_WR_DATA(0x00);
1353:Drivers/LCD_FMC/src/tftLCD.c ****         LCD_WR_DATA(0x02);
1354:Drivers/LCD_FMC/src/tftLCD.c ****         LCD_WR_DATA(0x00);
1355:Drivers/LCD_FMC/src/tftLCD.c ****         LCD_WR_DATA(0x29);
1356:Drivers/LCD_FMC/src/tftLCD.c ****         LCD_WR_DATA(0x00);
1357:Drivers/LCD_FMC/src/tftLCD.c ****         LCD_WR_DATA(0x3C);
1358:Drivers/LCD_FMC/src/tftLCD.c ****         LCD_WR_DATA(0x00);
1359:Drivers/LCD_FMC/src/tftLCD.c ****         LCD_WR_DATA(0x4B);
1360:Drivers/LCD_FMC/src/tftLCD.c ****         LCD_WR_DATA(0x00);
1361:Drivers/LCD_FMC/src/tftLCD.c ****         LCD_WR_DATA(0x5D);
1362:Drivers/LCD_FMC/src/tftLCD.c ****         LCD_WR_DATA(0x00);
1363:Drivers/LCD_FMC/src/tftLCD.c ****         LCD_WR_DATA(0x74);
1364:Drivers/LCD_FMC/src/tftLCD.c ****         LCD_WR_DATA(0x00);
1365:Drivers/LCD_FMC/src/tftLCD.c ****         LCD_WR_DATA(0x84);
1366:Drivers/LCD_FMC/src/tftLCD.c ****         LCD_WR_DATA(0x00);
1367:Drivers/LCD_FMC/src/tftLCD.c ****         LCD_WR_DATA(0x93);
1368:Drivers/LCD_FMC/src/tftLCD.c ****         LCD_WR_DATA(0x00);
1369:Drivers/LCD_FMC/src/tftLCD.c ****         LCD_WR_DATA(0xA2);
1370:Drivers/LCD_FMC/src/tftLCD.c ****         LCD_WR_DATA(0x00);
1371:Drivers/LCD_FMC/src/tftLCD.c ****         LCD_WR_DATA(0xB3);
1372:Drivers/LCD_FMC/src/tftLCD.c ****         LCD_WR_DATA(0x00);
1373:Drivers/LCD_FMC/src/tftLCD.c ****         LCD_WR_DATA(0xBE);
1374:Drivers/LCD_FMC/src/tftLCD.c ****         LCD_WR_DATA(0x00);
1375:Drivers/LCD_FMC/src/tftLCD.c ****         LCD_WR_DATA(0xC4);
1376:Drivers/LCD_FMC/src/tftLCD.c ****         LCD_WR_DATA(0x00);
1377:Drivers/LCD_FMC/src/tftLCD.c ****         LCD_WR_DATA(0xCD);
1378:Drivers/LCD_FMC/src/tftLCD.c ****         LCD_WR_DATA(0x00);
1379:Drivers/LCD_FMC/src/tftLCD.c ****         LCD_WR_DATA(0xD3);
1380:Drivers/LCD_FMC/src/tftLCD.c ****         LCD_WR_DATA(0x00);
1381:Drivers/LCD_FMC/src/tftLCD.c ****         LCD_WR_DATA(0xDC);
1382:Drivers/LCD_FMC/src/tftLCD.c ****         LCD_WR_DATA(0x00);
1383:Drivers/LCD_FMC/src/tftLCD.c ****         LCD_WR_DATA(0xF3);
1384:Drivers/LCD_FMC/src/tftLCD.c ****         LCD_WR_DATA(0x00);
1385:Drivers/LCD_FMC/src/tftLCD.c **** 
1386:Drivers/LCD_FMC/src/tftLCD.c ****         LCD_WR_REG(0xE6);
1387:Drivers/LCD_FMC/src/tftLCD.c ****         LCD_WR_DATA(0x11);
1388:Drivers/LCD_FMC/src/tftLCD.c ****         LCD_WR_DATA(0x00);
1389:Drivers/LCD_FMC/src/tftLCD.c ****         LCD_WR_DATA(0x34);
1390:Drivers/LCD_FMC/src/tftLCD.c ****         LCD_WR_DATA(0x00);
1391:Drivers/LCD_FMC/src/tftLCD.c ****         LCD_WR_DATA(0x56);
1392:Drivers/LCD_FMC/src/tftLCD.c ****         LCD_WR_DATA(0x00);
1393:Drivers/LCD_FMC/src/tftLCD.c ****         LCD_WR_DATA(0x76);
1394:Drivers/LCD_FMC/src/tftLCD.c ****         LCD_WR_DATA(0x00);
1395:Drivers/LCD_FMC/src/tftLCD.c ****         LCD_WR_DATA(0x77);
1396:Drivers/LCD_FMC/src/tftLCD.c ****         LCD_WR_DATA(0x00);
1397:Drivers/LCD_FMC/src/tftLCD.c ****         LCD_WR_DATA(0x66);
1398:Drivers/LCD_FMC/src/tftLCD.c ****         LCD_WR_DATA(0x00);
1399:Drivers/LCD_FMC/src/tftLCD.c ****         LCD_WR_DATA(0x88);
ARM GAS  C:\usertemp\ccUDQ5mr.s 			page 67


1400:Drivers/LCD_FMC/src/tftLCD.c ****         LCD_WR_DATA(0x00);
1401:Drivers/LCD_FMC/src/tftLCD.c ****         LCD_WR_DATA(0x99);
1402:Drivers/LCD_FMC/src/tftLCD.c ****         LCD_WR_DATA(0x00);
1403:Drivers/LCD_FMC/src/tftLCD.c ****         LCD_WR_DATA(0xBB);
1404:Drivers/LCD_FMC/src/tftLCD.c ****         LCD_WR_DATA(0x00);
1405:Drivers/LCD_FMC/src/tftLCD.c ****         LCD_WR_DATA(0x99);
1406:Drivers/LCD_FMC/src/tftLCD.c ****         LCD_WR_DATA(0x00);
1407:Drivers/LCD_FMC/src/tftLCD.c ****         LCD_WR_DATA(0x66);
1408:Drivers/LCD_FMC/src/tftLCD.c ****         LCD_WR_DATA(0x00);
1409:Drivers/LCD_FMC/src/tftLCD.c ****         LCD_WR_DATA(0x55);
1410:Drivers/LCD_FMC/src/tftLCD.c ****         LCD_WR_DATA(0x00);
1411:Drivers/LCD_FMC/src/tftLCD.c ****         LCD_WR_DATA(0x55);
1412:Drivers/LCD_FMC/src/tftLCD.c ****         LCD_WR_DATA(0x00);
1413:Drivers/LCD_FMC/src/tftLCD.c ****         LCD_WR_DATA(0x45);
1414:Drivers/LCD_FMC/src/tftLCD.c ****         LCD_WR_DATA(0x00);
1415:Drivers/LCD_FMC/src/tftLCD.c ****         LCD_WR_DATA(0x43);
1416:Drivers/LCD_FMC/src/tftLCD.c ****         LCD_WR_DATA(0x00);
1417:Drivers/LCD_FMC/src/tftLCD.c ****         LCD_WR_DATA(0x44);
1418:Drivers/LCD_FMC/src/tftLCD.c ****         LCD_WR_DATA(0x00);
1419:Drivers/LCD_FMC/src/tftLCD.c **** 
1420:Drivers/LCD_FMC/src/tftLCD.c ****         LCD_WR_REG(0xE7);
1421:Drivers/LCD_FMC/src/tftLCD.c ****         LCD_WR_DATA(0x32);
1422:Drivers/LCD_FMC/src/tftLCD.c ****         LCD_WR_DATA(0x00);
1423:Drivers/LCD_FMC/src/tftLCD.c ****         LCD_WR_DATA(0x55);
1424:Drivers/LCD_FMC/src/tftLCD.c ****         LCD_WR_DATA(0x00);
1425:Drivers/LCD_FMC/src/tftLCD.c ****         LCD_WR_DATA(0x76);
1426:Drivers/LCD_FMC/src/tftLCD.c ****         LCD_WR_DATA(0x00);
1427:Drivers/LCD_FMC/src/tftLCD.c ****         LCD_WR_DATA(0x66);
1428:Drivers/LCD_FMC/src/tftLCD.c ****         LCD_WR_DATA(0x00);
1429:Drivers/LCD_FMC/src/tftLCD.c ****         LCD_WR_DATA(0x67);
1430:Drivers/LCD_FMC/src/tftLCD.c ****         LCD_WR_DATA(0x00);
1431:Drivers/LCD_FMC/src/tftLCD.c ****         LCD_WR_DATA(0x67);
1432:Drivers/LCD_FMC/src/tftLCD.c ****         LCD_WR_DATA(0x00);
1433:Drivers/LCD_FMC/src/tftLCD.c ****         LCD_WR_DATA(0x87);
1434:Drivers/LCD_FMC/src/tftLCD.c ****         LCD_WR_DATA(0x00);
1435:Drivers/LCD_FMC/src/tftLCD.c ****         LCD_WR_DATA(0x99);
1436:Drivers/LCD_FMC/src/tftLCD.c ****         LCD_WR_DATA(0x00);
1437:Drivers/LCD_FMC/src/tftLCD.c ****         LCD_WR_DATA(0xBB);
1438:Drivers/LCD_FMC/src/tftLCD.c ****         LCD_WR_DATA(0x00);
1439:Drivers/LCD_FMC/src/tftLCD.c ****         LCD_WR_DATA(0x99);
1440:Drivers/LCD_FMC/src/tftLCD.c ****         LCD_WR_DATA(0x00);
1441:Drivers/LCD_FMC/src/tftLCD.c ****         LCD_WR_DATA(0x77);
1442:Drivers/LCD_FMC/src/tftLCD.c ****         LCD_WR_DATA(0x00);
1443:Drivers/LCD_FMC/src/tftLCD.c ****         LCD_WR_DATA(0x44);
1444:Drivers/LCD_FMC/src/tftLCD.c ****         LCD_WR_DATA(0x00);
1445:Drivers/LCD_FMC/src/tftLCD.c ****         LCD_WR_DATA(0x56);
1446:Drivers/LCD_FMC/src/tftLCD.c ****         LCD_WR_DATA(0x00);
1447:Drivers/LCD_FMC/src/tftLCD.c ****         LCD_WR_DATA(0x23);
1448:Drivers/LCD_FMC/src/tftLCD.c ****         LCD_WR_DATA(0x00);
1449:Drivers/LCD_FMC/src/tftLCD.c ****         LCD_WR_DATA(0x33);
1450:Drivers/LCD_FMC/src/tftLCD.c ****         LCD_WR_DATA(0x00);
1451:Drivers/LCD_FMC/src/tftLCD.c ****         LCD_WR_DATA(0x45);
1452:Drivers/LCD_FMC/src/tftLCD.c ****         LCD_WR_DATA(0x00);
1453:Drivers/LCD_FMC/src/tftLCD.c **** 
1454:Drivers/LCD_FMC/src/tftLCD.c ****         LCD_WR_REG(0xE8);
1455:Drivers/LCD_FMC/src/tftLCD.c ****         LCD_WR_DATA(0x00);
1456:Drivers/LCD_FMC/src/tftLCD.c ****         LCD_WR_DATA(0x00);
ARM GAS  C:\usertemp\ccUDQ5mr.s 			page 68


1457:Drivers/LCD_FMC/src/tftLCD.c ****         LCD_WR_DATA(0x99);
1458:Drivers/LCD_FMC/src/tftLCD.c ****         LCD_WR_DATA(0x00);
1459:Drivers/LCD_FMC/src/tftLCD.c ****         LCD_WR_DATA(0x87);
1460:Drivers/LCD_FMC/src/tftLCD.c ****         LCD_WR_DATA(0x00);
1461:Drivers/LCD_FMC/src/tftLCD.c ****         LCD_WR_DATA(0x88);
1462:Drivers/LCD_FMC/src/tftLCD.c ****         LCD_WR_DATA(0x00);
1463:Drivers/LCD_FMC/src/tftLCD.c ****         LCD_WR_DATA(0x77);
1464:Drivers/LCD_FMC/src/tftLCD.c ****         LCD_WR_DATA(0x00);
1465:Drivers/LCD_FMC/src/tftLCD.c ****         LCD_WR_DATA(0x66);
1466:Drivers/LCD_FMC/src/tftLCD.c ****         LCD_WR_DATA(0x00);
1467:Drivers/LCD_FMC/src/tftLCD.c ****         LCD_WR_DATA(0x88);
1468:Drivers/LCD_FMC/src/tftLCD.c ****         LCD_WR_DATA(0x00);
1469:Drivers/LCD_FMC/src/tftLCD.c ****         LCD_WR_DATA(0xAA);
1470:Drivers/LCD_FMC/src/tftLCD.c ****         LCD_WR_DATA(0x00);
1471:Drivers/LCD_FMC/src/tftLCD.c ****         LCD_WR_DATA(0xBB);
1472:Drivers/LCD_FMC/src/tftLCD.c ****         LCD_WR_DATA(0x00);
1473:Drivers/LCD_FMC/src/tftLCD.c ****         LCD_WR_DATA(0x99);
1474:Drivers/LCD_FMC/src/tftLCD.c ****         LCD_WR_DATA(0x00);
1475:Drivers/LCD_FMC/src/tftLCD.c ****         LCD_WR_DATA(0x66);
1476:Drivers/LCD_FMC/src/tftLCD.c ****         LCD_WR_DATA(0x00);
1477:Drivers/LCD_FMC/src/tftLCD.c ****         LCD_WR_DATA(0x55);
1478:Drivers/LCD_FMC/src/tftLCD.c ****         LCD_WR_DATA(0x00);
1479:Drivers/LCD_FMC/src/tftLCD.c ****         LCD_WR_DATA(0x55);
1480:Drivers/LCD_FMC/src/tftLCD.c ****         LCD_WR_DATA(0x00);
1481:Drivers/LCD_FMC/src/tftLCD.c ****         LCD_WR_DATA(0x44);
1482:Drivers/LCD_FMC/src/tftLCD.c ****         LCD_WR_DATA(0x00);
1483:Drivers/LCD_FMC/src/tftLCD.c ****         LCD_WR_DATA(0x44);
1484:Drivers/LCD_FMC/src/tftLCD.c ****         LCD_WR_DATA(0x00);
1485:Drivers/LCD_FMC/src/tftLCD.c ****         LCD_WR_DATA(0x55);
1486:Drivers/LCD_FMC/src/tftLCD.c ****         LCD_WR_DATA(0x00);
1487:Drivers/LCD_FMC/src/tftLCD.c **** 
1488:Drivers/LCD_FMC/src/tftLCD.c ****         LCD_WR_REG(0xE9);
1489:Drivers/LCD_FMC/src/tftLCD.c ****         LCD_WR_DATA(0xAA);
1490:Drivers/LCD_FMC/src/tftLCD.c ****         LCD_WR_DATA(0x00);
1491:Drivers/LCD_FMC/src/tftLCD.c ****         LCD_WR_DATA(0x00);
1492:Drivers/LCD_FMC/src/tftLCD.c ****         LCD_WR_DATA(0x00);
1493:Drivers/LCD_FMC/src/tftLCD.c **** 
1494:Drivers/LCD_FMC/src/tftLCD.c ****         LCD_WR_REG(0x00);
1495:Drivers/LCD_FMC/src/tftLCD.c ****         LCD_WR_DATA(0xAA);
1496:Drivers/LCD_FMC/src/tftLCD.c **** 
1497:Drivers/LCD_FMC/src/tftLCD.c ****         LCD_WR_REG(0xCF);
1498:Drivers/LCD_FMC/src/tftLCD.c ****         LCD_WR_DATA(0x00);
1499:Drivers/LCD_FMC/src/tftLCD.c ****         LCD_WR_DATA(0x00);
1500:Drivers/LCD_FMC/src/tftLCD.c ****         LCD_WR_DATA(0x00);
1501:Drivers/LCD_FMC/src/tftLCD.c ****         LCD_WR_DATA(0x00);
1502:Drivers/LCD_FMC/src/tftLCD.c ****         LCD_WR_DATA(0x00);
1503:Drivers/LCD_FMC/src/tftLCD.c ****         LCD_WR_DATA(0x00);
1504:Drivers/LCD_FMC/src/tftLCD.c ****         LCD_WR_DATA(0x00);
1505:Drivers/LCD_FMC/src/tftLCD.c ****         LCD_WR_DATA(0x00);
1506:Drivers/LCD_FMC/src/tftLCD.c ****         LCD_WR_DATA(0x00);
1507:Drivers/LCD_FMC/src/tftLCD.c ****         LCD_WR_DATA(0x00);
1508:Drivers/LCD_FMC/src/tftLCD.c ****         LCD_WR_DATA(0x00);
1509:Drivers/LCD_FMC/src/tftLCD.c ****         LCD_WR_DATA(0x00);
1510:Drivers/LCD_FMC/src/tftLCD.c ****         LCD_WR_DATA(0x00);
1511:Drivers/LCD_FMC/src/tftLCD.c ****         LCD_WR_DATA(0x00);
1512:Drivers/LCD_FMC/src/tftLCD.c ****         LCD_WR_DATA(0x00);
1513:Drivers/LCD_FMC/src/tftLCD.c ****         LCD_WR_DATA(0x00);
ARM GAS  C:\usertemp\ccUDQ5mr.s 			page 69


1514:Drivers/LCD_FMC/src/tftLCD.c ****         LCD_WR_DATA(0x00);
1515:Drivers/LCD_FMC/src/tftLCD.c **** 
1516:Drivers/LCD_FMC/src/tftLCD.c ****         LCD_WR_REG(0xF0);
1517:Drivers/LCD_FMC/src/tftLCD.c ****         LCD_WR_DATA(0x00);
1518:Drivers/LCD_FMC/src/tftLCD.c ****         LCD_WR_DATA(0x50);
1519:Drivers/LCD_FMC/src/tftLCD.c ****         LCD_WR_DATA(0x00);
1520:Drivers/LCD_FMC/src/tftLCD.c ****         LCD_WR_DATA(0x00);
1521:Drivers/LCD_FMC/src/tftLCD.c ****         LCD_WR_DATA(0x00);
1522:Drivers/LCD_FMC/src/tftLCD.c **** 
1523:Drivers/LCD_FMC/src/tftLCD.c ****         LCD_WR_REG(0xF3);
1524:Drivers/LCD_FMC/src/tftLCD.c ****         LCD_WR_DATA(0x00);
1525:Drivers/LCD_FMC/src/tftLCD.c **** 
1526:Drivers/LCD_FMC/src/tftLCD.c ****         LCD_WR_REG(0xF9);
1527:Drivers/LCD_FMC/src/tftLCD.c ****         LCD_WR_DATA(0x06);
1528:Drivers/LCD_FMC/src/tftLCD.c ****         LCD_WR_DATA(0x10);
1529:Drivers/LCD_FMC/src/tftLCD.c ****         LCD_WR_DATA(0x29);
1530:Drivers/LCD_FMC/src/tftLCD.c ****         LCD_WR_DATA(0x00);
1531:Drivers/LCD_FMC/src/tftLCD.c **** 
1532:Drivers/LCD_FMC/src/tftLCD.c ****         LCD_WR_REG(0x3A);
1533:Drivers/LCD_FMC/src/tftLCD.c ****         LCD_WR_DATA(0x55);	//66
1534:Drivers/LCD_FMC/src/tftLCD.c **** 
1535:Drivers/LCD_FMC/src/tftLCD.c ****         LCD_WR_REG(0x11);
1536:Drivers/LCD_FMC/src/tftLCD.c ****         HAL_Delay(100);
1537:Drivers/LCD_FMC/src/tftLCD.c ****         LCD_WR_REG(0x29);
1538:Drivers/LCD_FMC/src/tftLCD.c ****         LCD_WR_REG(0x35);
1539:Drivers/LCD_FMC/src/tftLCD.c ****         LCD_WR_DATA(0x00);
1540:Drivers/LCD_FMC/src/tftLCD.c **** 
1541:Drivers/LCD_FMC/src/tftLCD.c ****         LCD_WR_REG(0x51);
1542:Drivers/LCD_FMC/src/tftLCD.c ****         LCD_WR_DATA(0xFF);
1543:Drivers/LCD_FMC/src/tftLCD.c ****         LCD_WR_REG(0x53);
1544:Drivers/LCD_FMC/src/tftLCD.c ****         LCD_WR_DATA(0x2C);
1545:Drivers/LCD_FMC/src/tftLCD.c ****         LCD_WR_REG(0x55);
1546:Drivers/LCD_FMC/src/tftLCD.c ****         LCD_WR_DATA(0x82);
1547:Drivers/LCD_FMC/src/tftLCD.c ****         LCD_WR_REG(0x2c);
1548:Drivers/LCD_FMC/src/tftLCD.c ****     }
1549:Drivers/LCD_FMC/src/tftLCD.c ****     else if(lcddev.id==0x5510)
1550:Drivers/LCD_FMC/src/tftLCD.c ****     {
1551:Drivers/LCD_FMC/src/tftLCD.c ****         LCD_WriteReg(0xF000,0x55);
1552:Drivers/LCD_FMC/src/tftLCD.c ****         LCD_WriteReg(0xF001,0xAA);
1553:Drivers/LCD_FMC/src/tftLCD.c ****         LCD_WriteReg(0xF002,0x52);
1554:Drivers/LCD_FMC/src/tftLCD.c ****         LCD_WriteReg(0xF003,0x08);
1555:Drivers/LCD_FMC/src/tftLCD.c ****         LCD_WriteReg(0xF004,0x01);
1556:Drivers/LCD_FMC/src/tftLCD.c ****         //AVDD Set AVDD 5.2V
1557:Drivers/LCD_FMC/src/tftLCD.c ****         LCD_WriteReg(0xB000,0x0D);
1558:Drivers/LCD_FMC/src/tftLCD.c ****         LCD_WriteReg(0xB001,0x0D);
1559:Drivers/LCD_FMC/src/tftLCD.c ****         LCD_WriteReg(0xB002,0x0D);
1560:Drivers/LCD_FMC/src/tftLCD.c ****         //AVDD ratio
1561:Drivers/LCD_FMC/src/tftLCD.c ****         LCD_WriteReg(0xB600,0x34);
1562:Drivers/LCD_FMC/src/tftLCD.c ****         LCD_WriteReg(0xB601,0x34);
1563:Drivers/LCD_FMC/src/tftLCD.c ****         LCD_WriteReg(0xB602,0x34);
1564:Drivers/LCD_FMC/src/tftLCD.c ****         //AVEE -5.2V
1565:Drivers/LCD_FMC/src/tftLCD.c ****         LCD_WriteReg(0xB100,0x0D);
1566:Drivers/LCD_FMC/src/tftLCD.c ****         LCD_WriteReg(0xB101,0x0D);
1567:Drivers/LCD_FMC/src/tftLCD.c ****         LCD_WriteReg(0xB102,0x0D);
1568:Drivers/LCD_FMC/src/tftLCD.c ****         //AVEE ratio
1569:Drivers/LCD_FMC/src/tftLCD.c ****         LCD_WriteReg(0xB700,0x34);
1570:Drivers/LCD_FMC/src/tftLCD.c ****         LCD_WriteReg(0xB701,0x34);
ARM GAS  C:\usertemp\ccUDQ5mr.s 			page 70


1571:Drivers/LCD_FMC/src/tftLCD.c ****         LCD_WriteReg(0xB702,0x34);
1572:Drivers/LCD_FMC/src/tftLCD.c ****         //VCL -2.5V
1573:Drivers/LCD_FMC/src/tftLCD.c ****         LCD_WriteReg(0xB200,0x00);
1574:Drivers/LCD_FMC/src/tftLCD.c ****         LCD_WriteReg(0xB201,0x00);
1575:Drivers/LCD_FMC/src/tftLCD.c ****         LCD_WriteReg(0xB202,0x00);
1576:Drivers/LCD_FMC/src/tftLCD.c ****         //VCL ratio
1577:Drivers/LCD_FMC/src/tftLCD.c ****         LCD_WriteReg(0xB800,0x24);
1578:Drivers/LCD_FMC/src/tftLCD.c ****         LCD_WriteReg(0xB801,0x24);
1579:Drivers/LCD_FMC/src/tftLCD.c ****         LCD_WriteReg(0xB802,0x24);
1580:Drivers/LCD_FMC/src/tftLCD.c ****         //VGH 15V (Free pump)
1581:Drivers/LCD_FMC/src/tftLCD.c ****         LCD_WriteReg(0xBF00,0x01);
1582:Drivers/LCD_FMC/src/tftLCD.c ****         LCD_WriteReg(0xB300,0x0F);
1583:Drivers/LCD_FMC/src/tftLCD.c ****         LCD_WriteReg(0xB301,0x0F);
1584:Drivers/LCD_FMC/src/tftLCD.c ****         LCD_WriteReg(0xB302,0x0F);
1585:Drivers/LCD_FMC/src/tftLCD.c ****         //VGH ratio
1586:Drivers/LCD_FMC/src/tftLCD.c ****         LCD_WriteReg(0xB900,0x34);
1587:Drivers/LCD_FMC/src/tftLCD.c ****         LCD_WriteReg(0xB901,0x34);
1588:Drivers/LCD_FMC/src/tftLCD.c ****         LCD_WriteReg(0xB902,0x34);
1589:Drivers/LCD_FMC/src/tftLCD.c ****         //VGL_REG -10V
1590:Drivers/LCD_FMC/src/tftLCD.c ****         LCD_WriteReg(0xB500,0x08);
1591:Drivers/LCD_FMC/src/tftLCD.c ****         LCD_WriteReg(0xB501,0x08);
1592:Drivers/LCD_FMC/src/tftLCD.c ****         LCD_WriteReg(0xB502,0x08);
1593:Drivers/LCD_FMC/src/tftLCD.c ****         LCD_WriteReg(0xC200,0x03);
1594:Drivers/LCD_FMC/src/tftLCD.c ****         //VGLX ratio
1595:Drivers/LCD_FMC/src/tftLCD.c ****         LCD_WriteReg(0xBA00,0x24);
1596:Drivers/LCD_FMC/src/tftLCD.c ****         LCD_WriteReg(0xBA01,0x24);
1597:Drivers/LCD_FMC/src/tftLCD.c ****         LCD_WriteReg(0xBA02,0x24);
1598:Drivers/LCD_FMC/src/tftLCD.c ****         //VGMP/VGSP 4.5V/0V
1599:Drivers/LCD_FMC/src/tftLCD.c ****         LCD_WriteReg(0xBC00,0x00);
1600:Drivers/LCD_FMC/src/tftLCD.c ****         LCD_WriteReg(0xBC01,0x78);
1601:Drivers/LCD_FMC/src/tftLCD.c ****         LCD_WriteReg(0xBC02,0x00);
1602:Drivers/LCD_FMC/src/tftLCD.c ****         //VGMN/VGSN -4.5V/0V
1603:Drivers/LCD_FMC/src/tftLCD.c ****         LCD_WriteReg(0xBD00,0x00);
1604:Drivers/LCD_FMC/src/tftLCD.c ****         LCD_WriteReg(0xBD01,0x78);
1605:Drivers/LCD_FMC/src/tftLCD.c ****         LCD_WriteReg(0xBD02,0x00);
1606:Drivers/LCD_FMC/src/tftLCD.c ****         //VCOM
1607:Drivers/LCD_FMC/src/tftLCD.c ****         LCD_WriteReg(0xBE00,0x00);
1608:Drivers/LCD_FMC/src/tftLCD.c ****         LCD_WriteReg(0xBE01,0x64);
1609:Drivers/LCD_FMC/src/tftLCD.c ****         //Gamma Setting
1610:Drivers/LCD_FMC/src/tftLCD.c ****         LCD_WriteReg(0xD100,0x00);
1611:Drivers/LCD_FMC/src/tftLCD.c ****         LCD_WriteReg(0xD101,0x33);
1612:Drivers/LCD_FMC/src/tftLCD.c ****         LCD_WriteReg(0xD102,0x00);
1613:Drivers/LCD_FMC/src/tftLCD.c ****         LCD_WriteReg(0xD103,0x34);
1614:Drivers/LCD_FMC/src/tftLCD.c ****         LCD_WriteReg(0xD104,0x00);
1615:Drivers/LCD_FMC/src/tftLCD.c ****         LCD_WriteReg(0xD105,0x3A);
1616:Drivers/LCD_FMC/src/tftLCD.c ****         LCD_WriteReg(0xD106,0x00);
1617:Drivers/LCD_FMC/src/tftLCD.c ****         LCD_WriteReg(0xD107,0x4A);
1618:Drivers/LCD_FMC/src/tftLCD.c ****         LCD_WriteReg(0xD108,0x00);
1619:Drivers/LCD_FMC/src/tftLCD.c ****         LCD_WriteReg(0xD109,0x5C);
1620:Drivers/LCD_FMC/src/tftLCD.c ****         LCD_WriteReg(0xD10A,0x00);
1621:Drivers/LCD_FMC/src/tftLCD.c ****         LCD_WriteReg(0xD10B,0x81);
1622:Drivers/LCD_FMC/src/tftLCD.c ****         LCD_WriteReg(0xD10C,0x00);
1623:Drivers/LCD_FMC/src/tftLCD.c ****         LCD_WriteReg(0xD10D,0xA6);
1624:Drivers/LCD_FMC/src/tftLCD.c ****         LCD_WriteReg(0xD10E,0x00);
1625:Drivers/LCD_FMC/src/tftLCD.c ****         LCD_WriteReg(0xD10F,0xE5);
1626:Drivers/LCD_FMC/src/tftLCD.c ****         LCD_WriteReg(0xD110,0x01);
1627:Drivers/LCD_FMC/src/tftLCD.c ****         LCD_WriteReg(0xD111,0x13);
ARM GAS  C:\usertemp\ccUDQ5mr.s 			page 71


1628:Drivers/LCD_FMC/src/tftLCD.c ****         LCD_WriteReg(0xD112,0x01);
1629:Drivers/LCD_FMC/src/tftLCD.c ****         LCD_WriteReg(0xD113,0x54);
1630:Drivers/LCD_FMC/src/tftLCD.c ****         LCD_WriteReg(0xD114,0x01);
1631:Drivers/LCD_FMC/src/tftLCD.c ****         LCD_WriteReg(0xD115,0x82);
1632:Drivers/LCD_FMC/src/tftLCD.c ****         LCD_WriteReg(0xD116,0x01);
1633:Drivers/LCD_FMC/src/tftLCD.c ****         LCD_WriteReg(0xD117,0xCA);
1634:Drivers/LCD_FMC/src/tftLCD.c ****         LCD_WriteReg(0xD118,0x02);
1635:Drivers/LCD_FMC/src/tftLCD.c ****         LCD_WriteReg(0xD119,0x00);
1636:Drivers/LCD_FMC/src/tftLCD.c ****         LCD_WriteReg(0xD11A,0x02);
1637:Drivers/LCD_FMC/src/tftLCD.c ****         LCD_WriteReg(0xD11B,0x01);
1638:Drivers/LCD_FMC/src/tftLCD.c ****         LCD_WriteReg(0xD11C,0x02);
1639:Drivers/LCD_FMC/src/tftLCD.c ****         LCD_WriteReg(0xD11D,0x34);
1640:Drivers/LCD_FMC/src/tftLCD.c ****         LCD_WriteReg(0xD11E,0x02);
1641:Drivers/LCD_FMC/src/tftLCD.c ****         LCD_WriteReg(0xD11F,0x67);
1642:Drivers/LCD_FMC/src/tftLCD.c ****         LCD_WriteReg(0xD120,0x02);
1643:Drivers/LCD_FMC/src/tftLCD.c ****         LCD_WriteReg(0xD121,0x84);
1644:Drivers/LCD_FMC/src/tftLCD.c ****         LCD_WriteReg(0xD122,0x02);
1645:Drivers/LCD_FMC/src/tftLCD.c ****         LCD_WriteReg(0xD123,0xA4);
1646:Drivers/LCD_FMC/src/tftLCD.c ****         LCD_WriteReg(0xD124,0x02);
1647:Drivers/LCD_FMC/src/tftLCD.c ****         LCD_WriteReg(0xD125,0xB7);
1648:Drivers/LCD_FMC/src/tftLCD.c ****         LCD_WriteReg(0xD126,0x02);
1649:Drivers/LCD_FMC/src/tftLCD.c ****         LCD_WriteReg(0xD127,0xCF);
1650:Drivers/LCD_FMC/src/tftLCD.c ****         LCD_WriteReg(0xD128,0x02);
1651:Drivers/LCD_FMC/src/tftLCD.c ****         LCD_WriteReg(0xD129,0xDE);
1652:Drivers/LCD_FMC/src/tftLCD.c ****         LCD_WriteReg(0xD12A,0x02);
1653:Drivers/LCD_FMC/src/tftLCD.c ****         LCD_WriteReg(0xD12B,0xF2);
1654:Drivers/LCD_FMC/src/tftLCD.c ****         LCD_WriteReg(0xD12C,0x02);
1655:Drivers/LCD_FMC/src/tftLCD.c ****         LCD_WriteReg(0xD12D,0xFE);
1656:Drivers/LCD_FMC/src/tftLCD.c ****         LCD_WriteReg(0xD12E,0x03);
1657:Drivers/LCD_FMC/src/tftLCD.c ****         LCD_WriteReg(0xD12F,0x10);
1658:Drivers/LCD_FMC/src/tftLCD.c ****         LCD_WriteReg(0xD130,0x03);
1659:Drivers/LCD_FMC/src/tftLCD.c ****         LCD_WriteReg(0xD131,0x33);
1660:Drivers/LCD_FMC/src/tftLCD.c ****         LCD_WriteReg(0xD132,0x03);
1661:Drivers/LCD_FMC/src/tftLCD.c ****         LCD_WriteReg(0xD133,0x6D);
1662:Drivers/LCD_FMC/src/tftLCD.c ****         LCD_WriteReg(0xD200,0x00);
1663:Drivers/LCD_FMC/src/tftLCD.c ****         LCD_WriteReg(0xD201,0x33);
1664:Drivers/LCD_FMC/src/tftLCD.c ****         LCD_WriteReg(0xD202,0x00);
1665:Drivers/LCD_FMC/src/tftLCD.c ****         LCD_WriteReg(0xD203,0x34);
1666:Drivers/LCD_FMC/src/tftLCD.c ****         LCD_WriteReg(0xD204,0x00);
1667:Drivers/LCD_FMC/src/tftLCD.c ****         LCD_WriteReg(0xD205,0x3A);
1668:Drivers/LCD_FMC/src/tftLCD.c ****         LCD_WriteReg(0xD206,0x00);
1669:Drivers/LCD_FMC/src/tftLCD.c ****         LCD_WriteReg(0xD207,0x4A);
1670:Drivers/LCD_FMC/src/tftLCD.c ****         LCD_WriteReg(0xD208,0x00);
1671:Drivers/LCD_FMC/src/tftLCD.c ****         LCD_WriteReg(0xD209,0x5C);
1672:Drivers/LCD_FMC/src/tftLCD.c ****         LCD_WriteReg(0xD20A,0x00);
1673:Drivers/LCD_FMC/src/tftLCD.c **** 
1674:Drivers/LCD_FMC/src/tftLCD.c ****         LCD_WriteReg(0xD20B,0x81);
1675:Drivers/LCD_FMC/src/tftLCD.c ****         LCD_WriteReg(0xD20C,0x00);
1676:Drivers/LCD_FMC/src/tftLCD.c ****         LCD_WriteReg(0xD20D,0xA6);
1677:Drivers/LCD_FMC/src/tftLCD.c ****         LCD_WriteReg(0xD20E,0x00);
1678:Drivers/LCD_FMC/src/tftLCD.c ****         LCD_WriteReg(0xD20F,0xE5);
1679:Drivers/LCD_FMC/src/tftLCD.c ****         LCD_WriteReg(0xD210,0x01);
1680:Drivers/LCD_FMC/src/tftLCD.c ****         LCD_WriteReg(0xD211,0x13);
1681:Drivers/LCD_FMC/src/tftLCD.c ****         LCD_WriteReg(0xD212,0x01);
1682:Drivers/LCD_FMC/src/tftLCD.c ****         LCD_WriteReg(0xD213,0x54);
1683:Drivers/LCD_FMC/src/tftLCD.c ****         LCD_WriteReg(0xD214,0x01);
1684:Drivers/LCD_FMC/src/tftLCD.c ****         LCD_WriteReg(0xD215,0x82);
ARM GAS  C:\usertemp\ccUDQ5mr.s 			page 72


1685:Drivers/LCD_FMC/src/tftLCD.c ****         LCD_WriteReg(0xD216,0x01);
1686:Drivers/LCD_FMC/src/tftLCD.c ****         LCD_WriteReg(0xD217,0xCA);
1687:Drivers/LCD_FMC/src/tftLCD.c ****         LCD_WriteReg(0xD218,0x02);
1688:Drivers/LCD_FMC/src/tftLCD.c ****         LCD_WriteReg(0xD219,0x00);
1689:Drivers/LCD_FMC/src/tftLCD.c ****         LCD_WriteReg(0xD21A,0x02);
1690:Drivers/LCD_FMC/src/tftLCD.c ****         LCD_WriteReg(0xD21B,0x01);
1691:Drivers/LCD_FMC/src/tftLCD.c ****         LCD_WriteReg(0xD21C,0x02);
1692:Drivers/LCD_FMC/src/tftLCD.c ****         LCD_WriteReg(0xD21D,0x34);
1693:Drivers/LCD_FMC/src/tftLCD.c ****         LCD_WriteReg(0xD21E,0x02);
1694:Drivers/LCD_FMC/src/tftLCD.c ****         LCD_WriteReg(0xD21F,0x67);
1695:Drivers/LCD_FMC/src/tftLCD.c ****         LCD_WriteReg(0xD220,0x02);
1696:Drivers/LCD_FMC/src/tftLCD.c ****         LCD_WriteReg(0xD221,0x84);
1697:Drivers/LCD_FMC/src/tftLCD.c ****         LCD_WriteReg(0xD222,0x02);
1698:Drivers/LCD_FMC/src/tftLCD.c ****         LCD_WriteReg(0xD223,0xA4);
1699:Drivers/LCD_FMC/src/tftLCD.c ****         LCD_WriteReg(0xD224,0x02);
1700:Drivers/LCD_FMC/src/tftLCD.c ****         LCD_WriteReg(0xD225,0xB7);
1701:Drivers/LCD_FMC/src/tftLCD.c ****         LCD_WriteReg(0xD226,0x02);
1702:Drivers/LCD_FMC/src/tftLCD.c ****         LCD_WriteReg(0xD227,0xCF);
1703:Drivers/LCD_FMC/src/tftLCD.c ****         LCD_WriteReg(0xD228,0x02);
1704:Drivers/LCD_FMC/src/tftLCD.c ****         LCD_WriteReg(0xD229,0xDE);
1705:Drivers/LCD_FMC/src/tftLCD.c ****         LCD_WriteReg(0xD22A,0x02);
1706:Drivers/LCD_FMC/src/tftLCD.c ****         LCD_WriteReg(0xD22B,0xF2);
1707:Drivers/LCD_FMC/src/tftLCD.c ****         LCD_WriteReg(0xD22C,0x02);
1708:Drivers/LCD_FMC/src/tftLCD.c ****         LCD_WriteReg(0xD22D,0xFE);
1709:Drivers/LCD_FMC/src/tftLCD.c ****         LCD_WriteReg(0xD22E,0x03);
1710:Drivers/LCD_FMC/src/tftLCD.c ****         LCD_WriteReg(0xD22F,0x10);
1711:Drivers/LCD_FMC/src/tftLCD.c ****         LCD_WriteReg(0xD230,0x03);
1712:Drivers/LCD_FMC/src/tftLCD.c ****         LCD_WriteReg(0xD231,0x33);
1713:Drivers/LCD_FMC/src/tftLCD.c ****         LCD_WriteReg(0xD232,0x03);
1714:Drivers/LCD_FMC/src/tftLCD.c ****         LCD_WriteReg(0xD233,0x6D);
1715:Drivers/LCD_FMC/src/tftLCD.c ****         LCD_WriteReg(0xD300,0x00);
1716:Drivers/LCD_FMC/src/tftLCD.c ****         LCD_WriteReg(0xD301,0x33);
1717:Drivers/LCD_FMC/src/tftLCD.c ****         LCD_WriteReg(0xD302,0x00);
1718:Drivers/LCD_FMC/src/tftLCD.c ****         LCD_WriteReg(0xD303,0x34);
1719:Drivers/LCD_FMC/src/tftLCD.c ****         LCD_WriteReg(0xD304,0x00);
1720:Drivers/LCD_FMC/src/tftLCD.c ****         LCD_WriteReg(0xD305,0x3A);
1721:Drivers/LCD_FMC/src/tftLCD.c ****         LCD_WriteReg(0xD306,0x00);
1722:Drivers/LCD_FMC/src/tftLCD.c ****         LCD_WriteReg(0xD307,0x4A);
1723:Drivers/LCD_FMC/src/tftLCD.c ****         LCD_WriteReg(0xD308,0x00);
1724:Drivers/LCD_FMC/src/tftLCD.c ****         LCD_WriteReg(0xD309,0x5C);
1725:Drivers/LCD_FMC/src/tftLCD.c ****         LCD_WriteReg(0xD30A,0x00);
1726:Drivers/LCD_FMC/src/tftLCD.c **** 
1727:Drivers/LCD_FMC/src/tftLCD.c ****         LCD_WriteReg(0xD30B,0x81);
1728:Drivers/LCD_FMC/src/tftLCD.c ****         LCD_WriteReg(0xD30C,0x00);
1729:Drivers/LCD_FMC/src/tftLCD.c ****         LCD_WriteReg(0xD30D,0xA6);
1730:Drivers/LCD_FMC/src/tftLCD.c ****         LCD_WriteReg(0xD30E,0x00);
1731:Drivers/LCD_FMC/src/tftLCD.c ****         LCD_WriteReg(0xD30F,0xE5);
1732:Drivers/LCD_FMC/src/tftLCD.c ****         LCD_WriteReg(0xD310,0x01);
1733:Drivers/LCD_FMC/src/tftLCD.c ****         LCD_WriteReg(0xD311,0x13);
1734:Drivers/LCD_FMC/src/tftLCD.c ****         LCD_WriteReg(0xD312,0x01);
1735:Drivers/LCD_FMC/src/tftLCD.c ****         LCD_WriteReg(0xD313,0x54);
1736:Drivers/LCD_FMC/src/tftLCD.c ****         LCD_WriteReg(0xD314,0x01);
1737:Drivers/LCD_FMC/src/tftLCD.c ****         LCD_WriteReg(0xD315,0x82);
1738:Drivers/LCD_FMC/src/tftLCD.c ****         LCD_WriteReg(0xD316,0x01);
1739:Drivers/LCD_FMC/src/tftLCD.c ****         LCD_WriteReg(0xD317,0xCA);
1740:Drivers/LCD_FMC/src/tftLCD.c ****         LCD_WriteReg(0xD318,0x02);
1741:Drivers/LCD_FMC/src/tftLCD.c ****         LCD_WriteReg(0xD319,0x00);
ARM GAS  C:\usertemp\ccUDQ5mr.s 			page 73


1742:Drivers/LCD_FMC/src/tftLCD.c ****         LCD_WriteReg(0xD31A,0x02);
1743:Drivers/LCD_FMC/src/tftLCD.c ****         LCD_WriteReg(0xD31B,0x01);
1744:Drivers/LCD_FMC/src/tftLCD.c ****         LCD_WriteReg(0xD31C,0x02);
1745:Drivers/LCD_FMC/src/tftLCD.c ****         LCD_WriteReg(0xD31D,0x34);
1746:Drivers/LCD_FMC/src/tftLCD.c ****         LCD_WriteReg(0xD31E,0x02);
1747:Drivers/LCD_FMC/src/tftLCD.c ****         LCD_WriteReg(0xD31F,0x67);
1748:Drivers/LCD_FMC/src/tftLCD.c ****         LCD_WriteReg(0xD320,0x02);
1749:Drivers/LCD_FMC/src/tftLCD.c ****         LCD_WriteReg(0xD321,0x84);
1750:Drivers/LCD_FMC/src/tftLCD.c ****         LCD_WriteReg(0xD322,0x02);
1751:Drivers/LCD_FMC/src/tftLCD.c ****         LCD_WriteReg(0xD323,0xA4);
1752:Drivers/LCD_FMC/src/tftLCD.c ****         LCD_WriteReg(0xD324,0x02);
1753:Drivers/LCD_FMC/src/tftLCD.c ****         LCD_WriteReg(0xD325,0xB7);
1754:Drivers/LCD_FMC/src/tftLCD.c ****         LCD_WriteReg(0xD326,0x02);
1755:Drivers/LCD_FMC/src/tftLCD.c ****         LCD_WriteReg(0xD327,0xCF);
1756:Drivers/LCD_FMC/src/tftLCD.c ****         LCD_WriteReg(0xD328,0x02);
1757:Drivers/LCD_FMC/src/tftLCD.c ****         LCD_WriteReg(0xD329,0xDE);
1758:Drivers/LCD_FMC/src/tftLCD.c ****         LCD_WriteReg(0xD32A,0x02);
1759:Drivers/LCD_FMC/src/tftLCD.c ****         LCD_WriteReg(0xD32B,0xF2);
1760:Drivers/LCD_FMC/src/tftLCD.c ****         LCD_WriteReg(0xD32C,0x02);
1761:Drivers/LCD_FMC/src/tftLCD.c ****         LCD_WriteReg(0xD32D,0xFE);
1762:Drivers/LCD_FMC/src/tftLCD.c ****         LCD_WriteReg(0xD32E,0x03);
1763:Drivers/LCD_FMC/src/tftLCD.c ****         LCD_WriteReg(0xD32F,0x10);
1764:Drivers/LCD_FMC/src/tftLCD.c ****         LCD_WriteReg(0xD330,0x03);
1765:Drivers/LCD_FMC/src/tftLCD.c ****         LCD_WriteReg(0xD331,0x33);
1766:Drivers/LCD_FMC/src/tftLCD.c ****         LCD_WriteReg(0xD332,0x03);
1767:Drivers/LCD_FMC/src/tftLCD.c ****         LCD_WriteReg(0xD333,0x6D);
1768:Drivers/LCD_FMC/src/tftLCD.c ****         LCD_WriteReg(0xD400,0x00);
1769:Drivers/LCD_FMC/src/tftLCD.c ****         LCD_WriteReg(0xD401,0x33);
1770:Drivers/LCD_FMC/src/tftLCD.c ****         LCD_WriteReg(0xD402,0x00);
1771:Drivers/LCD_FMC/src/tftLCD.c ****         LCD_WriteReg(0xD403,0x34);
1772:Drivers/LCD_FMC/src/tftLCD.c ****         LCD_WriteReg(0xD404,0x00);
1773:Drivers/LCD_FMC/src/tftLCD.c ****         LCD_WriteReg(0xD405,0x3A);
1774:Drivers/LCD_FMC/src/tftLCD.c ****         LCD_WriteReg(0xD406,0x00);
1775:Drivers/LCD_FMC/src/tftLCD.c ****         LCD_WriteReg(0xD407,0x4A);
1776:Drivers/LCD_FMC/src/tftLCD.c ****         LCD_WriteReg(0xD408,0x00);
1777:Drivers/LCD_FMC/src/tftLCD.c ****         LCD_WriteReg(0xD409,0x5C);
1778:Drivers/LCD_FMC/src/tftLCD.c ****         LCD_WriteReg(0xD40A,0x00);
1779:Drivers/LCD_FMC/src/tftLCD.c ****         LCD_WriteReg(0xD40B,0x81);
1780:Drivers/LCD_FMC/src/tftLCD.c **** 
1781:Drivers/LCD_FMC/src/tftLCD.c ****         LCD_WriteReg(0xD40C,0x00);
1782:Drivers/LCD_FMC/src/tftLCD.c ****         LCD_WriteReg(0xD40D,0xA6);
1783:Drivers/LCD_FMC/src/tftLCD.c ****         LCD_WriteReg(0xD40E,0x00);
1784:Drivers/LCD_FMC/src/tftLCD.c ****         LCD_WriteReg(0xD40F,0xE5);
1785:Drivers/LCD_FMC/src/tftLCD.c ****         LCD_WriteReg(0xD410,0x01);
1786:Drivers/LCD_FMC/src/tftLCD.c ****         LCD_WriteReg(0xD411,0x13);
1787:Drivers/LCD_FMC/src/tftLCD.c ****         LCD_WriteReg(0xD412,0x01);
1788:Drivers/LCD_FMC/src/tftLCD.c ****         LCD_WriteReg(0xD413,0x54);
1789:Drivers/LCD_FMC/src/tftLCD.c ****         LCD_WriteReg(0xD414,0x01);
1790:Drivers/LCD_FMC/src/tftLCD.c ****         LCD_WriteReg(0xD415,0x82);
1791:Drivers/LCD_FMC/src/tftLCD.c ****         LCD_WriteReg(0xD416,0x01);
1792:Drivers/LCD_FMC/src/tftLCD.c ****         LCD_WriteReg(0xD417,0xCA);
1793:Drivers/LCD_FMC/src/tftLCD.c ****         LCD_WriteReg(0xD418,0x02);
1794:Drivers/LCD_FMC/src/tftLCD.c ****         LCD_WriteReg(0xD419,0x00);
1795:Drivers/LCD_FMC/src/tftLCD.c ****         LCD_WriteReg(0xD41A,0x02);
1796:Drivers/LCD_FMC/src/tftLCD.c ****         LCD_WriteReg(0xD41B,0x01);
1797:Drivers/LCD_FMC/src/tftLCD.c ****         LCD_WriteReg(0xD41C,0x02);
1798:Drivers/LCD_FMC/src/tftLCD.c ****         LCD_WriteReg(0xD41D,0x34);
ARM GAS  C:\usertemp\ccUDQ5mr.s 			page 74


1799:Drivers/LCD_FMC/src/tftLCD.c ****         LCD_WriteReg(0xD41E,0x02);
1800:Drivers/LCD_FMC/src/tftLCD.c ****         LCD_WriteReg(0xD41F,0x67);
1801:Drivers/LCD_FMC/src/tftLCD.c ****         LCD_WriteReg(0xD420,0x02);
1802:Drivers/LCD_FMC/src/tftLCD.c ****         LCD_WriteReg(0xD421,0x84);
1803:Drivers/LCD_FMC/src/tftLCD.c ****         LCD_WriteReg(0xD422,0x02);
1804:Drivers/LCD_FMC/src/tftLCD.c ****         LCD_WriteReg(0xD423,0xA4);
1805:Drivers/LCD_FMC/src/tftLCD.c ****         LCD_WriteReg(0xD424,0x02);
1806:Drivers/LCD_FMC/src/tftLCD.c ****         LCD_WriteReg(0xD425,0xB7);
1807:Drivers/LCD_FMC/src/tftLCD.c ****         LCD_WriteReg(0xD426,0x02);
1808:Drivers/LCD_FMC/src/tftLCD.c ****         LCD_WriteReg(0xD427,0xCF);
1809:Drivers/LCD_FMC/src/tftLCD.c ****         LCD_WriteReg(0xD428,0x02);
1810:Drivers/LCD_FMC/src/tftLCD.c ****         LCD_WriteReg(0xD429,0xDE);
1811:Drivers/LCD_FMC/src/tftLCD.c ****         LCD_WriteReg(0xD42A,0x02);
1812:Drivers/LCD_FMC/src/tftLCD.c ****         LCD_WriteReg(0xD42B,0xF2);
1813:Drivers/LCD_FMC/src/tftLCD.c ****         LCD_WriteReg(0xD42C,0x02);
1814:Drivers/LCD_FMC/src/tftLCD.c ****         LCD_WriteReg(0xD42D,0xFE);
1815:Drivers/LCD_FMC/src/tftLCD.c ****         LCD_WriteReg(0xD42E,0x03);
1816:Drivers/LCD_FMC/src/tftLCD.c ****         LCD_WriteReg(0xD42F,0x10);
1817:Drivers/LCD_FMC/src/tftLCD.c ****         LCD_WriteReg(0xD430,0x03);
1818:Drivers/LCD_FMC/src/tftLCD.c ****         LCD_WriteReg(0xD431,0x33);
1819:Drivers/LCD_FMC/src/tftLCD.c ****         LCD_WriteReg(0xD432,0x03);
1820:Drivers/LCD_FMC/src/tftLCD.c ****         LCD_WriteReg(0xD433,0x6D);
1821:Drivers/LCD_FMC/src/tftLCD.c ****         LCD_WriteReg(0xD500,0x00);
1822:Drivers/LCD_FMC/src/tftLCD.c ****         LCD_WriteReg(0xD501,0x33);
1823:Drivers/LCD_FMC/src/tftLCD.c ****         LCD_WriteReg(0xD502,0x00);
1824:Drivers/LCD_FMC/src/tftLCD.c ****         LCD_WriteReg(0xD503,0x34);
1825:Drivers/LCD_FMC/src/tftLCD.c ****         LCD_WriteReg(0xD504,0x00);
1826:Drivers/LCD_FMC/src/tftLCD.c ****         LCD_WriteReg(0xD505,0x3A);
1827:Drivers/LCD_FMC/src/tftLCD.c ****         LCD_WriteReg(0xD506,0x00);
1828:Drivers/LCD_FMC/src/tftLCD.c ****         LCD_WriteReg(0xD507,0x4A);
1829:Drivers/LCD_FMC/src/tftLCD.c ****         LCD_WriteReg(0xD508,0x00);
1830:Drivers/LCD_FMC/src/tftLCD.c ****         LCD_WriteReg(0xD509,0x5C);
1831:Drivers/LCD_FMC/src/tftLCD.c ****         LCD_WriteReg(0xD50A,0x00);
1832:Drivers/LCD_FMC/src/tftLCD.c ****         LCD_WriteReg(0xD50B,0x81);
1833:Drivers/LCD_FMC/src/tftLCD.c **** 
1834:Drivers/LCD_FMC/src/tftLCD.c ****         LCD_WriteReg(0xD50C,0x00);
1835:Drivers/LCD_FMC/src/tftLCD.c ****         LCD_WriteReg(0xD50D,0xA6);
1836:Drivers/LCD_FMC/src/tftLCD.c ****         LCD_WriteReg(0xD50E,0x00);
1837:Drivers/LCD_FMC/src/tftLCD.c ****         LCD_WriteReg(0xD50F,0xE5);
1838:Drivers/LCD_FMC/src/tftLCD.c ****         LCD_WriteReg(0xD510,0x01);
1839:Drivers/LCD_FMC/src/tftLCD.c ****         LCD_WriteReg(0xD511,0x13);
1840:Drivers/LCD_FMC/src/tftLCD.c ****         LCD_WriteReg(0xD512,0x01);
1841:Drivers/LCD_FMC/src/tftLCD.c ****         LCD_WriteReg(0xD513,0x54);
1842:Drivers/LCD_FMC/src/tftLCD.c ****         LCD_WriteReg(0xD514,0x01);
1843:Drivers/LCD_FMC/src/tftLCD.c ****         LCD_WriteReg(0xD515,0x82);
1844:Drivers/LCD_FMC/src/tftLCD.c ****         LCD_WriteReg(0xD516,0x01);
1845:Drivers/LCD_FMC/src/tftLCD.c ****         LCD_WriteReg(0xD517,0xCA);
1846:Drivers/LCD_FMC/src/tftLCD.c ****         LCD_WriteReg(0xD518,0x02);
1847:Drivers/LCD_FMC/src/tftLCD.c ****         LCD_WriteReg(0xD519,0x00);
1848:Drivers/LCD_FMC/src/tftLCD.c ****         LCD_WriteReg(0xD51A,0x02);
1849:Drivers/LCD_FMC/src/tftLCD.c ****         LCD_WriteReg(0xD51B,0x01);
1850:Drivers/LCD_FMC/src/tftLCD.c ****         LCD_WriteReg(0xD51C,0x02);
1851:Drivers/LCD_FMC/src/tftLCD.c ****         LCD_WriteReg(0xD51D,0x34);
1852:Drivers/LCD_FMC/src/tftLCD.c ****         LCD_WriteReg(0xD51E,0x02);
1853:Drivers/LCD_FMC/src/tftLCD.c ****         LCD_WriteReg(0xD51F,0x67);
1854:Drivers/LCD_FMC/src/tftLCD.c ****         LCD_WriteReg(0xD520,0x02);
1855:Drivers/LCD_FMC/src/tftLCD.c ****         LCD_WriteReg(0xD521,0x84);
ARM GAS  C:\usertemp\ccUDQ5mr.s 			page 75


1856:Drivers/LCD_FMC/src/tftLCD.c ****         LCD_WriteReg(0xD522,0x02);
1857:Drivers/LCD_FMC/src/tftLCD.c ****         LCD_WriteReg(0xD523,0xA4);
1858:Drivers/LCD_FMC/src/tftLCD.c ****         LCD_WriteReg(0xD524,0x02);
1859:Drivers/LCD_FMC/src/tftLCD.c ****         LCD_WriteReg(0xD525,0xB7);
1860:Drivers/LCD_FMC/src/tftLCD.c ****         LCD_WriteReg(0xD526,0x02);
1861:Drivers/LCD_FMC/src/tftLCD.c ****         LCD_WriteReg(0xD527,0xCF);
1862:Drivers/LCD_FMC/src/tftLCD.c ****         LCD_WriteReg(0xD528,0x02);
1863:Drivers/LCD_FMC/src/tftLCD.c ****         LCD_WriteReg(0xD529,0xDE);
1864:Drivers/LCD_FMC/src/tftLCD.c ****         LCD_WriteReg(0xD52A,0x02);
1865:Drivers/LCD_FMC/src/tftLCD.c ****         LCD_WriteReg(0xD52B,0xF2);
1866:Drivers/LCD_FMC/src/tftLCD.c ****         LCD_WriteReg(0xD52C,0x02);
1867:Drivers/LCD_FMC/src/tftLCD.c ****         LCD_WriteReg(0xD52D,0xFE);
1868:Drivers/LCD_FMC/src/tftLCD.c ****         LCD_WriteReg(0xD52E,0x03);
1869:Drivers/LCD_FMC/src/tftLCD.c ****         LCD_WriteReg(0xD52F,0x10);
1870:Drivers/LCD_FMC/src/tftLCD.c ****         LCD_WriteReg(0xD530,0x03);
1871:Drivers/LCD_FMC/src/tftLCD.c ****         LCD_WriteReg(0xD531,0x33);
1872:Drivers/LCD_FMC/src/tftLCD.c ****         LCD_WriteReg(0xD532,0x03);
1873:Drivers/LCD_FMC/src/tftLCD.c ****         LCD_WriteReg(0xD533,0x6D);
1874:Drivers/LCD_FMC/src/tftLCD.c ****         LCD_WriteReg(0xD600,0x00);
1875:Drivers/LCD_FMC/src/tftLCD.c ****         LCD_WriteReg(0xD601,0x33);
1876:Drivers/LCD_FMC/src/tftLCD.c ****         LCD_WriteReg(0xD602,0x00);
1877:Drivers/LCD_FMC/src/tftLCD.c ****         LCD_WriteReg(0xD603,0x34);
1878:Drivers/LCD_FMC/src/tftLCD.c ****         LCD_WriteReg(0xD604,0x00);
1879:Drivers/LCD_FMC/src/tftLCD.c ****         LCD_WriteReg(0xD605,0x3A);
1880:Drivers/LCD_FMC/src/tftLCD.c ****         LCD_WriteReg(0xD606,0x00);
1881:Drivers/LCD_FMC/src/tftLCD.c ****         LCD_WriteReg(0xD607,0x4A);
1882:Drivers/LCD_FMC/src/tftLCD.c ****         LCD_WriteReg(0xD608,0x00);
1883:Drivers/LCD_FMC/src/tftLCD.c ****         LCD_WriteReg(0xD609,0x5C);
1884:Drivers/LCD_FMC/src/tftLCD.c ****         LCD_WriteReg(0xD60A,0x00);
1885:Drivers/LCD_FMC/src/tftLCD.c ****         LCD_WriteReg(0xD60B,0x81);
1886:Drivers/LCD_FMC/src/tftLCD.c **** 
1887:Drivers/LCD_FMC/src/tftLCD.c ****         LCD_WriteReg(0xD60C,0x00);
1888:Drivers/LCD_FMC/src/tftLCD.c ****         LCD_WriteReg(0xD60D,0xA6);
1889:Drivers/LCD_FMC/src/tftLCD.c ****         LCD_WriteReg(0xD60E,0x00);
1890:Drivers/LCD_FMC/src/tftLCD.c ****         LCD_WriteReg(0xD60F,0xE5);
1891:Drivers/LCD_FMC/src/tftLCD.c ****         LCD_WriteReg(0xD610,0x01);
1892:Drivers/LCD_FMC/src/tftLCD.c ****         LCD_WriteReg(0xD611,0x13);
1893:Drivers/LCD_FMC/src/tftLCD.c ****         LCD_WriteReg(0xD612,0x01);
1894:Drivers/LCD_FMC/src/tftLCD.c ****         LCD_WriteReg(0xD613,0x54);
1895:Drivers/LCD_FMC/src/tftLCD.c ****         LCD_WriteReg(0xD614,0x01);
1896:Drivers/LCD_FMC/src/tftLCD.c ****         LCD_WriteReg(0xD615,0x82);
1897:Drivers/LCD_FMC/src/tftLCD.c ****         LCD_WriteReg(0xD616,0x01);
1898:Drivers/LCD_FMC/src/tftLCD.c ****         LCD_WriteReg(0xD617,0xCA);
1899:Drivers/LCD_FMC/src/tftLCD.c ****         LCD_WriteReg(0xD618,0x02);
1900:Drivers/LCD_FMC/src/tftLCD.c ****         LCD_WriteReg(0xD619,0x00);
1901:Drivers/LCD_FMC/src/tftLCD.c ****         LCD_WriteReg(0xD61A,0x02);
1902:Drivers/LCD_FMC/src/tftLCD.c ****         LCD_WriteReg(0xD61B,0x01);
1903:Drivers/LCD_FMC/src/tftLCD.c ****         LCD_WriteReg(0xD61C,0x02);
1904:Drivers/LCD_FMC/src/tftLCD.c ****         LCD_WriteReg(0xD61D,0x34);
1905:Drivers/LCD_FMC/src/tftLCD.c ****         LCD_WriteReg(0xD61E,0x02);
1906:Drivers/LCD_FMC/src/tftLCD.c ****         LCD_WriteReg(0xD61F,0x67);
1907:Drivers/LCD_FMC/src/tftLCD.c ****         LCD_WriteReg(0xD620,0x02);
1908:Drivers/LCD_FMC/src/tftLCD.c ****         LCD_WriteReg(0xD621,0x84);
1909:Drivers/LCD_FMC/src/tftLCD.c ****         LCD_WriteReg(0xD622,0x02);
1910:Drivers/LCD_FMC/src/tftLCD.c ****         LCD_WriteReg(0xD623,0xA4);
1911:Drivers/LCD_FMC/src/tftLCD.c ****         LCD_WriteReg(0xD624,0x02);
1912:Drivers/LCD_FMC/src/tftLCD.c ****         LCD_WriteReg(0xD625,0xB7);
ARM GAS  C:\usertemp\ccUDQ5mr.s 			page 76


1913:Drivers/LCD_FMC/src/tftLCD.c ****         LCD_WriteReg(0xD626,0x02);
1914:Drivers/LCD_FMC/src/tftLCD.c ****         LCD_WriteReg(0xD627,0xCF);
1915:Drivers/LCD_FMC/src/tftLCD.c ****         LCD_WriteReg(0xD628,0x02);
1916:Drivers/LCD_FMC/src/tftLCD.c ****         LCD_WriteReg(0xD629,0xDE);
1917:Drivers/LCD_FMC/src/tftLCD.c ****         LCD_WriteReg(0xD62A,0x02);
1918:Drivers/LCD_FMC/src/tftLCD.c ****         LCD_WriteReg(0xD62B,0xF2);
1919:Drivers/LCD_FMC/src/tftLCD.c ****         LCD_WriteReg(0xD62C,0x02);
1920:Drivers/LCD_FMC/src/tftLCD.c ****         LCD_WriteReg(0xD62D,0xFE);
1921:Drivers/LCD_FMC/src/tftLCD.c ****         LCD_WriteReg(0xD62E,0x03);
1922:Drivers/LCD_FMC/src/tftLCD.c ****         LCD_WriteReg(0xD62F,0x10);
1923:Drivers/LCD_FMC/src/tftLCD.c ****         LCD_WriteReg(0xD630,0x03);
1924:Drivers/LCD_FMC/src/tftLCD.c ****         LCD_WriteReg(0xD631,0x33);
1925:Drivers/LCD_FMC/src/tftLCD.c ****         LCD_WriteReg(0xD632,0x03);
1926:Drivers/LCD_FMC/src/tftLCD.c ****         LCD_WriteReg(0xD633,0x6D);
1927:Drivers/LCD_FMC/src/tftLCD.c ****         //LV2 Page 0 enable
1928:Drivers/LCD_FMC/src/tftLCD.c ****         LCD_WriteReg(0xF000,0x55);
1929:Drivers/LCD_FMC/src/tftLCD.c ****         LCD_WriteReg(0xF001,0xAA);
1930:Drivers/LCD_FMC/src/tftLCD.c ****         LCD_WriteReg(0xF002,0x52);
1931:Drivers/LCD_FMC/src/tftLCD.c ****         LCD_WriteReg(0xF003,0x08);
1932:Drivers/LCD_FMC/src/tftLCD.c ****         LCD_WriteReg(0xF004,0x00);
1933:Drivers/LCD_FMC/src/tftLCD.c ****         //Display control
1934:Drivers/LCD_FMC/src/tftLCD.c ****         LCD_WriteReg(0xB100, 0xCC);
1935:Drivers/LCD_FMC/src/tftLCD.c ****         LCD_WriteReg(0xB101, 0x00);
1936:Drivers/LCD_FMC/src/tftLCD.c ****         //Source hold time
1937:Drivers/LCD_FMC/src/tftLCD.c ****         LCD_WriteReg(0xB600,0x05);
1938:Drivers/LCD_FMC/src/tftLCD.c ****         //Gate EQ control
1939:Drivers/LCD_FMC/src/tftLCD.c ****         LCD_WriteReg(0xB700,0x70);
1940:Drivers/LCD_FMC/src/tftLCD.c ****         LCD_WriteReg(0xB701,0x70);
1941:Drivers/LCD_FMC/src/tftLCD.c ****         //Source EQ control (Mode 2)
1942:Drivers/LCD_FMC/src/tftLCD.c ****         LCD_WriteReg(0xB800,0x01);
1943:Drivers/LCD_FMC/src/tftLCD.c ****         LCD_WriteReg(0xB801,0x03);
1944:Drivers/LCD_FMC/src/tftLCD.c ****         LCD_WriteReg(0xB802,0x03);
1945:Drivers/LCD_FMC/src/tftLCD.c ****         LCD_WriteReg(0xB803,0x03);
1946:Drivers/LCD_FMC/src/tftLCD.c ****         //Inversion mode (2-dot)
1947:Drivers/LCD_FMC/src/tftLCD.c ****         LCD_WriteReg(0xBC00,0x02);
1948:Drivers/LCD_FMC/src/tftLCD.c ****         LCD_WriteReg(0xBC01,0x00);
1949:Drivers/LCD_FMC/src/tftLCD.c ****         LCD_WriteReg(0xBC02,0x00);
1950:Drivers/LCD_FMC/src/tftLCD.c ****         //Timing control 4H w/ 4-delay
1951:Drivers/LCD_FMC/src/tftLCD.c ****         LCD_WriteReg(0xC900,0xD0);
1952:Drivers/LCD_FMC/src/tftLCD.c ****         LCD_WriteReg(0xC901,0x02);
1953:Drivers/LCD_FMC/src/tftLCD.c ****         LCD_WriteReg(0xC902,0x50);
1954:Drivers/LCD_FMC/src/tftLCD.c ****         LCD_WriteReg(0xC903,0x50);
1955:Drivers/LCD_FMC/src/tftLCD.c ****         LCD_WriteReg(0xC904,0x50);
1956:Drivers/LCD_FMC/src/tftLCD.c ****         LCD_WriteReg(0x3500,0x00);
1957:Drivers/LCD_FMC/src/tftLCD.c ****         LCD_WriteReg(0x3A00,0x55);  //16-bit/pixel
1958:Drivers/LCD_FMC/src/tftLCD.c ****         LCD_WR_REG(0x1100);
1959:Drivers/LCD_FMC/src/tftLCD.c ****         delay_us(120);
1960:Drivers/LCD_FMC/src/tftLCD.c ****         LCD_WR_REG(0x2900);
1961:Drivers/LCD_FMC/src/tftLCD.c ****     }
1962:Drivers/LCD_FMC/src/tftLCD.c ****     else if(lcddev.id==0X1963)
1963:Drivers/LCD_FMC/src/tftLCD.c ****     {
1964:Drivers/LCD_FMC/src/tftLCD.c ****         LCD_WR_REG(0xE2);		//Set PLL with OSC = 10MHz (hardware),	Multiplier N = 35, 250MHz < VCO <
1965:Drivers/LCD_FMC/src/tftLCD.c ****         LCD_WR_DATA(0x1D);		//参数1
1966:Drivers/LCD_FMC/src/tftLCD.c ****         LCD_WR_DATA(0x02);		//参数2 Divider M = 2, PLL = 300/(M+1) = 100MHz
1967:Drivers/LCD_FMC/src/tftLCD.c ****         LCD_WR_DATA(0x04);		//参数3 Validate M and N values
1968:Drivers/LCD_FMC/src/tftLCD.c ****         delay_us(100);
1969:Drivers/LCD_FMC/src/tftLCD.c ****         LCD_WR_REG(0xE0);		// Start PLL command
ARM GAS  C:\usertemp\ccUDQ5mr.s 			page 77


1970:Drivers/LCD_FMC/src/tftLCD.c ****         LCD_WR_DATA(0x01);		// enable PLL
1971:Drivers/LCD_FMC/src/tftLCD.c ****         HAL_Delay(10);
1972:Drivers/LCD_FMC/src/tftLCD.c ****         LCD_WR_REG(0xE0);		// Start PLL command again
1973:Drivers/LCD_FMC/src/tftLCD.c ****         LCD_WR_DATA(0x03);		// now, use PLL output as system clock
1974:Drivers/LCD_FMC/src/tftLCD.c ****         HAL_Delay(12);
1975:Drivers/LCD_FMC/src/tftLCD.c ****         LCD_WR_REG(0x01);		//软复位
1976:Drivers/LCD_FMC/src/tftLCD.c ****         HAL_Delay(10);
1977:Drivers/LCD_FMC/src/tftLCD.c **** 
1978:Drivers/LCD_FMC/src/tftLCD.c ****         LCD_WR_REG(0xE6);		//设置像素频率,33Mhz
1979:Drivers/LCD_FMC/src/tftLCD.c ****         LCD_WR_DATA(0x2F);
1980:Drivers/LCD_FMC/src/tftLCD.c ****         LCD_WR_DATA(0xFF);
1981:Drivers/LCD_FMC/src/tftLCD.c ****         LCD_WR_DATA(0xFF);
1982:Drivers/LCD_FMC/src/tftLCD.c **** 
1983:Drivers/LCD_FMC/src/tftLCD.c ****         LCD_WR_REG(0xB0);		//设置LCD模式
1984:Drivers/LCD_FMC/src/tftLCD.c ****         LCD_WR_DATA(0x20);		//24位模式
1985:Drivers/LCD_FMC/src/tftLCD.c ****         LCD_WR_DATA(0x00);		//TFT 模式
1986:Drivers/LCD_FMC/src/tftLCD.c **** 
1987:Drivers/LCD_FMC/src/tftLCD.c ****         LCD_WR_DATA((SSD_HOR_RESOLUTION-1)>>8);//设置LCD水平像素
1988:Drivers/LCD_FMC/src/tftLCD.c ****         LCD_WR_DATA(SSD_HOR_RESOLUTION-1);
1989:Drivers/LCD_FMC/src/tftLCD.c ****         LCD_WR_DATA((SSD_VER_RESOLUTION-1)>>8);//设置LCD垂直像素
1990:Drivers/LCD_FMC/src/tftLCD.c ****         LCD_WR_DATA(SSD_VER_RESOLUTION-1);
1991:Drivers/LCD_FMC/src/tftLCD.c ****         LCD_WR_DATA(0x00);		//RGB序列
1992:Drivers/LCD_FMC/src/tftLCD.c **** 
1993:Drivers/LCD_FMC/src/tftLCD.c ****         LCD_WR_REG(0xB4);		//Set horizontal period
1994:Drivers/LCD_FMC/src/tftLCD.c ****         LCD_WR_DATA((SSD_HT-1)>>8);
1995:Drivers/LCD_FMC/src/tftLCD.c ****         LCD_WR_DATA(SSD_HT-1);
1996:Drivers/LCD_FMC/src/tftLCD.c ****         LCD_WR_DATA(SSD_HPS>>8);
1997:Drivers/LCD_FMC/src/tftLCD.c ****         LCD_WR_DATA(SSD_HPS);
1998:Drivers/LCD_FMC/src/tftLCD.c ****         LCD_WR_DATA(SSD_HOR_PULSE_WIDTH-1);
1999:Drivers/LCD_FMC/src/tftLCD.c ****         LCD_WR_DATA(0x00);
2000:Drivers/LCD_FMC/src/tftLCD.c ****         LCD_WR_DATA(0x00);
2001:Drivers/LCD_FMC/src/tftLCD.c ****         LCD_WR_DATA(0x00);
2002:Drivers/LCD_FMC/src/tftLCD.c ****         LCD_WR_REG(0xB6);		//Set vertical period
2003:Drivers/LCD_FMC/src/tftLCD.c ****         LCD_WR_DATA((SSD_VT-1)>>8);
2004:Drivers/LCD_FMC/src/tftLCD.c ****         LCD_WR_DATA(SSD_VT-1);
2005:Drivers/LCD_FMC/src/tftLCD.c ****         LCD_WR_DATA(SSD_VPS>>8);
2006:Drivers/LCD_FMC/src/tftLCD.c ****         LCD_WR_DATA(SSD_VPS);
2007:Drivers/LCD_FMC/src/tftLCD.c ****         LCD_WR_DATA(SSD_VER_FRONT_PORCH-1);
2008:Drivers/LCD_FMC/src/tftLCD.c ****         LCD_WR_DATA(0x00);
2009:Drivers/LCD_FMC/src/tftLCD.c ****         LCD_WR_DATA(0x00);
2010:Drivers/LCD_FMC/src/tftLCD.c **** 
2011:Drivers/LCD_FMC/src/tftLCD.c ****         LCD_WR_REG(0xF0);	//设置SSD1963与CPU接口为16bit
2012:Drivers/LCD_FMC/src/tftLCD.c ****         LCD_WR_DATA(0x03);	//16-bit(565 format) data for 16bpp
2013:Drivers/LCD_FMC/src/tftLCD.c **** 
2014:Drivers/LCD_FMC/src/tftLCD.c ****         LCD_WR_REG(0x29);	//开启显示
2015:Drivers/LCD_FMC/src/tftLCD.c ****         //设置PWM输出  背光通过占空比可调
2016:Drivers/LCD_FMC/src/tftLCD.c ****         LCD_WR_REG(0xD0);	//设置自动白平衡DBC
2017:Drivers/LCD_FMC/src/tftLCD.c ****         LCD_WR_DATA(0x00);	//disable
2018:Drivers/LCD_FMC/src/tftLCD.c **** 
2019:Drivers/LCD_FMC/src/tftLCD.c ****         LCD_WR_REG(0xBE);	//配置PWM输出
2020:Drivers/LCD_FMC/src/tftLCD.c ****         LCD_WR_DATA(0x05);	//1设置PWM频率
2021:Drivers/LCD_FMC/src/tftLCD.c ****         LCD_WR_DATA(0xFE);	//2设置PWM占空比
2022:Drivers/LCD_FMC/src/tftLCD.c ****         LCD_WR_DATA(0x01);	//3设置C
2023:Drivers/LCD_FMC/src/tftLCD.c ****         LCD_WR_DATA(0x00);	//4设置D
2024:Drivers/LCD_FMC/src/tftLCD.c ****         LCD_WR_DATA(0x00);	//5设置E
2025:Drivers/LCD_FMC/src/tftLCD.c ****         LCD_WR_DATA(0x00);	//6设置F
2026:Drivers/LCD_FMC/src/tftLCD.c **** 
ARM GAS  C:\usertemp\ccUDQ5mr.s 			page 78


2027:Drivers/LCD_FMC/src/tftLCD.c ****         LCD_WR_REG(0xB8);	//设置GPIO配置
2028:Drivers/LCD_FMC/src/tftLCD.c ****         LCD_WR_DATA(0x03);	//2个IO口设置成输出
2029:Drivers/LCD_FMC/src/tftLCD.c ****         LCD_WR_DATA(0x01);	//GPIO使用正常的IO功能
2030:Drivers/LCD_FMC/src/tftLCD.c ****         LCD_WR_REG(0xBA);
2031:Drivers/LCD_FMC/src/tftLCD.c ****         LCD_WR_DATA(0X01);	//GPIO[1:0]=01,控制LCD方向
2032:Drivers/LCD_FMC/src/tftLCD.c **** 
2033:Drivers/LCD_FMC/src/tftLCD.c ****         LCD_SSD_BackLightSet(100);//背光设置为最亮
2034:Drivers/LCD_FMC/src/tftLCD.c ****     }
2035:Drivers/LCD_FMC/src/tftLCD.c ****     //初始化完成以后,提速
2036:Drivers/LCD_FMC/src/tftLCD.c ****     if(lcddev.id==0X9341||lcddev.id==0X5310||lcddev.id==0X5510||lcddev.id==0X1963)//如果是这几
2037:Drivers/LCD_FMC/src/tftLCD.c ****     {
2038:Drivers/LCD_FMC/src/tftLCD.c ****         //重新配置写时序控制寄存器的时序
2039:Drivers/LCD_FMC/src/tftLCD.c ****         FMC_Bank1E_R->BWTR[6]&=~(0XF<<0);//地址建立时间(ADDSET)清零
2040:Drivers/LCD_FMC/src/tftLCD.c ****         FMC_Bank1E_R->BWTR[6]&=~(0XF<<8);//数据保存时间清零
2041:Drivers/LCD_FMC/src/tftLCD.c ****         FMC_Bank1E_R->BWTR[6]|=3<<0;		//地址建立时间(ADDSET)为3个HCLK =18ns
2042:Drivers/LCD_FMC/src/tftLCD.c ****         FMC_Bank1E_R->BWTR[6]|=2<<8; 	//数据保存时间(DATAST)为6ns*3个HCLK=18ns
2043:Drivers/LCD_FMC/src/tftLCD.c ****     }
2044:Drivers/LCD_FMC/src/tftLCD.c ****     LCD_Display_Dir(0);		//默认为竖屏
2045:Drivers/LCD_FMC/src/tftLCD.c ****     //HAL_GPIO_WritePin(LCD_BLK_GPIO_Port, LCD_BLK_Pin, GPIO_PIN_SET);						//点亮背光
2046:Drivers/LCD_FMC/src/tftLCD.c ****     LCD_Clear(WHITE);
2047:Drivers/LCD_FMC/src/tftLCD.c **** }
2048:Drivers/LCD_FMC/src/tftLCD.c **** //清屏函数
2049:Drivers/LCD_FMC/src/tftLCD.c **** //color:要清屏的填充色
2050:Drivers/LCD_FMC/src/tftLCD.c **** void LCD_Clear(uint32_t color)
2051:Drivers/LCD_FMC/src/tftLCD.c **** {
 2110              		.loc 1 2051 1 view -0
 2111              		.cfi_startproc
 2112              		@ args = 0, pretend = 0, frame = 0
 2113              		@ frame_needed = 0, uses_anonymous_args = 0
 2114              		.loc 1 2051 1 is_stmt 0 view .LVU569
 2115 0000 38B5     		push	{r3, r4, r5, lr}
 2116              	.LCFI20:
 2117              		.cfi_def_cfa_offset 16
 2118              		.cfi_offset 3, -16
 2119              		.cfi_offset 4, -12
 2120              		.cfi_offset 5, -8
 2121              		.cfi_offset 14, -4
 2122 0002 0546     		mov	r5, r0
2052:Drivers/LCD_FMC/src/tftLCD.c ****     uint32_t index=0;
 2123              		.loc 1 2052 5 is_stmt 1 view .LVU570
 2124              	.LVL221:
2053:Drivers/LCD_FMC/src/tftLCD.c ****     uint32_t totalpoint=lcddev.width;
 2125              		.loc 1 2053 5 view .LVU571
 2126              		.loc 1 2053 31 is_stmt 0 view .LVU572
 2127 0004 0A4B     		ldr	r3, .L142
 2128 0006 1A88     		ldrh	r2, [r3]
 2129              	.LVL222:
2054:Drivers/LCD_FMC/src/tftLCD.c ****     totalpoint*=lcddev.height; 			//得到总点数
 2130              		.loc 1 2054 5 is_stmt 1 view .LVU573
 2131              		.loc 1 2054 23 is_stmt 0 view .LVU574
 2132 0008 5C88     		ldrh	r4, [r3, #2]
 2133              		.loc 1 2054 15 view .LVU575
 2134 000a 02FB04F4 		mul	r4, r2, r4
 2135              	.LVL223:
2055:Drivers/LCD_FMC/src/tftLCD.c ****     LCD_SetCursor(0x00,0x0000);			//设置光标位置
 2136              		.loc 1 2055 5 is_stmt 1 view .LVU576
 2137 000e 0021     		movs	r1, #0
ARM GAS  C:\usertemp\ccUDQ5mr.s 			page 79


 2138 0010 0846     		mov	r0, r1
 2139              	.LVL224:
 2140              		.loc 1 2055 5 is_stmt 0 view .LVU577
 2141 0012 FFF7FEFF 		bl	LCD_SetCursor
 2142              	.LVL225:
2056:Drivers/LCD_FMC/src/tftLCD.c ****     LCD_WriteRAM_Prepare();     		//开始写入GRAM
 2143              		.loc 1 2056 5 is_stmt 1 view .LVU578
 2144 0016 FFF7FEFF 		bl	LCD_WriteRAM_Prepare
 2145              	.LVL226:
2057:Drivers/LCD_FMC/src/tftLCD.c ****     for(index=0; index<totalpoint; index++)
 2146              		.loc 1 2057 5 view .LVU579
 2147              		.loc 1 2057 14 is_stmt 0 view .LVU580
 2148 001a 0022     		movs	r2, #0
 2149              		.loc 1 2057 5 view .LVU581
 2150 001c 05E0     		b	.L139
 2151              	.LVL227:
 2152              	.L140:
2058:Drivers/LCD_FMC/src/tftLCD.c ****     {
2059:Drivers/LCD_FMC/src/tftLCD.c ****         LCD->LCD_RAM=color;
 2153              		.loc 1 2059 9 is_stmt 1 view .LVU582
 2154              		.loc 1 2059 21 is_stmt 0 view .LVU583
 2155 001e ABB2     		uxth	r3, r5
 2156 0020 4FF0C841 		mov	r1, #1677721600
 2157 0024 A1F88030 		strh	r3, [r1, #128]	@ movhi
2057:Drivers/LCD_FMC/src/tftLCD.c ****     for(index=0; index<totalpoint; index++)
 2158              		.loc 1 2057 41 is_stmt 1 discriminator 3 view .LVU584
 2159 0028 0132     		adds	r2, r2, #1
 2160              	.LVL228:
 2161              	.L139:
2057:Drivers/LCD_FMC/src/tftLCD.c ****     for(index=0; index<totalpoint; index++)
 2162              		.loc 1 2057 23 discriminator 1 view .LVU585
 2163 002a A242     		cmp	r2, r4
 2164 002c F7D3     		bcc	.L140
2060:Drivers/LCD_FMC/src/tftLCD.c ****     }
2061:Drivers/LCD_FMC/src/tftLCD.c **** }
 2165              		.loc 1 2061 1 is_stmt 0 view .LVU586
 2166 002e 38BD     		pop	{r3, r4, r5, pc}
 2167              	.LVL229:
 2168              	.L143:
 2169              		.loc 1 2061 1 view .LVU587
 2170              		.align	2
 2171              	.L142:
 2172 0030 00000000 		.word	lcddev
 2173              		.cfi_endproc
 2174              	.LFE354:
 2176              		.section	.text.LCD_Init,"ax",%progbits
 2177              		.align	1
 2178              		.global	LCD_Init
 2179              		.syntax unified
 2180              		.thumb
 2181              		.thumb_func
 2183              	LCD_Init:
 2184              	.LFB353:
 595:Drivers/LCD_FMC/src/tftLCD.c ****     //尝试9341 ID的读取
 2185              		.loc 1 595 1 is_stmt 1 view -0
 2186              		.cfi_startproc
 2187              		@ args = 0, pretend = 0, frame = 0
ARM GAS  C:\usertemp\ccUDQ5mr.s 			page 80


 2188              		@ frame_needed = 0, uses_anonymous_args = 0
 2189 0000 10B5     		push	{r4, lr}
 2190              	.LCFI21:
 2191              		.cfi_def_cfa_offset 8
 2192              		.cfi_offset 4, -8
 2193              		.cfi_offset 14, -4
 597:Drivers/LCD_FMC/src/tftLCD.c ****     lcddev.id = LCD_RD_DATA();	//dummy read
 2194              		.loc 1 597 4 view .LVU589
 2195 0002 D320     		movs	r0, #211
 2196 0004 FFF7FEFF 		bl	LCD_WR_REG
 2197              	.LVL230:
 598:Drivers/LCD_FMC/src/tftLCD.c ****     lcddev.id = LCD_RD_DATA();	//读到0X00
 2198              		.loc 1 598 5 view .LVU590
 598:Drivers/LCD_FMC/src/tftLCD.c ****     lcddev.id = LCD_RD_DATA();	//读到0X00
 2199              		.loc 1 598 17 is_stmt 0 view .LVU591
 2200 0008 FFF7FEFF 		bl	LCD_RD_DATA
 2201              	.LVL231:
 598:Drivers/LCD_FMC/src/tftLCD.c ****     lcddev.id = LCD_RD_DATA();	//读到0X00
 2202              		.loc 1 598 15 discriminator 1 view .LVU592
 2203 000c 8A4C     		ldr	r4, .L162
 2204 000e A080     		strh	r0, [r4, #4]	@ movhi
 599:Drivers/LCD_FMC/src/tftLCD.c ****     lcddev.id = LCD_RD_DATA();   	//读取93
 2205              		.loc 1 599 5 is_stmt 1 view .LVU593
 599:Drivers/LCD_FMC/src/tftLCD.c ****     lcddev.id = LCD_RD_DATA();   	//读取93
 2206              		.loc 1 599 17 is_stmt 0 view .LVU594
 2207 0010 FFF7FEFF 		bl	LCD_RD_DATA
 2208              	.LVL232:
 599:Drivers/LCD_FMC/src/tftLCD.c ****     lcddev.id = LCD_RD_DATA();   	//读取93
 2209              		.loc 1 599 15 discriminator 1 view .LVU595
 2210 0014 A080     		strh	r0, [r4, #4]	@ movhi
 600:Drivers/LCD_FMC/src/tftLCD.c ****     lcddev.id <<= 8;
 2211              		.loc 1 600 5 is_stmt 1 view .LVU596
 600:Drivers/LCD_FMC/src/tftLCD.c ****     lcddev.id <<= 8;
 2212              		.loc 1 600 17 is_stmt 0 view .LVU597
 2213 0016 FFF7FEFF 		bl	LCD_RD_DATA
 2214              	.LVL233:
 600:Drivers/LCD_FMC/src/tftLCD.c ****     lcddev.id <<= 8;
 2215              		.loc 1 600 15 discriminator 1 view .LVU598
 2216 001a A080     		strh	r0, [r4, #4]	@ movhi
 601:Drivers/LCD_FMC/src/tftLCD.c ****     lcddev.id |= LCD_RD_DATA();  	//读取41
 2217              		.loc 1 601 5 is_stmt 1 view .LVU599
 601:Drivers/LCD_FMC/src/tftLCD.c ****     lcddev.id |= LCD_RD_DATA();  	//读取41
 2218              		.loc 1 601 15 is_stmt 0 view .LVU600
 2219 001c 0002     		lsls	r0, r0, #8
 2220 001e A080     		strh	r0, [r4, #4]	@ movhi
 602:Drivers/LCD_FMC/src/tftLCD.c **** 
 2221              		.loc 1 602 5 is_stmt 1 view .LVU601
 602:Drivers/LCD_FMC/src/tftLCD.c **** 
 2222              		.loc 1 602 18 is_stmt 0 view .LVU602
 2223 0020 FFF7FEFF 		bl	LCD_RD_DATA
 2224              	.LVL234:
 602:Drivers/LCD_FMC/src/tftLCD.c **** 
 2225              		.loc 1 602 11 discriminator 1 view .LVU603
 2226 0024 A388     		ldrh	r3, [r4, #4]
 602:Drivers/LCD_FMC/src/tftLCD.c **** 
 2227              		.loc 1 602 15 discriminator 1 view .LVU604
 2228 0026 1843     		orrs	r0, r0, r3
ARM GAS  C:\usertemp\ccUDQ5mr.s 			page 81


 2229 0028 80B2     		uxth	r0, r0
 2230 002a A080     		strh	r0, [r4, #4]	@ movhi
 604:Drivers/LCD_FMC/src/tftLCD.c ****     {
 2231              		.loc 1 604 5 is_stmt 1 view .LVU605
 604:Drivers/LCD_FMC/src/tftLCD.c ****     {
 2232              		.loc 1 604 8 is_stmt 0 view .LVU606
 2233 002c 49F24133 		movw	r3, #37697
 2234 0030 9842     		cmp	r0, r3
 2235 0032 45D1     		bne	.L155
 2236              	.L145:
 683:Drivers/LCD_FMC/src/tftLCD.c ****     {
 2237              		.loc 1 683 5 is_stmt 1 view .LVU607
 683:Drivers/LCD_FMC/src/tftLCD.c ****     {
 2238              		.loc 1 683 14 is_stmt 0 view .LVU608
 2239 0034 804B     		ldr	r3, .L162
 2240 0036 9B88     		ldrh	r3, [r3, #4]
 683:Drivers/LCD_FMC/src/tftLCD.c ****     {
 2241              		.loc 1 683 7 view .LVU609
 2242 0038 49F24132 		movw	r2, #37697
 2243 003c 9342     		cmp	r3, r2
 2244 003e 00F0FF80 		beq	.L156
 778:Drivers/LCD_FMC/src/tftLCD.c ****     {
 2245              		.loc 1 778 10 is_stmt 1 view .LVU610
 778:Drivers/LCD_FMC/src/tftLCD.c ****     {
 2246              		.loc 1 778 12 is_stmt 0 view .LVU611
 2247 0042 47F28972 		movw	r2, #30601
 2248 0046 9342     		cmp	r3, r2
 2249 0048 00F00F82 		beq	.L157
 869:Drivers/LCD_FMC/src/tftLCD.c ****     {
 2250              		.loc 1 869 10 is_stmt 1 view .LVU612
 869:Drivers/LCD_FMC/src/tftLCD.c ****     {
 2251              		.loc 1 869 12 is_stmt 0 view .LVU613
 2252 004c 45F21032 		movw	r2, #21264
 2253 0050 9342     		cmp	r3, r2
 2254 0052 00F0DD82 		beq	.L158
1549:Drivers/LCD_FMC/src/tftLCD.c ****     {
 2255              		.loc 1 1549 10 is_stmt 1 view .LVU614
1549:Drivers/LCD_FMC/src/tftLCD.c ****     {
 2256              		.loc 1 1549 12 is_stmt 0 view .LVU615
 2257 0056 45F21052 		movw	r2, #21776
 2258 005a 9342     		cmp	r3, r2
 2259 005c 01F05182 		beq	.L159
1962:Drivers/LCD_FMC/src/tftLCD.c ****     {
 2260              		.loc 1 1962 10 is_stmt 1 view .LVU616
1962:Drivers/LCD_FMC/src/tftLCD.c ****     {
 2261              		.loc 1 1962 12 is_stmt 0 view .LVU617
 2262 0060 41F66312 		movw	r2, #6499
 2263 0064 9342     		cmp	r3, r2
 2264 0066 02F0CA81 		beq	.L160
 2265              	.L148:
2036:Drivers/LCD_FMC/src/tftLCD.c ****     {
 2266              		.loc 1 2036 5 is_stmt 1 view .LVU618
2036:Drivers/LCD_FMC/src/tftLCD.c ****     {
 2267              		.loc 1 2036 14 is_stmt 0 view .LVU619
 2268 006a 734B     		ldr	r3, .L162
 2269 006c 9B88     		ldrh	r3, [r3, #4]
2036:Drivers/LCD_FMC/src/tftLCD.c ****     {
ARM GAS  C:\usertemp\ccUDQ5mr.s 			page 82


 2270              		.loc 1 2036 7 view .LVU620
 2271 006e 49F24131 		movw	r1, #37697
 2272 0072 45F21032 		movw	r2, #21264
 2273 0076 9342     		cmp	r3, r2
 2274 0078 18BF     		it	ne
 2275 007a 8B42     		cmpne	r3, r1
 2276 007c 07D0     		beq	.L152
2036:Drivers/LCD_FMC/src/tftLCD.c ****     {
 2277              		.loc 1 2036 44 discriminator 1 view .LVU621
 2278 007e 45F21052 		movw	r2, #21776
 2279 0082 9342     		cmp	r3, r2
 2280 0084 03D0     		beq	.L152
2036:Drivers/LCD_FMC/src/tftLCD.c ****     {
 2281              		.loc 1 2036 63 discriminator 2 view .LVU622
 2282 0086 41F66312 		movw	r2, #6499
 2283 008a 9342     		cmp	r3, r2
 2284 008c 10D1     		bne	.L153
 2285              	.L152:
2039:Drivers/LCD_FMC/src/tftLCD.c ****         FMC_Bank1E_R->BWTR[6]&=~(0XF<<8);//数据保存时间清零
 2286              		.loc 1 2039 9 is_stmt 1 view .LVU623
2039:Drivers/LCD_FMC/src/tftLCD.c ****         FMC_Bank1E_R->BWTR[6]&=~(0XF<<8);//数据保存时间清零
 2287              		.loc 1 2039 27 is_stmt 0 view .LVU624
 2288 008e 6B4B     		ldr	r3, .L162+4
 2289 0090 DA69     		ldr	r2, [r3, #28]
2039:Drivers/LCD_FMC/src/tftLCD.c ****         FMC_Bank1E_R->BWTR[6]&=~(0XF<<8);//数据保存时间清零
 2290              		.loc 1 2039 30 view .LVU625
 2291 0092 22F00F02 		bic	r2, r2, #15
 2292 0096 DA61     		str	r2, [r3, #28]
2040:Drivers/LCD_FMC/src/tftLCD.c ****         FMC_Bank1E_R->BWTR[6]|=3<<0;		//地址建立时间(ADDSET)为3个HCLK =18ns
 2293              		.loc 1 2040 9 is_stmt 1 view .LVU626
2040:Drivers/LCD_FMC/src/tftLCD.c ****         FMC_Bank1E_R->BWTR[6]|=3<<0;		//地址建立时间(ADDSET)为3个HCLK =18ns
 2294              		.loc 1 2040 27 is_stmt 0 view .LVU627
 2295 0098 DA69     		ldr	r2, [r3, #28]
2040:Drivers/LCD_FMC/src/tftLCD.c ****         FMC_Bank1E_R->BWTR[6]|=3<<0;		//地址建立时间(ADDSET)为3个HCLK =18ns
 2296              		.loc 1 2040 30 view .LVU628
 2297 009a 22F47062 		bic	r2, r2, #3840
 2298 009e DA61     		str	r2, [r3, #28]
2041:Drivers/LCD_FMC/src/tftLCD.c ****         FMC_Bank1E_R->BWTR[6]|=2<<8; 	//数据保存时间(DATAST)为6ns*3个HCLK=18ns
 2299              		.loc 1 2041 9 is_stmt 1 view .LVU629
2041:Drivers/LCD_FMC/src/tftLCD.c ****         FMC_Bank1E_R->BWTR[6]|=2<<8; 	//数据保存时间(DATAST)为6ns*3个HCLK=18ns
 2300              		.loc 1 2041 27 is_stmt 0 view .LVU630
 2301 00a0 DA69     		ldr	r2, [r3, #28]
2041:Drivers/LCD_FMC/src/tftLCD.c ****         FMC_Bank1E_R->BWTR[6]|=2<<8; 	//数据保存时间(DATAST)为6ns*3个HCLK=18ns
 2302              		.loc 1 2041 30 view .LVU631
 2303 00a2 42F00302 		orr	r2, r2, #3
 2304 00a6 DA61     		str	r2, [r3, #28]
2042:Drivers/LCD_FMC/src/tftLCD.c ****     }
 2305              		.loc 1 2042 9 is_stmt 1 view .LVU632
2042:Drivers/LCD_FMC/src/tftLCD.c ****     }
 2306              		.loc 1 2042 27 is_stmt 0 view .LVU633
 2307 00a8 DA69     		ldr	r2, [r3, #28]
2042:Drivers/LCD_FMC/src/tftLCD.c ****     }
 2308              		.loc 1 2042 30 view .LVU634
 2309 00aa 42F40072 		orr	r2, r2, #512
 2310 00ae DA61     		str	r2, [r3, #28]
 2311              	.L153:
2044:Drivers/LCD_FMC/src/tftLCD.c ****     //HAL_GPIO_WritePin(LCD_BLK_GPIO_Port, LCD_BLK_Pin, GPIO_PIN_SET);						//点亮背光
ARM GAS  C:\usertemp\ccUDQ5mr.s 			page 83


 2312              		.loc 1 2044 5 is_stmt 1 view .LVU635
 2313 00b0 0020     		movs	r0, #0
 2314 00b2 FFF7FEFF 		bl	LCD_Display_Dir
 2315              	.LVL235:
2046:Drivers/LCD_FMC/src/tftLCD.c **** }
 2316              		.loc 1 2046 5 view .LVU636
 2317 00b6 4FF6FF70 		movw	r0, #65535
 2318 00ba FFF7FEFF 		bl	LCD_Clear
 2319              	.LVL236:
2047:Drivers/LCD_FMC/src/tftLCD.c **** //清屏函数
 2320              		.loc 1 2047 1 is_stmt 0 view .LVU637
 2321 00be 10BD     		pop	{r4, pc}
 2322              	.L155:
 606:Drivers/LCD_FMC/src/tftLCD.c ****         lcddev.id = LCD_RD_DATA();      //dummy read
 2323              		.loc 1 606 9 is_stmt 1 view .LVU638
 2324 00c0 0420     		movs	r0, #4
 2325 00c2 FFF7FEFF 		bl	LCD_WR_REG
 2326              	.LVL237:
 607:Drivers/LCD_FMC/src/tftLCD.c ****         lcddev.id = LCD_RD_DATA();      //读到0X85
 2327              		.loc 1 607 9 view .LVU639
 607:Drivers/LCD_FMC/src/tftLCD.c ****         lcddev.id = LCD_RD_DATA();      //读到0X85
 2328              		.loc 1 607 21 is_stmt 0 view .LVU640
 2329 00c6 FFF7FEFF 		bl	LCD_RD_DATA
 2330              	.LVL238:
 607:Drivers/LCD_FMC/src/tftLCD.c ****         lcddev.id = LCD_RD_DATA();      //读到0X85
 2331              		.loc 1 607 19 discriminator 1 view .LVU641
 2332 00ca A080     		strh	r0, [r4, #4]	@ movhi
 608:Drivers/LCD_FMC/src/tftLCD.c ****         lcddev.id = LCD_RD_DATA();      //读取0X85
 2333              		.loc 1 608 9 is_stmt 1 view .LVU642
 608:Drivers/LCD_FMC/src/tftLCD.c ****         lcddev.id = LCD_RD_DATA();      //读取0X85
 2334              		.loc 1 608 21 is_stmt 0 view .LVU643
 2335 00cc FFF7FEFF 		bl	LCD_RD_DATA
 2336              	.LVL239:
 608:Drivers/LCD_FMC/src/tftLCD.c ****         lcddev.id = LCD_RD_DATA();      //读取0X85
 2337              		.loc 1 608 19 discriminator 1 view .LVU644
 2338 00d0 A080     		strh	r0, [r4, #4]	@ movhi
 609:Drivers/LCD_FMC/src/tftLCD.c ****         lcddev.id <<= 8;
 2339              		.loc 1 609 9 is_stmt 1 view .LVU645
 609:Drivers/LCD_FMC/src/tftLCD.c ****         lcddev.id <<= 8;
 2340              		.loc 1 609 21 is_stmt 0 view .LVU646
 2341 00d2 FFF7FEFF 		bl	LCD_RD_DATA
 2342              	.LVL240:
 609:Drivers/LCD_FMC/src/tftLCD.c ****         lcddev.id <<= 8;
 2343              		.loc 1 609 19 discriminator 1 view .LVU647
 2344 00d6 A080     		strh	r0, [r4, #4]	@ movhi
 610:Drivers/LCD_FMC/src/tftLCD.c ****         lcddev.id |= LCD_RD_DATA();     //读取0X52
 2345              		.loc 1 610 9 is_stmt 1 view .LVU648
 610:Drivers/LCD_FMC/src/tftLCD.c ****         lcddev.id |= LCD_RD_DATA();     //读取0X52
 2346              		.loc 1 610 19 is_stmt 0 view .LVU649
 2347 00d8 0002     		lsls	r0, r0, #8
 2348 00da A080     		strh	r0, [r4, #4]	@ movhi
 611:Drivers/LCD_FMC/src/tftLCD.c **** 
 2349              		.loc 1 611 9 is_stmt 1 view .LVU650
 611:Drivers/LCD_FMC/src/tftLCD.c **** 
 2350              		.loc 1 611 22 is_stmt 0 view .LVU651
 2351 00dc FFF7FEFF 		bl	LCD_RD_DATA
 2352              	.LVL241:
ARM GAS  C:\usertemp\ccUDQ5mr.s 			page 84


 611:Drivers/LCD_FMC/src/tftLCD.c **** 
 2353              		.loc 1 611 15 discriminator 1 view .LVU652
 2354 00e0 A388     		ldrh	r3, [r4, #4]
 611:Drivers/LCD_FMC/src/tftLCD.c **** 
 2355              		.loc 1 611 19 discriminator 1 view .LVU653
 2356 00e2 1843     		orrs	r0, r0, r3
 2357 00e4 80B2     		uxth	r0, r0
 2358 00e6 A080     		strh	r0, [r4, #4]	@ movhi
 613:Drivers/LCD_FMC/src/tftLCD.c ****         {
 2359              		.loc 1 613 9 is_stmt 1 view .LVU654
 613:Drivers/LCD_FMC/src/tftLCD.c ****         {
 2360              		.loc 1 613 12 is_stmt 0 view .LVU655
 2361 00e8 48F25253 		movw	r3, #34130
 2362 00ec 9842     		cmp	r0, r3
 2363 00ee 00F09F80 		beq	.L161
 2364              	.L146:
 618:Drivers/LCD_FMC/src/tftLCD.c ****         {
 2365              		.loc 1 618 9 is_stmt 1 view .LVU656
 618:Drivers/LCD_FMC/src/tftLCD.c ****         {
 2366              		.loc 1 618 19 is_stmt 0 view .LVU657
 2367 00f2 514B     		ldr	r3, .L162
 2368 00f4 9A88     		ldrh	r2, [r3, #4]
 618:Drivers/LCD_FMC/src/tftLCD.c ****         {
 2369              		.loc 1 618 12 view .LVU658
 2370 00f6 47F28973 		movw	r3, #30601
 2371 00fa 9A42     		cmp	r2, r3
 2372 00fc 9AD0     		beq	.L145
 620:Drivers/LCD_FMC/src/tftLCD.c ****             lcddev.id = LCD_RD_DATA(); //dummy read
 2373              		.loc 1 620 13 is_stmt 1 view .LVU659
 2374 00fe D420     		movs	r0, #212
 2375 0100 FFF7FEFF 		bl	LCD_WR_REG
 2376              	.LVL242:
 621:Drivers/LCD_FMC/src/tftLCD.c ****             lcddev.id = LCD_RD_DATA(); //读回0X01
 2377              		.loc 1 621 13 view .LVU660
 621:Drivers/LCD_FMC/src/tftLCD.c ****             lcddev.id = LCD_RD_DATA(); //读回0X01
 2378              		.loc 1 621 25 is_stmt 0 view .LVU661
 2379 0104 FFF7FEFF 		bl	LCD_RD_DATA
 2380              	.LVL243:
 621:Drivers/LCD_FMC/src/tftLCD.c ****             lcddev.id = LCD_RD_DATA(); //读回0X01
 2381              		.loc 1 621 23 discriminator 1 view .LVU662
 2382 0108 4B4C     		ldr	r4, .L162
 2383 010a A080     		strh	r0, [r4, #4]	@ movhi
 622:Drivers/LCD_FMC/src/tftLCD.c ****             lcddev.id = LCD_RD_DATA(); //读回0X53
 2384              		.loc 1 622 13 is_stmt 1 view .LVU663
 622:Drivers/LCD_FMC/src/tftLCD.c ****             lcddev.id = LCD_RD_DATA(); //读回0X53
 2385              		.loc 1 622 25 is_stmt 0 view .LVU664
 2386 010c FFF7FEFF 		bl	LCD_RD_DATA
 2387              	.LVL244:
 622:Drivers/LCD_FMC/src/tftLCD.c ****             lcddev.id = LCD_RD_DATA(); //读回0X53
 2388              		.loc 1 622 23 discriminator 1 view .LVU665
 2389 0110 A080     		strh	r0, [r4, #4]	@ movhi
 623:Drivers/LCD_FMC/src/tftLCD.c ****             lcddev.id <<= 8;
 2390              		.loc 1 623 13 is_stmt 1 view .LVU666
 623:Drivers/LCD_FMC/src/tftLCD.c ****             lcddev.id <<= 8;
 2391              		.loc 1 623 25 is_stmt 0 view .LVU667
 2392 0112 FFF7FEFF 		bl	LCD_RD_DATA
 2393              	.LVL245:
ARM GAS  C:\usertemp\ccUDQ5mr.s 			page 85


 623:Drivers/LCD_FMC/src/tftLCD.c ****             lcddev.id <<= 8;
 2394              		.loc 1 623 23 discriminator 1 view .LVU668
 2395 0116 A080     		strh	r0, [r4, #4]	@ movhi
 624:Drivers/LCD_FMC/src/tftLCD.c ****             lcddev.id |= LCD_RD_DATA();	//这里读回0X10
 2396              		.loc 1 624 13 is_stmt 1 view .LVU669
 624:Drivers/LCD_FMC/src/tftLCD.c ****             lcddev.id |= LCD_RD_DATA();	//这里读回0X10
 2397              		.loc 1 624 23 is_stmt 0 view .LVU670
 2398 0118 0002     		lsls	r0, r0, #8
 2399 011a A080     		strh	r0, [r4, #4]	@ movhi
 625:Drivers/LCD_FMC/src/tftLCD.c **** 
 2400              		.loc 1 625 13 is_stmt 1 view .LVU671
 625:Drivers/LCD_FMC/src/tftLCD.c **** 
 2401              		.loc 1 625 26 is_stmt 0 view .LVU672
 2402 011c FFF7FEFF 		bl	LCD_RD_DATA
 2403              	.LVL246:
 625:Drivers/LCD_FMC/src/tftLCD.c **** 
 2404              		.loc 1 625 19 discriminator 1 view .LVU673
 2405 0120 A388     		ldrh	r3, [r4, #4]
 625:Drivers/LCD_FMC/src/tftLCD.c **** 
 2406              		.loc 1 625 23 discriminator 1 view .LVU674
 2407 0122 1843     		orrs	r0, r0, r3
 2408 0124 80B2     		uxth	r0, r0
 2409 0126 A080     		strh	r0, [r4, #4]	@ movhi
 627:Drivers/LCD_FMC/src/tftLCD.c ****             {
 2410              		.loc 1 627 13 is_stmt 1 view .LVU675
 627:Drivers/LCD_FMC/src/tftLCD.c ****             {
 2411              		.loc 1 627 16 is_stmt 0 view .LVU676
 2412 0128 45F21033 		movw	r3, #21264
 2413 012c 9842     		cmp	r0, r3
 2414 012e 81D0     		beq	.L145
 629:Drivers/LCD_FMC/src/tftLCD.c ****                 lcddev.id = LCD_RD_DATA();  /* dummy read */
 2415              		.loc 1 629 17 is_stmt 1 view .LVU677
 2416 0130 D320     		movs	r0, #211
 2417 0132 FFF7FEFF 		bl	LCD_WR_REG
 2418              	.LVL247:
 630:Drivers/LCD_FMC/src/tftLCD.c ****                 lcddev.id = LCD_RD_DATA();  /* 读到0X00 */
 2419              		.loc 1 630 17 view .LVU678
 630:Drivers/LCD_FMC/src/tftLCD.c ****                 lcddev.id = LCD_RD_DATA();  /* 读到0X00 */
 2420              		.loc 1 630 29 is_stmt 0 view .LVU679
 2421 0136 FFF7FEFF 		bl	LCD_RD_DATA
 2422              	.LVL248:
 630:Drivers/LCD_FMC/src/tftLCD.c ****                 lcddev.id = LCD_RD_DATA();  /* 读到0X00 */
 2423              		.loc 1 630 27 discriminator 1 view .LVU680
 2424 013a A080     		strh	r0, [r4, #4]	@ movhi
 631:Drivers/LCD_FMC/src/tftLCD.c ****                 lcddev.id = LCD_RD_DATA();  /* 读取0X77 */
 2425              		.loc 1 631 17 is_stmt 1 view .LVU681
 631:Drivers/LCD_FMC/src/tftLCD.c ****                 lcddev.id = LCD_RD_DATA();  /* 读取0X77 */
 2426              		.loc 1 631 29 is_stmt 0 view .LVU682
 2427 013c FFF7FEFF 		bl	LCD_RD_DATA
 2428              	.LVL249:
 631:Drivers/LCD_FMC/src/tftLCD.c ****                 lcddev.id = LCD_RD_DATA();  /* 读取0X77 */
 2429              		.loc 1 631 27 discriminator 1 view .LVU683
 2430 0140 A080     		strh	r0, [r4, #4]	@ movhi
 632:Drivers/LCD_FMC/src/tftLCD.c ****                 lcddev.id <<= 8;
 2431              		.loc 1 632 17 is_stmt 1 view .LVU684
 632:Drivers/LCD_FMC/src/tftLCD.c ****                 lcddev.id <<= 8;
 2432              		.loc 1 632 29 is_stmt 0 view .LVU685
ARM GAS  C:\usertemp\ccUDQ5mr.s 			page 86


 2433 0142 FFF7FEFF 		bl	LCD_RD_DATA
 2434              	.LVL250:
 632:Drivers/LCD_FMC/src/tftLCD.c ****                 lcddev.id <<= 8;
 2435              		.loc 1 632 27 discriminator 1 view .LVU686
 2436 0146 A080     		strh	r0, [r4, #4]	@ movhi
 633:Drivers/LCD_FMC/src/tftLCD.c ****                 lcddev.id |= LCD_RD_DATA(); /* 读取0X96 */
 2437              		.loc 1 633 17 is_stmt 1 view .LVU687
 633:Drivers/LCD_FMC/src/tftLCD.c ****                 lcddev.id |= LCD_RD_DATA(); /* 读取0X96 */
 2438              		.loc 1 633 27 is_stmt 0 view .LVU688
 2439 0148 0002     		lsls	r0, r0, #8
 2440 014a A080     		strh	r0, [r4, #4]	@ movhi
 634:Drivers/LCD_FMC/src/tftLCD.c ****                 
 2441              		.loc 1 634 17 is_stmt 1 view .LVU689
 634:Drivers/LCD_FMC/src/tftLCD.c ****                 
 2442              		.loc 1 634 30 is_stmt 0 view .LVU690
 2443 014c FFF7FEFF 		bl	LCD_RD_DATA
 2444              	.LVL251:
 634:Drivers/LCD_FMC/src/tftLCD.c ****                 
 2445              		.loc 1 634 23 discriminator 1 view .LVU691
 2446 0150 A388     		ldrh	r3, [r4, #4]
 634:Drivers/LCD_FMC/src/tftLCD.c ****                 
 2447              		.loc 1 634 27 discriminator 1 view .LVU692
 2448 0152 1843     		orrs	r0, r0, r3
 2449 0154 80B2     		uxth	r0, r0
 2450 0156 A080     		strh	r0, [r4, #4]	@ movhi
 636:Drivers/LCD_FMC/src/tftLCD.c ****                 {
 2451              		.loc 1 636 17 is_stmt 1 view .LVU693
 636:Drivers/LCD_FMC/src/tftLCD.c ****                 {
 2452              		.loc 1 636 20 is_stmt 0 view .LVU694
 2453 0158 47F29673 		movw	r3, #30614
 2454 015c 9842     		cmp	r0, r3
 2455 015e 3FF469AF 		beq	.L145
 639:Drivers/LCD_FMC/src/tftLCD.c ****                     LCD_WriteReg(0xF001, 0x00AA);
 2456              		.loc 1 639 21 is_stmt 1 view .LVU695
 2457 0162 5521     		movs	r1, #85
 2458 0164 4FF47040 		mov	r0, #61440
 2459 0168 FFF7FEFF 		bl	LCD_WriteReg
 2460              	.LVL252:
 640:Drivers/LCD_FMC/src/tftLCD.c ****                     LCD_WriteReg(0xF002, 0x0052);
 2461              		.loc 1 640 21 view .LVU696
 2462 016c AA21     		movs	r1, #170
 2463 016e 4FF20100 		movw	r0, #61441
 2464 0172 FFF7FEFF 		bl	LCD_WriteReg
 2465              	.LVL253:
 641:Drivers/LCD_FMC/src/tftLCD.c ****                     LCD_WriteReg(0xF003, 0x0008);
 2466              		.loc 1 641 21 view .LVU697
 2467 0176 5221     		movs	r1, #82
 2468 0178 4FF20200 		movw	r0, #61442
 2469 017c FFF7FEFF 		bl	LCD_WriteReg
 2470              	.LVL254:
 642:Drivers/LCD_FMC/src/tftLCD.c ****                     LCD_WriteReg(0xF004, 0x0001);
 2471              		.loc 1 642 21 view .LVU698
 2472 0180 0821     		movs	r1, #8
 2473 0182 4FF20300 		movw	r0, #61443
 2474 0186 FFF7FEFF 		bl	LCD_WriteReg
 2475              	.LVL255:
 643:Drivers/LCD_FMC/src/tftLCD.c **** 
ARM GAS  C:\usertemp\ccUDQ5mr.s 			page 87


 2476              		.loc 1 643 21 view .LVU699
 2477 018a 0121     		movs	r1, #1
 2478 018c 4FF20400 		movw	r0, #61444
 2479 0190 FFF7FEFF 		bl	LCD_WriteReg
 2480              	.LVL256:
 645:Drivers/LCD_FMC/src/tftLCD.c ****                     lcddev.id = LCD_RD_DATA();      //读回0X55
 2481              		.loc 1 645 21 view .LVU700
 2482 0194 4FF44540 		mov	r0, #50432
 2483 0198 FFF7FEFF 		bl	LCD_WR_REG
 2484              	.LVL257:
 646:Drivers/LCD_FMC/src/tftLCD.c ****                     lcddev.id <<= 8;
 2485              		.loc 1 646 21 view .LVU701
 646:Drivers/LCD_FMC/src/tftLCD.c ****                     lcddev.id <<= 8;
 2486              		.loc 1 646 33 is_stmt 0 view .LVU702
 2487 019c FFF7FEFF 		bl	LCD_RD_DATA
 2488              	.LVL258:
 646:Drivers/LCD_FMC/src/tftLCD.c ****                     lcddev.id <<= 8;
 2489              		.loc 1 646 31 discriminator 1 view .LVU703
 2490 01a0 A080     		strh	r0, [r4, #4]	@ movhi
 647:Drivers/LCD_FMC/src/tftLCD.c **** 
 2491              		.loc 1 647 21 is_stmt 1 view .LVU704
 647:Drivers/LCD_FMC/src/tftLCD.c **** 
 2492              		.loc 1 647 31 is_stmt 0 view .LVU705
 2493 01a2 0002     		lsls	r0, r0, #8
 2494 01a4 A080     		strh	r0, [r4, #4]	@ movhi
 649:Drivers/LCD_FMC/src/tftLCD.c ****                     lcddev.id |= LCD_RD_DATA();     //读回0X10
 2495              		.loc 1 649 21 is_stmt 1 view .LVU706
 2496 01a6 4CF20150 		movw	r0, #50433
 2497 01aa FFF7FEFF 		bl	LCD_WR_REG
 2498              	.LVL259:
 650:Drivers/LCD_FMC/src/tftLCD.c ****                     HAL_Delay(5);
 2499              		.loc 1 650 21 view .LVU707
 650:Drivers/LCD_FMC/src/tftLCD.c ****                     HAL_Delay(5);
 2500              		.loc 1 650 34 is_stmt 0 view .LVU708
 2501 01ae FFF7FEFF 		bl	LCD_RD_DATA
 2502              	.LVL260:
 650:Drivers/LCD_FMC/src/tftLCD.c ****                     HAL_Delay(5);
 2503              		.loc 1 650 27 discriminator 1 view .LVU709
 2504 01b2 A388     		ldrh	r3, [r4, #4]
 650:Drivers/LCD_FMC/src/tftLCD.c ****                     HAL_Delay(5);
 2505              		.loc 1 650 31 discriminator 1 view .LVU710
 2506 01b4 0343     		orrs	r3, r3, r0
 2507 01b6 A380     		strh	r3, [r4, #4]	@ movhi
 651:Drivers/LCD_FMC/src/tftLCD.c ****                     
 2508              		.loc 1 651 21 is_stmt 1 view .LVU711
 2509 01b8 0520     		movs	r0, #5
 2510 01ba FFF7FEFF 		bl	HAL_Delay
 2511              	.LVL261:
 653:Drivers/LCD_FMC/src/tftLCD.c ****                     {
 2512              		.loc 1 653 21 view .LVU712
 653:Drivers/LCD_FMC/src/tftLCD.c ****                     {
 2513              		.loc 1 653 31 is_stmt 0 view .LVU713
 2514 01be A288     		ldrh	r2, [r4, #4]
 653:Drivers/LCD_FMC/src/tftLCD.c ****                     {
 2515              		.loc 1 653 24 view .LVU714
 2516 01c0 45F21053 		movw	r3, #21776
 2517 01c4 9A42     		cmp	r2, r3
ARM GAS  C:\usertemp\ccUDQ5mr.s 			page 88


 2518 01c6 3FF435AF 		beq	.L145
 655:Drivers/LCD_FMC/src/tftLCD.c ****                         lcddev.id = LCD_RD_DATA();  /* dummy read */
 2519              		.loc 1 655 25 is_stmt 1 view .LVU715
 2520 01ca D320     		movs	r0, #211
 2521 01cc FFF7FEFF 		bl	LCD_WR_REG
 2522              	.LVL262:
 656:Drivers/LCD_FMC/src/tftLCD.c ****                         lcddev.id = LCD_RD_DATA();  /* 读回0X00 */
 2523              		.loc 1 656 25 view .LVU716
 656:Drivers/LCD_FMC/src/tftLCD.c ****                         lcddev.id = LCD_RD_DATA();  /* 读回0X00 */
 2524              		.loc 1 656 37 is_stmt 0 view .LVU717
 2525 01d0 FFF7FEFF 		bl	LCD_RD_DATA
 2526              	.LVL263:
 656:Drivers/LCD_FMC/src/tftLCD.c ****                         lcddev.id = LCD_RD_DATA();  /* 读回0X00 */
 2527              		.loc 1 656 35 discriminator 1 view .LVU718
 2528 01d4 A080     		strh	r0, [r4, #4]	@ movhi
 657:Drivers/LCD_FMC/src/tftLCD.c ****                         lcddev.id = LCD_RD_DATA();  /* 读回0X98 */
 2529              		.loc 1 657 25 is_stmt 1 view .LVU719
 657:Drivers/LCD_FMC/src/tftLCD.c ****                         lcddev.id = LCD_RD_DATA();  /* 读回0X98 */
 2530              		.loc 1 657 37 is_stmt 0 view .LVU720
 2531 01d6 FFF7FEFF 		bl	LCD_RD_DATA
 2532              	.LVL264:
 657:Drivers/LCD_FMC/src/tftLCD.c ****                         lcddev.id = LCD_RD_DATA();  /* 读回0X98 */
 2533              		.loc 1 657 35 discriminator 1 view .LVU721
 2534 01da A080     		strh	r0, [r4, #4]	@ movhi
 658:Drivers/LCD_FMC/src/tftLCD.c ****                         lcddev.id <<= 8;
 2535              		.loc 1 658 25 is_stmt 1 view .LVU722
 658:Drivers/LCD_FMC/src/tftLCD.c ****                         lcddev.id <<= 8;
 2536              		.loc 1 658 37 is_stmt 0 view .LVU723
 2537 01dc FFF7FEFF 		bl	LCD_RD_DATA
 2538              	.LVL265:
 658:Drivers/LCD_FMC/src/tftLCD.c ****                         lcddev.id <<= 8;
 2539              		.loc 1 658 35 discriminator 1 view .LVU724
 2540 01e0 A080     		strh	r0, [r4, #4]	@ movhi
 659:Drivers/LCD_FMC/src/tftLCD.c ****                         lcddev.id |= LCD_RD_DATA(); /* 读回0X06 */
 2541              		.loc 1 659 25 is_stmt 1 view .LVU725
 659:Drivers/LCD_FMC/src/tftLCD.c ****                         lcddev.id |= LCD_RD_DATA(); /* 读回0X06 */
 2542              		.loc 1 659 35 is_stmt 0 view .LVU726
 2543 01e2 0002     		lsls	r0, r0, #8
 2544 01e4 A080     		strh	r0, [r4, #4]	@ movhi
 660:Drivers/LCD_FMC/src/tftLCD.c ****                         
 2545              		.loc 1 660 25 is_stmt 1 view .LVU727
 660:Drivers/LCD_FMC/src/tftLCD.c ****                         
 2546              		.loc 1 660 38 is_stmt 0 view .LVU728
 2547 01e6 FFF7FEFF 		bl	LCD_RD_DATA
 2548              	.LVL266:
 660:Drivers/LCD_FMC/src/tftLCD.c ****                         
 2549              		.loc 1 660 31 discriminator 1 view .LVU729
 2550 01ea A388     		ldrh	r3, [r4, #4]
 660:Drivers/LCD_FMC/src/tftLCD.c ****                         
 2551              		.loc 1 660 35 discriminator 1 view .LVU730
 2552 01ec 0343     		orrs	r3, r3, r0
 2553 01ee 9BB2     		uxth	r3, r3
 2554 01f0 A380     		strh	r3, [r4, #4]	@ movhi
 662:Drivers/LCD_FMC/src/tftLCD.c ****                         {
 2555              		.loc 1 662 25 is_stmt 1 view .LVU731
 662:Drivers/LCD_FMC/src/tftLCD.c ****                         {
 2556              		.loc 1 662 28 is_stmt 0 view .LVU732
ARM GAS  C:\usertemp\ccUDQ5mr.s 			page 89


 2557 01f2 49F60602 		movw	r2, #38918
 2558 01f6 9342     		cmp	r3, r2
 2559 01f8 3FF41CAF 		beq	.L145
 664:Drivers/LCD_FMC/src/tftLCD.c ****                             lcddev.id = LCD_RD_DATA();
 2560              		.loc 1 664 29 is_stmt 1 view .LVU733
 2561 01fc A120     		movs	r0, #161
 2562 01fe FFF7FEFF 		bl	LCD_WR_REG
 2563              	.LVL267:
 665:Drivers/LCD_FMC/src/tftLCD.c ****                             lcddev.id = LCD_RD_DATA();  //读回0X57
 2564              		.loc 1 665 29 view .LVU734
 665:Drivers/LCD_FMC/src/tftLCD.c ****                             lcddev.id = LCD_RD_DATA();  //读回0X57
 2565              		.loc 1 665 41 is_stmt 0 view .LVU735
 2566 0202 FFF7FEFF 		bl	LCD_RD_DATA
 2567              	.LVL268:
 665:Drivers/LCD_FMC/src/tftLCD.c ****                             lcddev.id = LCD_RD_DATA();  //读回0X57
 2568              		.loc 1 665 39 discriminator 1 view .LVU736
 2569 0206 A080     		strh	r0, [r4, #4]	@ movhi
 666:Drivers/LCD_FMC/src/tftLCD.c ****                             lcddev.id <<= 8;
 2570              		.loc 1 666 29 is_stmt 1 view .LVU737
 666:Drivers/LCD_FMC/src/tftLCD.c ****                             lcddev.id <<= 8;
 2571              		.loc 1 666 41 is_stmt 0 view .LVU738
 2572 0208 FFF7FEFF 		bl	LCD_RD_DATA
 2573              	.LVL269:
 666:Drivers/LCD_FMC/src/tftLCD.c ****                             lcddev.id <<= 8;
 2574              		.loc 1 666 39 discriminator 1 view .LVU739
 2575 020c A080     		strh	r0, [r4, #4]	@ movhi
 667:Drivers/LCD_FMC/src/tftLCD.c ****                             lcddev.id |= LCD_RD_DATA(); //读回0X61
 2576              		.loc 1 667 29 is_stmt 1 view .LVU740
 667:Drivers/LCD_FMC/src/tftLCD.c ****                             lcddev.id |= LCD_RD_DATA(); //读回0X61
 2577              		.loc 1 667 39 is_stmt 0 view .LVU741
 2578 020e 0002     		lsls	r0, r0, #8
 2579 0210 A080     		strh	r0, [r4, #4]	@ movhi
 668:Drivers/LCD_FMC/src/tftLCD.c **** 
 2580              		.loc 1 668 29 is_stmt 1 view .LVU742
 668:Drivers/LCD_FMC/src/tftLCD.c **** 
 2581              		.loc 1 668 42 is_stmt 0 view .LVU743
 2582 0212 FFF7FEFF 		bl	LCD_RD_DATA
 2583              	.LVL270:
 668:Drivers/LCD_FMC/src/tftLCD.c **** 
 2584              		.loc 1 668 35 discriminator 1 view .LVU744
 2585 0216 A388     		ldrh	r3, [r4, #4]
 668:Drivers/LCD_FMC/src/tftLCD.c **** 
 2586              		.loc 1 668 39 discriminator 1 view .LVU745
 2587 0218 0343     		orrs	r3, r3, r0
 2588 021a 9BB2     		uxth	r3, r3
 2589 021c A380     		strh	r3, [r4, #4]	@ movhi
 670:Drivers/LCD_FMC/src/tftLCD.c ****                         }
 2590              		.loc 1 670 29 is_stmt 1 view .LVU746
 670:Drivers/LCD_FMC/src/tftLCD.c ****                         }
 2591              		.loc 1 670 32 is_stmt 0 view .LVU747
 2592 021e 45F26172 		movw	r2, #22369
 2593 0222 9342     		cmp	r3, r2
 2594 0224 7FF406AF 		bne	.L145
 670:Drivers/LCD_FMC/src/tftLCD.c ****                         }
 2595              		.loc 1 670 53 is_stmt 1 discriminator 1 view .LVU748
 670:Drivers/LCD_FMC/src/tftLCD.c ****                         }
 2596              		.loc 1 670 63 is_stmt 0 discriminator 1 view .LVU749
ARM GAS  C:\usertemp\ccUDQ5mr.s 			page 90


 2597 0228 41F66312 		movw	r2, #6499
 2598 022c A280     		strh	r2, [r4, #4]	@ movhi
 2599 022e 01E7     		b	.L145
 2600              	.L161:
 615:Drivers/LCD_FMC/src/tftLCD.c ****         }
 2601              		.loc 1 615 13 is_stmt 1 view .LVU750
 615:Drivers/LCD_FMC/src/tftLCD.c ****         }
 2602              		.loc 1 615 23 is_stmt 0 view .LVU751
 2603 0230 47F28972 		movw	r2, #30601
 2604 0234 A280     		strh	r2, [r4, #4]	@ movhi
 2605 0236 5CE7     		b	.L146
 2606              	.L163:
 2607              		.align	2
 2608              	.L162:
 2609 0238 00000000 		.word	lcddev
 2610 023c 00410052 		.word	1375748352
 2611              	.L156:
 685:Drivers/LCD_FMC/src/tftLCD.c ****         LCD_WR_DATA(0x00);
 2612              		.loc 1 685 9 is_stmt 1 view .LVU752
 2613 0240 CF20     		movs	r0, #207
 2614 0242 FFF7FEFF 		bl	LCD_WR_REG
 2615              	.LVL271:
 686:Drivers/LCD_FMC/src/tftLCD.c ****         LCD_WR_DATA(0xC1);
 2616              		.loc 1 686 9 view .LVU753
 2617 0246 0020     		movs	r0, #0
 2618 0248 FFF7FEFF 		bl	LCD_WR_DATA
 2619              	.LVL272:
 687:Drivers/LCD_FMC/src/tftLCD.c ****         LCD_WR_DATA(0X30);
 2620              		.loc 1 687 9 view .LVU754
 2621 024c C120     		movs	r0, #193
 2622 024e FFF7FEFF 		bl	LCD_WR_DATA
 2623              	.LVL273:
 688:Drivers/LCD_FMC/src/tftLCD.c ****         LCD_WR_REG(0xED);
 2624              		.loc 1 688 9 view .LVU755
 2625 0252 3020     		movs	r0, #48
 2626 0254 FFF7FEFF 		bl	LCD_WR_DATA
 2627              	.LVL274:
 689:Drivers/LCD_FMC/src/tftLCD.c ****         LCD_WR_DATA(0x64);
 2628              		.loc 1 689 9 view .LVU756
 2629 0258 ED20     		movs	r0, #237
 2630 025a FFF7FEFF 		bl	LCD_WR_REG
 2631              	.LVL275:
 690:Drivers/LCD_FMC/src/tftLCD.c ****         LCD_WR_DATA(0x03);
 2632              		.loc 1 690 9 view .LVU757
 2633 025e 6420     		movs	r0, #100
 2634 0260 FFF7FEFF 		bl	LCD_WR_DATA
 2635              	.LVL276:
 691:Drivers/LCD_FMC/src/tftLCD.c ****         LCD_WR_DATA(0X12);
 2636              		.loc 1 691 9 view .LVU758
 2637 0264 0320     		movs	r0, #3
 2638 0266 FFF7FEFF 		bl	LCD_WR_DATA
 2639              	.LVL277:
 692:Drivers/LCD_FMC/src/tftLCD.c ****         LCD_WR_DATA(0X81);
 2640              		.loc 1 692 9 view .LVU759
 2641 026a 1220     		movs	r0, #18
 2642 026c FFF7FEFF 		bl	LCD_WR_DATA
 2643              	.LVL278:
ARM GAS  C:\usertemp\ccUDQ5mr.s 			page 91


 693:Drivers/LCD_FMC/src/tftLCD.c ****         LCD_WR_REG(0xE8);
 2644              		.loc 1 693 9 view .LVU760
 2645 0270 8120     		movs	r0, #129
 2646 0272 FFF7FEFF 		bl	LCD_WR_DATA
 2647              	.LVL279:
 694:Drivers/LCD_FMC/src/tftLCD.c ****         LCD_WR_DATA(0x85);
 2648              		.loc 1 694 9 view .LVU761
 2649 0276 E820     		movs	r0, #232
 2650 0278 FFF7FEFF 		bl	LCD_WR_REG
 2651              	.LVL280:
 695:Drivers/LCD_FMC/src/tftLCD.c ****         LCD_WR_DATA(0x10);
 2652              		.loc 1 695 9 view .LVU762
 2653 027c 8520     		movs	r0, #133
 2654 027e FFF7FEFF 		bl	LCD_WR_DATA
 2655              	.LVL281:
 696:Drivers/LCD_FMC/src/tftLCD.c ****         LCD_WR_DATA(0x7A);
 2656              		.loc 1 696 9 view .LVU763
 2657 0282 1020     		movs	r0, #16
 2658 0284 FFF7FEFF 		bl	LCD_WR_DATA
 2659              	.LVL282:
 697:Drivers/LCD_FMC/src/tftLCD.c ****         LCD_WR_REG(0xCB);
 2660              		.loc 1 697 9 view .LVU764
 2661 0288 7A20     		movs	r0, #122
 2662 028a FFF7FEFF 		bl	LCD_WR_DATA
 2663              	.LVL283:
 698:Drivers/LCD_FMC/src/tftLCD.c ****         LCD_WR_DATA(0x39);
 2664              		.loc 1 698 9 view .LVU765
 2665 028e CB20     		movs	r0, #203
 2666 0290 FFF7FEFF 		bl	LCD_WR_REG
 2667              	.LVL284:
 699:Drivers/LCD_FMC/src/tftLCD.c ****         LCD_WR_DATA(0x2C);
 2668              		.loc 1 699 9 view .LVU766
 2669 0294 3920     		movs	r0, #57
 2670 0296 FFF7FEFF 		bl	LCD_WR_DATA
 2671              	.LVL285:
 700:Drivers/LCD_FMC/src/tftLCD.c ****         LCD_WR_DATA(0x00);
 2672              		.loc 1 700 9 view .LVU767
 2673 029a 2C20     		movs	r0, #44
 2674 029c FFF7FEFF 		bl	LCD_WR_DATA
 2675              	.LVL286:
 701:Drivers/LCD_FMC/src/tftLCD.c ****         LCD_WR_DATA(0x34);
 2676              		.loc 1 701 9 view .LVU768
 2677 02a0 0020     		movs	r0, #0
 2678 02a2 FFF7FEFF 		bl	LCD_WR_DATA
 2679              	.LVL287:
 702:Drivers/LCD_FMC/src/tftLCD.c ****         LCD_WR_DATA(0x02);
 2680              		.loc 1 702 9 view .LVU769
 2681 02a6 3420     		movs	r0, #52
 2682 02a8 FFF7FEFF 		bl	LCD_WR_DATA
 2683              	.LVL288:
 703:Drivers/LCD_FMC/src/tftLCD.c ****         LCD_WR_REG(0xF7);
 2684              		.loc 1 703 9 view .LVU770
 2685 02ac 0220     		movs	r0, #2
 2686 02ae FFF7FEFF 		bl	LCD_WR_DATA
 2687              	.LVL289:
 704:Drivers/LCD_FMC/src/tftLCD.c ****         LCD_WR_DATA(0x20);
 2688              		.loc 1 704 9 view .LVU771
ARM GAS  C:\usertemp\ccUDQ5mr.s 			page 92


 2689 02b2 F720     		movs	r0, #247
 2690 02b4 FFF7FEFF 		bl	LCD_WR_REG
 2691              	.LVL290:
 705:Drivers/LCD_FMC/src/tftLCD.c ****         LCD_WR_REG(0xEA);
 2692              		.loc 1 705 9 view .LVU772
 2693 02b8 2020     		movs	r0, #32
 2694 02ba FFF7FEFF 		bl	LCD_WR_DATA
 2695              	.LVL291:
 706:Drivers/LCD_FMC/src/tftLCD.c ****         LCD_WR_DATA(0x00);
 2696              		.loc 1 706 9 view .LVU773
 2697 02be EA20     		movs	r0, #234
 2698 02c0 FFF7FEFF 		bl	LCD_WR_REG
 2699              	.LVL292:
 707:Drivers/LCD_FMC/src/tftLCD.c ****         LCD_WR_DATA(0x00);
 2700              		.loc 1 707 9 view .LVU774
 2701 02c4 0020     		movs	r0, #0
 2702 02c6 FFF7FEFF 		bl	LCD_WR_DATA
 2703              	.LVL293:
 708:Drivers/LCD_FMC/src/tftLCD.c ****         LCD_WR_REG(0xC0);    //Power control
 2704              		.loc 1 708 9 view .LVU775
 2705 02ca 0020     		movs	r0, #0
 2706 02cc FFF7FEFF 		bl	LCD_WR_DATA
 2707              	.LVL294:
 709:Drivers/LCD_FMC/src/tftLCD.c ****         LCD_WR_DATA(0x1B);   //VRH[5:0]
 2708              		.loc 1 709 9 view .LVU776
 2709 02d0 C020     		movs	r0, #192
 2710 02d2 FFF7FEFF 		bl	LCD_WR_REG
 2711              	.LVL295:
 710:Drivers/LCD_FMC/src/tftLCD.c ****         LCD_WR_REG(0xC1);    //Power control
 2712              		.loc 1 710 9 view .LVU777
 2713 02d6 1B20     		movs	r0, #27
 2714 02d8 FFF7FEFF 		bl	LCD_WR_DATA
 2715              	.LVL296:
 711:Drivers/LCD_FMC/src/tftLCD.c ****         LCD_WR_DATA(0x01);   //SAP[2:0];BT[3:0]
 2716              		.loc 1 711 9 view .LVU778
 2717 02dc C120     		movs	r0, #193
 2718 02de FFF7FEFF 		bl	LCD_WR_REG
 2719              	.LVL297:
 712:Drivers/LCD_FMC/src/tftLCD.c ****         LCD_WR_REG(0xC5);    //VCM control
 2720              		.loc 1 712 9 view .LVU779
 2721 02e2 0120     		movs	r0, #1
 2722 02e4 FFF7FEFF 		bl	LCD_WR_DATA
 2723              	.LVL298:
 713:Drivers/LCD_FMC/src/tftLCD.c ****         LCD_WR_DATA(0x30); 	 //3F
 2724              		.loc 1 713 9 view .LVU780
 2725 02e8 C520     		movs	r0, #197
 2726 02ea FFF7FEFF 		bl	LCD_WR_REG
 2727              	.LVL299:
 714:Drivers/LCD_FMC/src/tftLCD.c ****         LCD_WR_DATA(0x30); 	 //3C
 2728              		.loc 1 714 9 view .LVU781
 2729 02ee 3020     		movs	r0, #48
 2730 02f0 FFF7FEFF 		bl	LCD_WR_DATA
 2731              	.LVL300:
 715:Drivers/LCD_FMC/src/tftLCD.c ****         LCD_WR_REG(0xC7);    //VCM control2
 2732              		.loc 1 715 9 view .LVU782
 2733 02f4 3020     		movs	r0, #48
 2734 02f6 FFF7FEFF 		bl	LCD_WR_DATA
ARM GAS  C:\usertemp\ccUDQ5mr.s 			page 93


 2735              	.LVL301:
 716:Drivers/LCD_FMC/src/tftLCD.c ****         LCD_WR_DATA(0XB7);
 2736              		.loc 1 716 9 view .LVU783
 2737 02fa C720     		movs	r0, #199
 2738 02fc FFF7FEFF 		bl	LCD_WR_REG
 2739              	.LVL302:
 717:Drivers/LCD_FMC/src/tftLCD.c ****         LCD_WR_REG(0x36);    // Memory Access Control
 2740              		.loc 1 717 9 view .LVU784
 2741 0300 B720     		movs	r0, #183
 2742 0302 FFF7FEFF 		bl	LCD_WR_DATA
 2743              	.LVL303:
 718:Drivers/LCD_FMC/src/tftLCD.c ****         LCD_WR_DATA(0x48);
 2744              		.loc 1 718 9 view .LVU785
 2745 0306 3620     		movs	r0, #54
 2746 0308 FFF7FEFF 		bl	LCD_WR_REG
 2747              	.LVL304:
 719:Drivers/LCD_FMC/src/tftLCD.c ****         LCD_WR_REG(0x3A);
 2748              		.loc 1 719 9 view .LVU786
 2749 030c 4820     		movs	r0, #72
 2750 030e FFF7FEFF 		bl	LCD_WR_DATA
 2751              	.LVL305:
 720:Drivers/LCD_FMC/src/tftLCD.c ****         LCD_WR_DATA(0x55);
 2752              		.loc 1 720 9 view .LVU787
 2753 0312 3A20     		movs	r0, #58
 2754 0314 FFF7FEFF 		bl	LCD_WR_REG
 2755              	.LVL306:
 721:Drivers/LCD_FMC/src/tftLCD.c ****         LCD_WR_REG(0xB1);
 2756              		.loc 1 721 9 view .LVU788
 2757 0318 5520     		movs	r0, #85
 2758 031a FFF7FEFF 		bl	LCD_WR_DATA
 2759              	.LVL307:
 722:Drivers/LCD_FMC/src/tftLCD.c ****         LCD_WR_DATA(0x00);
 2760              		.loc 1 722 9 view .LVU789
 2761 031e B120     		movs	r0, #177
 2762 0320 FFF7FEFF 		bl	LCD_WR_REG
 2763              	.LVL308:
 723:Drivers/LCD_FMC/src/tftLCD.c ****         LCD_WR_DATA(0x1A);
 2764              		.loc 1 723 9 view .LVU790
 2765 0324 0020     		movs	r0, #0
 2766 0326 FFF7FEFF 		bl	LCD_WR_DATA
 2767              	.LVL309:
 724:Drivers/LCD_FMC/src/tftLCD.c ****         LCD_WR_REG(0xB6);    // Display Function Control
 2768              		.loc 1 724 9 view .LVU791
 2769 032a 1A20     		movs	r0, #26
 2770 032c FFF7FEFF 		bl	LCD_WR_DATA
 2771              	.LVL310:
 725:Drivers/LCD_FMC/src/tftLCD.c ****         LCD_WR_DATA(0x0A);
 2772              		.loc 1 725 9 view .LVU792
 2773 0330 B620     		movs	r0, #182
 2774 0332 FFF7FEFF 		bl	LCD_WR_REG
 2775              	.LVL311:
 726:Drivers/LCD_FMC/src/tftLCD.c ****         LCD_WR_DATA(0xA2);
 2776              		.loc 1 726 9 view .LVU793
 2777 0336 0A20     		movs	r0, #10
 2778 0338 FFF7FEFF 		bl	LCD_WR_DATA
 2779              	.LVL312:
 727:Drivers/LCD_FMC/src/tftLCD.c ****         LCD_WR_REG(0xF2);    // 3Gamma Function Disable
ARM GAS  C:\usertemp\ccUDQ5mr.s 			page 94


 2780              		.loc 1 727 9 view .LVU794
 2781 033c A220     		movs	r0, #162
 2782 033e FFF7FEFF 		bl	LCD_WR_DATA
 2783              	.LVL313:
 728:Drivers/LCD_FMC/src/tftLCD.c ****         LCD_WR_DATA(0x00);
 2784              		.loc 1 728 9 view .LVU795
 2785 0342 F220     		movs	r0, #242
 2786 0344 FFF7FEFF 		bl	LCD_WR_REG
 2787              	.LVL314:
 729:Drivers/LCD_FMC/src/tftLCD.c ****         LCD_WR_REG(0x26);    //Gamma curve selected
 2788              		.loc 1 729 9 view .LVU796
 2789 0348 0020     		movs	r0, #0
 2790 034a FFF7FEFF 		bl	LCD_WR_DATA
 2791              	.LVL315:
 730:Drivers/LCD_FMC/src/tftLCD.c ****         LCD_WR_DATA(0x01);
 2792              		.loc 1 730 9 view .LVU797
 2793 034e 2620     		movs	r0, #38
 2794 0350 FFF7FEFF 		bl	LCD_WR_REG
 2795              	.LVL316:
 731:Drivers/LCD_FMC/src/tftLCD.c ****         LCD_WR_REG(0xE0);    //Set Gamma
 2796              		.loc 1 731 9 view .LVU798
 2797 0354 0120     		movs	r0, #1
 2798 0356 FFF7FEFF 		bl	LCD_WR_DATA
 2799              	.LVL317:
 732:Drivers/LCD_FMC/src/tftLCD.c ****         LCD_WR_DATA(0x0F);
 2800              		.loc 1 732 9 view .LVU799
 2801 035a E020     		movs	r0, #224
 2802 035c FFF7FEFF 		bl	LCD_WR_REG
 2803              	.LVL318:
 733:Drivers/LCD_FMC/src/tftLCD.c ****         LCD_WR_DATA(0x2A);
 2804              		.loc 1 733 9 view .LVU800
 2805 0360 0F20     		movs	r0, #15
 2806 0362 FFF7FEFF 		bl	LCD_WR_DATA
 2807              	.LVL319:
 734:Drivers/LCD_FMC/src/tftLCD.c ****         LCD_WR_DATA(0x28);
 2808              		.loc 1 734 9 view .LVU801
 2809 0366 2A20     		movs	r0, #42
 2810 0368 FFF7FEFF 		bl	LCD_WR_DATA
 2811              	.LVL320:
 735:Drivers/LCD_FMC/src/tftLCD.c ****         LCD_WR_DATA(0x08);
 2812              		.loc 1 735 9 view .LVU802
 2813 036c 2820     		movs	r0, #40
 2814 036e FFF7FEFF 		bl	LCD_WR_DATA
 2815              	.LVL321:
 736:Drivers/LCD_FMC/src/tftLCD.c ****         LCD_WR_DATA(0x0E);
 2816              		.loc 1 736 9 view .LVU803
 2817 0372 0820     		movs	r0, #8
 2818 0374 FFF7FEFF 		bl	LCD_WR_DATA
 2819              	.LVL322:
 737:Drivers/LCD_FMC/src/tftLCD.c ****         LCD_WR_DATA(0x08);
 2820              		.loc 1 737 9 view .LVU804
 2821 0378 0E20     		movs	r0, #14
 2822 037a FFF7FEFF 		bl	LCD_WR_DATA
 2823              	.LVL323:
 738:Drivers/LCD_FMC/src/tftLCD.c ****         LCD_WR_DATA(0x54);
 2824              		.loc 1 738 9 view .LVU805
 2825 037e 0820     		movs	r0, #8
ARM GAS  C:\usertemp\ccUDQ5mr.s 			page 95


 2826 0380 FFF7FEFF 		bl	LCD_WR_DATA
 2827              	.LVL324:
 739:Drivers/LCD_FMC/src/tftLCD.c ****         LCD_WR_DATA(0XA9);
 2828              		.loc 1 739 9 view .LVU806
 2829 0384 5420     		movs	r0, #84
 2830 0386 FFF7FEFF 		bl	LCD_WR_DATA
 2831              	.LVL325:
 740:Drivers/LCD_FMC/src/tftLCD.c ****         LCD_WR_DATA(0x43);
 2832              		.loc 1 740 9 view .LVU807
 2833 038a A920     		movs	r0, #169
 2834 038c FFF7FEFF 		bl	LCD_WR_DATA
 2835              	.LVL326:
 741:Drivers/LCD_FMC/src/tftLCD.c ****         LCD_WR_DATA(0x0A);
 2836              		.loc 1 741 9 view .LVU808
 2837 0390 4320     		movs	r0, #67
 2838 0392 FFF7FEFF 		bl	LCD_WR_DATA
 2839              	.LVL327:
 742:Drivers/LCD_FMC/src/tftLCD.c ****         LCD_WR_DATA(0x0F);
 2840              		.loc 1 742 9 view .LVU809
 2841 0396 0A20     		movs	r0, #10
 2842 0398 FFF7FEFF 		bl	LCD_WR_DATA
 2843              	.LVL328:
 743:Drivers/LCD_FMC/src/tftLCD.c ****         LCD_WR_DATA(0x00);
 2844              		.loc 1 743 9 view .LVU810
 2845 039c 0F20     		movs	r0, #15
 2846 039e FFF7FEFF 		bl	LCD_WR_DATA
 2847              	.LVL329:
 744:Drivers/LCD_FMC/src/tftLCD.c ****         LCD_WR_DATA(0x00);
 2848              		.loc 1 744 9 view .LVU811
 2849 03a2 0020     		movs	r0, #0
 2850 03a4 FFF7FEFF 		bl	LCD_WR_DATA
 2851              	.LVL330:
 745:Drivers/LCD_FMC/src/tftLCD.c ****         LCD_WR_DATA(0x00);
 2852              		.loc 1 745 9 view .LVU812
 2853 03a8 0020     		movs	r0, #0
 2854 03aa FFF7FEFF 		bl	LCD_WR_DATA
 2855              	.LVL331:
 746:Drivers/LCD_FMC/src/tftLCD.c ****         LCD_WR_DATA(0x00);
 2856              		.loc 1 746 9 view .LVU813
 2857 03ae 0020     		movs	r0, #0
 2858 03b0 FFF7FEFF 		bl	LCD_WR_DATA
 2859              	.LVL332:
 747:Drivers/LCD_FMC/src/tftLCD.c ****         LCD_WR_REG(0XE1);    //Set Gamma
 2860              		.loc 1 747 9 view .LVU814
 2861 03b4 0020     		movs	r0, #0
 2862 03b6 FFF7FEFF 		bl	LCD_WR_DATA
 2863              	.LVL333:
 748:Drivers/LCD_FMC/src/tftLCD.c ****         LCD_WR_DATA(0x00);
 2864              		.loc 1 748 9 view .LVU815
 2865 03ba E120     		movs	r0, #225
 2866 03bc FFF7FEFF 		bl	LCD_WR_REG
 2867              	.LVL334:
 749:Drivers/LCD_FMC/src/tftLCD.c ****         LCD_WR_DATA(0x15);
 2868              		.loc 1 749 9 view .LVU816
 2869 03c0 0020     		movs	r0, #0
 2870 03c2 FFF7FEFF 		bl	LCD_WR_DATA
 2871              	.LVL335:
ARM GAS  C:\usertemp\ccUDQ5mr.s 			page 96


 750:Drivers/LCD_FMC/src/tftLCD.c ****         LCD_WR_DATA(0x17);
 2872              		.loc 1 750 9 view .LVU817
 2873 03c6 1520     		movs	r0, #21
 2874 03c8 FFF7FEFF 		bl	LCD_WR_DATA
 2875              	.LVL336:
 751:Drivers/LCD_FMC/src/tftLCD.c ****         LCD_WR_DATA(0x07);
 2876              		.loc 1 751 9 view .LVU818
 2877 03cc 1720     		movs	r0, #23
 2878 03ce FFF7FEFF 		bl	LCD_WR_DATA
 2879              	.LVL337:
 752:Drivers/LCD_FMC/src/tftLCD.c ****         LCD_WR_DATA(0x11);
 2880              		.loc 1 752 9 view .LVU819
 2881 03d2 0720     		movs	r0, #7
 2882 03d4 FFF7FEFF 		bl	LCD_WR_DATA
 2883              	.LVL338:
 753:Drivers/LCD_FMC/src/tftLCD.c ****         LCD_WR_DATA(0x06);
 2884              		.loc 1 753 9 view .LVU820
 2885 03d8 1120     		movs	r0, #17
 2886 03da FFF7FEFF 		bl	LCD_WR_DATA
 2887              	.LVL339:
 754:Drivers/LCD_FMC/src/tftLCD.c ****         LCD_WR_DATA(0x2B);
 2888              		.loc 1 754 9 view .LVU821
 2889 03de 0620     		movs	r0, #6
 2890 03e0 FFF7FEFF 		bl	LCD_WR_DATA
 2891              	.LVL340:
 755:Drivers/LCD_FMC/src/tftLCD.c ****         LCD_WR_DATA(0x56);
 2892              		.loc 1 755 9 view .LVU822
 2893 03e4 2B20     		movs	r0, #43
 2894 03e6 FFF7FEFF 		bl	LCD_WR_DATA
 2895              	.LVL341:
 756:Drivers/LCD_FMC/src/tftLCD.c ****         LCD_WR_DATA(0x3C);
 2896              		.loc 1 756 9 view .LVU823
 2897 03ea 5620     		movs	r0, #86
 2898 03ec FFF7FEFF 		bl	LCD_WR_DATA
 2899              	.LVL342:
 757:Drivers/LCD_FMC/src/tftLCD.c ****         LCD_WR_DATA(0x05);
 2900              		.loc 1 757 9 view .LVU824
 2901 03f0 3C20     		movs	r0, #60
 2902 03f2 FFF7FEFF 		bl	LCD_WR_DATA
 2903              	.LVL343:
 758:Drivers/LCD_FMC/src/tftLCD.c ****         LCD_WR_DATA(0x10);
 2904              		.loc 1 758 9 view .LVU825
 2905 03f6 0520     		movs	r0, #5
 2906 03f8 FFF7FEFF 		bl	LCD_WR_DATA
 2907              	.LVL344:
 759:Drivers/LCD_FMC/src/tftLCD.c ****         LCD_WR_DATA(0x0F);
 2908              		.loc 1 759 9 view .LVU826
 2909 03fc 1020     		movs	r0, #16
 2910 03fe FFF7FEFF 		bl	LCD_WR_DATA
 2911              	.LVL345:
 760:Drivers/LCD_FMC/src/tftLCD.c ****         LCD_WR_DATA(0x3F);
 2912              		.loc 1 760 9 view .LVU827
 2913 0402 0F20     		movs	r0, #15
 2914 0404 FFF7FEFF 		bl	LCD_WR_DATA
 2915              	.LVL346:
 761:Drivers/LCD_FMC/src/tftLCD.c ****         LCD_WR_DATA(0x3F);
 2916              		.loc 1 761 9 view .LVU828
ARM GAS  C:\usertemp\ccUDQ5mr.s 			page 97


 2917 0408 3F20     		movs	r0, #63
 2918 040a FFF7FEFF 		bl	LCD_WR_DATA
 2919              	.LVL347:
 762:Drivers/LCD_FMC/src/tftLCD.c ****         LCD_WR_DATA(0x0F);
 2920              		.loc 1 762 9 view .LVU829
 2921 040e 3F20     		movs	r0, #63
 2922 0410 FFF7FEFF 		bl	LCD_WR_DATA
 2923              	.LVL348:
 763:Drivers/LCD_FMC/src/tftLCD.c ****         LCD_WR_REG(0x2B);
 2924              		.loc 1 763 9 view .LVU830
 2925 0414 0F20     		movs	r0, #15
 2926 0416 FFF7FEFF 		bl	LCD_WR_DATA
 2927              	.LVL349:
 764:Drivers/LCD_FMC/src/tftLCD.c ****         LCD_WR_DATA(0x00);
 2928              		.loc 1 764 9 view .LVU831
 2929 041a 2B20     		movs	r0, #43
 2930 041c FFF7FEFF 		bl	LCD_WR_REG
 2931              	.LVL350:
 765:Drivers/LCD_FMC/src/tftLCD.c ****         LCD_WR_DATA(0x00);
 2932              		.loc 1 765 9 view .LVU832
 2933 0420 0020     		movs	r0, #0
 2934 0422 FFF7FEFF 		bl	LCD_WR_DATA
 2935              	.LVL351:
 766:Drivers/LCD_FMC/src/tftLCD.c ****         LCD_WR_DATA(0x01);
 2936              		.loc 1 766 9 view .LVU833
 2937 0426 0020     		movs	r0, #0
 2938 0428 FFF7FEFF 		bl	LCD_WR_DATA
 2939              	.LVL352:
 767:Drivers/LCD_FMC/src/tftLCD.c ****         LCD_WR_DATA(0x3f);
 2940              		.loc 1 767 9 view .LVU834
 2941 042c 0120     		movs	r0, #1
 2942 042e FFF7FEFF 		bl	LCD_WR_DATA
 2943              	.LVL353:
 768:Drivers/LCD_FMC/src/tftLCD.c ****         LCD_WR_REG(0x2A);
 2944              		.loc 1 768 9 view .LVU835
 2945 0432 3F20     		movs	r0, #63
 2946 0434 FFF7FEFF 		bl	LCD_WR_DATA
 2947              	.LVL354:
 769:Drivers/LCD_FMC/src/tftLCD.c ****         LCD_WR_DATA(0x00);
 2948              		.loc 1 769 9 view .LVU836
 2949 0438 2A20     		movs	r0, #42
 2950 043a FFF7FEFF 		bl	LCD_WR_REG
 2951              	.LVL355:
 770:Drivers/LCD_FMC/src/tftLCD.c ****         LCD_WR_DATA(0x00);
 2952              		.loc 1 770 9 view .LVU837
 2953 043e 0020     		movs	r0, #0
 2954 0440 FFF7FEFF 		bl	LCD_WR_DATA
 2955              	.LVL356:
 771:Drivers/LCD_FMC/src/tftLCD.c ****         LCD_WR_DATA(0x00);
 2956              		.loc 1 771 9 view .LVU838
 2957 0444 0020     		movs	r0, #0
 2958 0446 FFF7FEFF 		bl	LCD_WR_DATA
 2959              	.LVL357:
 772:Drivers/LCD_FMC/src/tftLCD.c ****         LCD_WR_DATA(0xef);
 2960              		.loc 1 772 9 view .LVU839
 2961 044a 0020     		movs	r0, #0
 2962 044c FFF7FEFF 		bl	LCD_WR_DATA
ARM GAS  C:\usertemp\ccUDQ5mr.s 			page 98


 2963              	.LVL358:
 773:Drivers/LCD_FMC/src/tftLCD.c ****         LCD_WR_REG(0x11); //Exit Sleep
 2964              		.loc 1 773 9 view .LVU840
 2965 0450 EF20     		movs	r0, #239
 2966 0452 FFF7FEFF 		bl	LCD_WR_DATA
 2967              	.LVL359:
 774:Drivers/LCD_FMC/src/tftLCD.c ****         HAL_Delay(120);
 2968              		.loc 1 774 9 view .LVU841
 2969 0456 1120     		movs	r0, #17
 2970 0458 FFF7FEFF 		bl	LCD_WR_REG
 2971              	.LVL360:
 775:Drivers/LCD_FMC/src/tftLCD.c ****         LCD_WR_REG(0x29); //display on
 2972              		.loc 1 775 9 view .LVU842
 2973 045c 7820     		movs	r0, #120
 2974 045e FFF7FEFF 		bl	HAL_Delay
 2975              	.LVL361:
 776:Drivers/LCD_FMC/src/tftLCD.c ****     }
 2976              		.loc 1 776 9 view .LVU843
 2977 0462 2920     		movs	r0, #41
 2978 0464 FFF7FEFF 		bl	LCD_WR_REG
 2979              	.LVL362:
 2980 0468 FFE5     		b	.L148
 2981              	.L157:
 780:Drivers/LCD_FMC/src/tftLCD.c **** 
 2982              		.loc 1 780 9 view .LVU844
 2983 046a 1120     		movs	r0, #17
 2984 046c FFF7FEFF 		bl	LCD_WR_REG
 2985              	.LVL363:
 782:Drivers/LCD_FMC/src/tftLCD.c **** 
 2986              		.loc 1 782 9 view .LVU845
 2987 0470 7820     		movs	r0, #120
 2988 0472 FFF7FEFF 		bl	HAL_Delay
 2989              	.LVL364:
 784:Drivers/LCD_FMC/src/tftLCD.c ****         LCD_WR_DATA(0x00);
 2990              		.loc 1 784 9 view .LVU846
 2991 0476 3620     		movs	r0, #54
 2992 0478 FFF7FEFF 		bl	LCD_WR_REG
 2993              	.LVL365:
 785:Drivers/LCD_FMC/src/tftLCD.c **** 
 2994              		.loc 1 785 9 view .LVU847
 2995 047c 0020     		movs	r0, #0
 2996 047e FFF7FEFF 		bl	LCD_WR_DATA
 2997              	.LVL366:
 788:Drivers/LCD_FMC/src/tftLCD.c ****         LCD_WR_DATA(0X05);
 2998              		.loc 1 788 9 view .LVU848
 2999 0482 3A20     		movs	r0, #58
 3000 0484 FFF7FEFF 		bl	LCD_WR_REG
 3001              	.LVL367:
 789:Drivers/LCD_FMC/src/tftLCD.c **** 
 3002              		.loc 1 789 9 view .LVU849
 3003 0488 0520     		movs	r0, #5
 3004 048a FFF7FEFF 		bl	LCD_WR_DATA
 3005              	.LVL368:
 791:Drivers/LCD_FMC/src/tftLCD.c ****         LCD_WR_DATA(0x0C);
 3006              		.loc 1 791 9 view .LVU850
 3007 048e B220     		movs	r0, #178
 3008 0490 FFF7FEFF 		bl	LCD_WR_REG
ARM GAS  C:\usertemp\ccUDQ5mr.s 			page 99


 3009              	.LVL369:
 792:Drivers/LCD_FMC/src/tftLCD.c ****         LCD_WR_DATA(0x0C);
 3010              		.loc 1 792 9 view .LVU851
 3011 0494 0C20     		movs	r0, #12
 3012 0496 FFF7FEFF 		bl	LCD_WR_DATA
 3013              	.LVL370:
 793:Drivers/LCD_FMC/src/tftLCD.c ****         LCD_WR_DATA(0x00);
 3014              		.loc 1 793 9 view .LVU852
 3015 049a 0C20     		movs	r0, #12
 3016 049c FFF7FEFF 		bl	LCD_WR_DATA
 3017              	.LVL371:
 794:Drivers/LCD_FMC/src/tftLCD.c ****         LCD_WR_DATA(0x33);
 3018              		.loc 1 794 9 view .LVU853
 3019 04a0 0020     		movs	r0, #0
 3020 04a2 FFF7FEFF 		bl	LCD_WR_DATA
 3021              	.LVL372:
 795:Drivers/LCD_FMC/src/tftLCD.c ****         LCD_WR_DATA(0x33);
 3022              		.loc 1 795 9 view .LVU854
 3023 04a6 3320     		movs	r0, #51
 3024 04a8 FFF7FEFF 		bl	LCD_WR_DATA
 3025              	.LVL373:
 796:Drivers/LCD_FMC/src/tftLCD.c **** 
 3026              		.loc 1 796 9 view .LVU855
 3027 04ac 3320     		movs	r0, #51
 3028 04ae FFF7FEFF 		bl	LCD_WR_DATA
 3029              	.LVL374:
 798:Drivers/LCD_FMC/src/tftLCD.c ****         LCD_WR_DATA(0x35);
 3030              		.loc 1 798 9 view .LVU856
 3031 04b2 B720     		movs	r0, #183
 3032 04b4 FFF7FEFF 		bl	LCD_WR_REG
 3033              	.LVL375:
 799:Drivers/LCD_FMC/src/tftLCD.c **** 
 3034              		.loc 1 799 9 view .LVU857
 3035 04b8 3520     		movs	r0, #53
 3036 04ba FFF7FEFF 		bl	LCD_WR_DATA
 3037              	.LVL376:
 801:Drivers/LCD_FMC/src/tftLCD.c ****         LCD_WR_DATA(0x32);      //30
 3038              		.loc 1 801 9 view .LVU858
 3039 04be BB20     		movs	r0, #187
 3040 04c0 FFF7FEFF 		bl	LCD_WR_REG
 3041              	.LVL377:
 802:Drivers/LCD_FMC/src/tftLCD.c **** 
 3042              		.loc 1 802 9 view .LVU859
 3043 04c4 3220     		movs	r0, #50
 3044 04c6 FFF7FEFF 		bl	LCD_WR_DATA
 3045              	.LVL378:
 804:Drivers/LCD_FMC/src/tftLCD.c ****         LCD_WR_DATA(0x0C);
 3046              		.loc 1 804 9 view .LVU860
 3047 04ca C020     		movs	r0, #192
 3048 04cc FFF7FEFF 		bl	LCD_WR_REG
 3049              	.LVL379:
 805:Drivers/LCD_FMC/src/tftLCD.c **** 
 3050              		.loc 1 805 9 view .LVU861
 3051 04d0 0C20     		movs	r0, #12
 3052 04d2 FFF7FEFF 		bl	LCD_WR_DATA
 3053              	.LVL380:
 807:Drivers/LCD_FMC/src/tftLCD.c ****         LCD_WR_DATA(0x01);
ARM GAS  C:\usertemp\ccUDQ5mr.s 			page 100


 3054              		.loc 1 807 9 view .LVU862
 3055 04d6 C220     		movs	r0, #194
 3056 04d8 FFF7FEFF 		bl	LCD_WR_REG
 3057              	.LVL381:
 808:Drivers/LCD_FMC/src/tftLCD.c **** 
 3058              		.loc 1 808 9 view .LVU863
 3059 04dc 0120     		movs	r0, #1
 3060 04de FFF7FEFF 		bl	LCD_WR_DATA
 3061              	.LVL382:
 810:Drivers/LCD_FMC/src/tftLCD.c ****         LCD_WR_DATA(0x10);      //17 0D
 3062              		.loc 1 810 9 view .LVU864
 3063 04e2 C320     		movs	r0, #195
 3064 04e4 FFF7FEFF 		bl	LCD_WR_REG
 3065              	.LVL383:
 811:Drivers/LCD_FMC/src/tftLCD.c **** 
 3066              		.loc 1 811 9 view .LVU865
 3067 04e8 1020     		movs	r0, #16
 3068 04ea FFF7FEFF 		bl	LCD_WR_DATA
 3069              	.LVL384:
 813:Drivers/LCD_FMC/src/tftLCD.c ****         LCD_WR_DATA(0x20);      //20
 3070              		.loc 1 813 9 view .LVU866
 3071 04ee C420     		movs	r0, #196
 3072 04f0 FFF7FEFF 		bl	LCD_WR_REG
 3073              	.LVL385:
 814:Drivers/LCD_FMC/src/tftLCD.c **** 
 3074              		.loc 1 814 9 view .LVU867
 3075 04f4 2020     		movs	r0, #32
 3076 04f6 FFF7FEFF 		bl	LCD_WR_DATA
 3077              	.LVL386:
 816:Drivers/LCD_FMC/src/tftLCD.c ****         LCD_WR_DATA(0x0f);
 3078              		.loc 1 816 9 view .LVU868
 3079 04fa C620     		movs	r0, #198
 3080 04fc FFF7FEFF 		bl	LCD_WR_REG
 3081              	.LVL387:
 817:Drivers/LCD_FMC/src/tftLCD.c **** 
 3082              		.loc 1 817 9 view .LVU869
 3083 0500 0F20     		movs	r0, #15
 3084 0502 FFF7FEFF 		bl	LCD_WR_DATA
 3085              	.LVL388:
 819:Drivers/LCD_FMC/src/tftLCD.c ****         LCD_WR_DATA(0xA4);
 3086              		.loc 1 819 9 view .LVU870
 3087 0506 D020     		movs	r0, #208
 3088 0508 FFF7FEFF 		bl	LCD_WR_REG
 3089              	.LVL389:
 820:Drivers/LCD_FMC/src/tftLCD.c ****         LCD_WR_DATA(0xA1);
 3090              		.loc 1 820 9 view .LVU871
 3091 050c A420     		movs	r0, #164
 3092 050e FFF7FEFF 		bl	LCD_WR_DATA
 3093              	.LVL390:
 821:Drivers/LCD_FMC/src/tftLCD.c **** 
 3094              		.loc 1 821 9 view .LVU872
 3095 0512 A120     		movs	r0, #161
 3096 0514 FFF7FEFF 		bl	LCD_WR_DATA
 3097              	.LVL391:
 823:Drivers/LCD_FMC/src/tftLCD.c ****         LCD_WR_DATA(0xd0);
 3098              		.loc 1 823 9 view .LVU873
 3099 0518 E020     		movs	r0, #224
ARM GAS  C:\usertemp\ccUDQ5mr.s 			page 101


 3100 051a FFF7FEFF 		bl	LCD_WR_REG
 3101              	.LVL392:
 824:Drivers/LCD_FMC/src/tftLCD.c ****         LCD_WR_DATA(0x00);
 3102              		.loc 1 824 9 view .LVU874
 3103 051e D020     		movs	r0, #208
 3104 0520 FFF7FEFF 		bl	LCD_WR_DATA
 3105              	.LVL393:
 825:Drivers/LCD_FMC/src/tftLCD.c ****         LCD_WR_DATA(0x02);
 3106              		.loc 1 825 9 view .LVU875
 3107 0524 0020     		movs	r0, #0
 3108 0526 FFF7FEFF 		bl	LCD_WR_DATA
 3109              	.LVL394:
 826:Drivers/LCD_FMC/src/tftLCD.c ****         LCD_WR_DATA(0x07);
 3110              		.loc 1 826 9 view .LVU876
 3111 052a 0220     		movs	r0, #2
 3112 052c FFF7FEFF 		bl	LCD_WR_DATA
 3113              	.LVL395:
 827:Drivers/LCD_FMC/src/tftLCD.c ****         LCD_WR_DATA(0x0a);
 3114              		.loc 1 827 9 view .LVU877
 3115 0530 0720     		movs	r0, #7
 3116 0532 FFF7FEFF 		bl	LCD_WR_DATA
 3117              	.LVL396:
 828:Drivers/LCD_FMC/src/tftLCD.c ****         LCD_WR_DATA(0x28);
 3118              		.loc 1 828 9 view .LVU878
 3119 0536 0A20     		movs	r0, #10
 3120 0538 FFF7FEFF 		bl	LCD_WR_DATA
 3121              	.LVL397:
 829:Drivers/LCD_FMC/src/tftLCD.c ****         LCD_WR_DATA(0x32);
 3122              		.loc 1 829 9 view .LVU879
 3123 053c 2820     		movs	r0, #40
 3124 053e FFF7FEFF 		bl	LCD_WR_DATA
 3125              	.LVL398:
 830:Drivers/LCD_FMC/src/tftLCD.c ****         LCD_WR_DATA(0X44);
 3126              		.loc 1 830 9 view .LVU880
 3127 0542 3220     		movs	r0, #50
 3128 0544 FFF7FEFF 		bl	LCD_WR_DATA
 3129              	.LVL399:
 831:Drivers/LCD_FMC/src/tftLCD.c ****         LCD_WR_DATA(0x42);
 3130              		.loc 1 831 9 view .LVU881
 3131 0548 4420     		movs	r0, #68
 3132 054a FFF7FEFF 		bl	LCD_WR_DATA
 3133              	.LVL400:
 832:Drivers/LCD_FMC/src/tftLCD.c ****         LCD_WR_DATA(0x06);
 3134              		.loc 1 832 9 view .LVU882
 3135 054e 4220     		movs	r0, #66
 3136 0550 FFF7FEFF 		bl	LCD_WR_DATA
 3137              	.LVL401:
 833:Drivers/LCD_FMC/src/tftLCD.c ****         LCD_WR_DATA(0x0e);
 3138              		.loc 1 833 9 view .LVU883
 3139 0554 0620     		movs	r0, #6
 3140 0556 FFF7FEFF 		bl	LCD_WR_DATA
 3141              	.LVL402:
 834:Drivers/LCD_FMC/src/tftLCD.c ****         LCD_WR_DATA(0x12);
 3142              		.loc 1 834 9 view .LVU884
 3143 055a 0E20     		movs	r0, #14
 3144 055c FFF7FEFF 		bl	LCD_WR_DATA
 3145              	.LVL403:
ARM GAS  C:\usertemp\ccUDQ5mr.s 			page 102


 835:Drivers/LCD_FMC/src/tftLCD.c ****         LCD_WR_DATA(0x14);
 3146              		.loc 1 835 9 view .LVU885
 3147 0560 1220     		movs	r0, #18
 3148 0562 FFF7FEFF 		bl	LCD_WR_DATA
 3149              	.LVL404:
 836:Drivers/LCD_FMC/src/tftLCD.c ****         LCD_WR_DATA(0x17);
 3150              		.loc 1 836 9 view .LVU886
 3151 0566 1420     		movs	r0, #20
 3152 0568 FFF7FEFF 		bl	LCD_WR_DATA
 3153              	.LVL405:
 837:Drivers/LCD_FMC/src/tftLCD.c **** 
 3154              		.loc 1 837 9 view .LVU887
 3155 056c 1720     		movs	r0, #23
 3156 056e FFF7FEFF 		bl	LCD_WR_DATA
 3157              	.LVL406:
 839:Drivers/LCD_FMC/src/tftLCD.c ****         LCD_WR_DATA(0xd0);
 3158              		.loc 1 839 9 view .LVU888
 3159 0572 E120     		movs	r0, #225
 3160 0574 FFF7FEFF 		bl	LCD_WR_REG
 3161              	.LVL407:
 840:Drivers/LCD_FMC/src/tftLCD.c ****         LCD_WR_DATA(0x00);
 3162              		.loc 1 840 9 view .LVU889
 3163 0578 D020     		movs	r0, #208
 3164 057a FFF7FEFF 		bl	LCD_WR_DATA
 3165              	.LVL408:
 841:Drivers/LCD_FMC/src/tftLCD.c ****         LCD_WR_DATA(0x02);
 3166              		.loc 1 841 9 view .LVU890
 3167 057e 0020     		movs	r0, #0
 3168 0580 FFF7FEFF 		bl	LCD_WR_DATA
 3169              	.LVL409:
 842:Drivers/LCD_FMC/src/tftLCD.c ****         LCD_WR_DATA(0x07);
 3170              		.loc 1 842 9 view .LVU891
 3171 0584 0220     		movs	r0, #2
 3172 0586 FFF7FEFF 		bl	LCD_WR_DATA
 3173              	.LVL410:
 843:Drivers/LCD_FMC/src/tftLCD.c ****         LCD_WR_DATA(0x0a);
 3174              		.loc 1 843 9 view .LVU892
 3175 058a 0720     		movs	r0, #7
 3176 058c FFF7FEFF 		bl	LCD_WR_DATA
 3177              	.LVL411:
 844:Drivers/LCD_FMC/src/tftLCD.c ****         LCD_WR_DATA(0x28);
 3178              		.loc 1 844 9 view .LVU893
 3179 0590 0A20     		movs	r0, #10
 3180 0592 FFF7FEFF 		bl	LCD_WR_DATA
 3181              	.LVL412:
 845:Drivers/LCD_FMC/src/tftLCD.c ****         LCD_WR_DATA(0x31);
 3182              		.loc 1 845 9 view .LVU894
 3183 0596 2820     		movs	r0, #40
 3184 0598 FFF7FEFF 		bl	LCD_WR_DATA
 3185              	.LVL413:
 846:Drivers/LCD_FMC/src/tftLCD.c ****         LCD_WR_DATA(0x54);
 3186              		.loc 1 846 9 view .LVU895
 3187 059c 3120     		movs	r0, #49
 3188 059e FFF7FEFF 		bl	LCD_WR_DATA
 3189              	.LVL414:
 847:Drivers/LCD_FMC/src/tftLCD.c ****         LCD_WR_DATA(0x47);
 3190              		.loc 1 847 9 view .LVU896
ARM GAS  C:\usertemp\ccUDQ5mr.s 			page 103


 3191 05a2 5420     		movs	r0, #84
 3192 05a4 FFF7FEFF 		bl	LCD_WR_DATA
 3193              	.LVL415:
 848:Drivers/LCD_FMC/src/tftLCD.c ****         LCD_WR_DATA(0x0e);
 3194              		.loc 1 848 9 view .LVU897
 3195 05a8 4720     		movs	r0, #71
 3196 05aa FFF7FEFF 		bl	LCD_WR_DATA
 3197              	.LVL416:
 849:Drivers/LCD_FMC/src/tftLCD.c ****         LCD_WR_DATA(0x1c);
 3198              		.loc 1 849 9 view .LVU898
 3199 05ae 0E20     		movs	r0, #14
 3200 05b0 FFF7FEFF 		bl	LCD_WR_DATA
 3201              	.LVL417:
 850:Drivers/LCD_FMC/src/tftLCD.c ****         LCD_WR_DATA(0x17);
 3202              		.loc 1 850 9 view .LVU899
 3203 05b4 1C20     		movs	r0, #28
 3204 05b6 FFF7FEFF 		bl	LCD_WR_DATA
 3205              	.LVL418:
 851:Drivers/LCD_FMC/src/tftLCD.c ****         LCD_WR_DATA(0x1b);
 3206              		.loc 1 851 9 view .LVU900
 3207 05ba 1720     		movs	r0, #23
 3208 05bc FFF7FEFF 		bl	LCD_WR_DATA
 3209              	.LVL419:
 852:Drivers/LCD_FMC/src/tftLCD.c ****         LCD_WR_DATA(0x1e);
 3210              		.loc 1 852 9 view .LVU901
 3211 05c0 1B20     		movs	r0, #27
 3212 05c2 FFF7FEFF 		bl	LCD_WR_DATA
 3213              	.LVL420:
 853:Drivers/LCD_FMC/src/tftLCD.c **** 
 3214              		.loc 1 853 9 view .LVU902
 3215 05c6 1E20     		movs	r0, #30
 3216 05c8 FFF7FEFF 		bl	LCD_WR_DATA
 3217              	.LVL421:
 855:Drivers/LCD_FMC/src/tftLCD.c ****         LCD_WR_DATA(0x00);
 3218              		.loc 1 855 9 view .LVU903
 3219 05cc 2A20     		movs	r0, #42
 3220 05ce FFF7FEFF 		bl	LCD_WR_REG
 3221              	.LVL422:
 856:Drivers/LCD_FMC/src/tftLCD.c ****         LCD_WR_DATA(0x00);
 3222              		.loc 1 856 9 view .LVU904
 3223 05d2 0020     		movs	r0, #0
 3224 05d4 FFF7FEFF 		bl	LCD_WR_DATA
 3225              	.LVL423:
 857:Drivers/LCD_FMC/src/tftLCD.c ****         LCD_WR_DATA(0x00);
 3226              		.loc 1 857 9 view .LVU905
 3227 05d8 0020     		movs	r0, #0
 3228 05da FFF7FEFF 		bl	LCD_WR_DATA
 3229              	.LVL424:
 858:Drivers/LCD_FMC/src/tftLCD.c ****         LCD_WR_DATA(0xef);
 3230              		.loc 1 858 9 view .LVU906
 3231 05de 0020     		movs	r0, #0
 3232 05e0 FFF7FEFF 		bl	LCD_WR_DATA
 3233              	.LVL425:
 859:Drivers/LCD_FMC/src/tftLCD.c **** 
 3234              		.loc 1 859 9 view .LVU907
 3235 05e4 EF20     		movs	r0, #239
 3236 05e6 FFF7FEFF 		bl	LCD_WR_DATA
ARM GAS  C:\usertemp\ccUDQ5mr.s 			page 104


 3237              	.LVL426:
 861:Drivers/LCD_FMC/src/tftLCD.c ****         LCD_WR_DATA(0x00);
 3238              		.loc 1 861 9 view .LVU908
 3239 05ea 2B20     		movs	r0, #43
 3240 05ec FFF7FEFF 		bl	LCD_WR_REG
 3241              	.LVL427:
 862:Drivers/LCD_FMC/src/tftLCD.c ****         LCD_WR_DATA(0x00);
 3242              		.loc 1 862 9 view .LVU909
 3243 05f0 0020     		movs	r0, #0
 3244 05f2 FFF7FEFF 		bl	LCD_WR_DATA
 3245              	.LVL428:
 863:Drivers/LCD_FMC/src/tftLCD.c ****         LCD_WR_DATA(0x01);
 3246              		.loc 1 863 9 view .LVU910
 3247 05f6 0020     		movs	r0, #0
 3248 05f8 FFF7FEFF 		bl	LCD_WR_DATA
 3249              	.LVL429:
 864:Drivers/LCD_FMC/src/tftLCD.c ****         LCD_WR_DATA(0x3f);
 3250              		.loc 1 864 9 view .LVU911
 3251 05fc 0120     		movs	r0, #1
 3252 05fe FFF7FEFF 		bl	LCD_WR_DATA
 3253              	.LVL430:
 865:Drivers/LCD_FMC/src/tftLCD.c **** 
 3254              		.loc 1 865 9 view .LVU912
 3255 0602 3F20     		movs	r0, #63
 3256 0604 FFF7FEFF 		bl	LCD_WR_DATA
 3257              	.LVL431:
 867:Drivers/LCD_FMC/src/tftLCD.c ****     }
 3258              		.loc 1 867 9 view .LVU913
 3259 0608 2920     		movs	r0, #41
 3260 060a FFF7FEFF 		bl	LCD_WR_REG
 3261              	.LVL432:
 3262 060e 2CE5     		b	.L148
 3263              	.L158:
 871:Drivers/LCD_FMC/src/tftLCD.c ****         LCD_WR_DATA(0x01);
 3264              		.loc 1 871 9 view .LVU914
 3265 0610 ED20     		movs	r0, #237
 3266 0612 FFF7FEFF 		bl	LCD_WR_REG
 3267              	.LVL433:
 872:Drivers/LCD_FMC/src/tftLCD.c ****         LCD_WR_DATA(0xFE);
 3268              		.loc 1 872 9 view .LVU915
 3269 0616 0120     		movs	r0, #1
 3270 0618 FFF7FEFF 		bl	LCD_WR_DATA
 3271              	.LVL434:
 873:Drivers/LCD_FMC/src/tftLCD.c **** 
 3272              		.loc 1 873 9 view .LVU916
 3273 061c FE20     		movs	r0, #254
 3274 061e FFF7FEFF 		bl	LCD_WR_DATA
 3275              	.LVL435:
 875:Drivers/LCD_FMC/src/tftLCD.c ****         LCD_WR_DATA(0xDE);
 3276              		.loc 1 875 9 view .LVU917
 3277 0622 EE20     		movs	r0, #238
 3278 0624 FFF7FEFF 		bl	LCD_WR_REG
 3279              	.LVL436:
 876:Drivers/LCD_FMC/src/tftLCD.c ****         LCD_WR_DATA(0x21);
 3280              		.loc 1 876 9 view .LVU918
 3281 0628 DE20     		movs	r0, #222
 3282 062a FFF7FEFF 		bl	LCD_WR_DATA
ARM GAS  C:\usertemp\ccUDQ5mr.s 			page 105


 3283              	.LVL437:
 877:Drivers/LCD_FMC/src/tftLCD.c **** 
 3284              		.loc 1 877 9 view .LVU919
 3285 062e 2120     		movs	r0, #33
 3286 0630 FFF7FEFF 		bl	LCD_WR_DATA
 3287              	.LVL438:
 879:Drivers/LCD_FMC/src/tftLCD.c ****         LCD_WR_DATA(0x01);
 3288              		.loc 1 879 9 view .LVU920
 3289 0634 F120     		movs	r0, #241
 3290 0636 FFF7FEFF 		bl	LCD_WR_REG
 3291              	.LVL439:
 880:Drivers/LCD_FMC/src/tftLCD.c ****         LCD_WR_REG(0xDF);
 3292              		.loc 1 880 9 view .LVU921
 3293 063a 0120     		movs	r0, #1
 3294 063c FFF7FEFF 		bl	LCD_WR_DATA
 3295              	.LVL440:
 881:Drivers/LCD_FMC/src/tftLCD.c ****         LCD_WR_DATA(0x10);
 3296              		.loc 1 881 9 view .LVU922
 3297 0640 DF20     		movs	r0, #223
 3298 0642 FFF7FEFF 		bl	LCD_WR_REG
 3299              	.LVL441:
 882:Drivers/LCD_FMC/src/tftLCD.c **** 
 3300              		.loc 1 882 9 view .LVU923
 3301 0646 1020     		movs	r0, #16
 3302 0648 FFF7FEFF 		bl	LCD_WR_DATA
 3303              	.LVL442:
 885:Drivers/LCD_FMC/src/tftLCD.c ****         LCD_WR_DATA(0x8F);	  //5f
 3304              		.loc 1 885 9 view .LVU924
 3305 064c C420     		movs	r0, #196
 3306 064e FFF7FEFF 		bl	LCD_WR_REG
 3307              	.LVL443:
 886:Drivers/LCD_FMC/src/tftLCD.c **** 
 3308              		.loc 1 886 9 view .LVU925
 3309 0652 8F20     		movs	r0, #143
 3310 0654 FFF7FEFF 		bl	LCD_WR_DATA
 3311              	.LVL444:
 888:Drivers/LCD_FMC/src/tftLCD.c ****         LCD_WR_DATA(0x00);
 3312              		.loc 1 888 9 view .LVU926
 3313 0658 C620     		movs	r0, #198
 3314 065a FFF7FEFF 		bl	LCD_WR_REG
 3315              	.LVL445:
 889:Drivers/LCD_FMC/src/tftLCD.c ****         LCD_WR_DATA(0xE2);
 3316              		.loc 1 889 9 view .LVU927
 3317 065e 0020     		movs	r0, #0
 3318 0660 FFF7FEFF 		bl	LCD_WR_DATA
 3319              	.LVL446:
 890:Drivers/LCD_FMC/src/tftLCD.c ****         LCD_WR_DATA(0xE2);
 3320              		.loc 1 890 9 view .LVU928
 3321 0664 E220     		movs	r0, #226
 3322 0666 FFF7FEFF 		bl	LCD_WR_DATA
 3323              	.LVL447:
 891:Drivers/LCD_FMC/src/tftLCD.c ****         LCD_WR_DATA(0xE2);
 3324              		.loc 1 891 9 view .LVU929
 3325 066a E220     		movs	r0, #226
 3326 066c FFF7FEFF 		bl	LCD_WR_DATA
 3327              	.LVL448:
 892:Drivers/LCD_FMC/src/tftLCD.c ****         LCD_WR_REG(0xBF);
ARM GAS  C:\usertemp\ccUDQ5mr.s 			page 106


 3328              		.loc 1 892 9 view .LVU930
 3329 0670 E220     		movs	r0, #226
 3330 0672 FFF7FEFF 		bl	LCD_WR_DATA
 3331              	.LVL449:
 893:Drivers/LCD_FMC/src/tftLCD.c ****         LCD_WR_DATA(0xAA);
 3332              		.loc 1 893 9 view .LVU931
 3333 0676 BF20     		movs	r0, #191
 3334 0678 FFF7FEFF 		bl	LCD_WR_REG
 3335              	.LVL450:
 894:Drivers/LCD_FMC/src/tftLCD.c **** 
 3336              		.loc 1 894 9 view .LVU932
 3337 067c AA20     		movs	r0, #170
 3338 067e FFF7FEFF 		bl	LCD_WR_DATA
 3339              	.LVL451:
 896:Drivers/LCD_FMC/src/tftLCD.c ****         LCD_WR_DATA(0x0D);
 3340              		.loc 1 896 9 view .LVU933
 3341 0682 B020     		movs	r0, #176
 3342 0684 FFF7FEFF 		bl	LCD_WR_REG
 3343              	.LVL452:
 897:Drivers/LCD_FMC/src/tftLCD.c ****         LCD_WR_DATA(0x00);
 3344              		.loc 1 897 9 view .LVU934
 3345 0688 0D20     		movs	r0, #13
 3346 068a FFF7FEFF 		bl	LCD_WR_DATA
 3347              	.LVL453:
 898:Drivers/LCD_FMC/src/tftLCD.c ****         LCD_WR_DATA(0x0D);
 3348              		.loc 1 898 9 view .LVU935
 3349 068e 0020     		movs	r0, #0
 3350 0690 FFF7FEFF 		bl	LCD_WR_DATA
 3351              	.LVL454:
 899:Drivers/LCD_FMC/src/tftLCD.c ****         LCD_WR_DATA(0x00);
 3352              		.loc 1 899 9 view .LVU936
 3353 0694 0D20     		movs	r0, #13
 3354 0696 FFF7FEFF 		bl	LCD_WR_DATA
 3355              	.LVL455:
 900:Drivers/LCD_FMC/src/tftLCD.c ****         LCD_WR_DATA(0x11);
 3356              		.loc 1 900 9 view .LVU937
 3357 069a 0020     		movs	r0, #0
 3358 069c FFF7FEFF 		bl	LCD_WR_DATA
 3359              	.LVL456:
 901:Drivers/LCD_FMC/src/tftLCD.c ****         LCD_WR_DATA(0x00);
 3360              		.loc 1 901 9 view .LVU938
 3361 06a0 1120     		movs	r0, #17
 3362 06a2 FFF7FEFF 		bl	LCD_WR_DATA
 3363              	.LVL457:
 902:Drivers/LCD_FMC/src/tftLCD.c ****         LCD_WR_DATA(0x19);
 3364              		.loc 1 902 9 view .LVU939
 3365 06a6 0020     		movs	r0, #0
 3366 06a8 FFF7FEFF 		bl	LCD_WR_DATA
 3367              	.LVL458:
 903:Drivers/LCD_FMC/src/tftLCD.c ****         LCD_WR_DATA(0x00);
 3368              		.loc 1 903 9 view .LVU940
 3369 06ac 1920     		movs	r0, #25
 3370 06ae FFF7FEFF 		bl	LCD_WR_DATA
 3371              	.LVL459:
 904:Drivers/LCD_FMC/src/tftLCD.c ****         LCD_WR_DATA(0x21);
 3372              		.loc 1 904 9 view .LVU941
 3373 06b2 0020     		movs	r0, #0
ARM GAS  C:\usertemp\ccUDQ5mr.s 			page 107


 3374 06b4 FFF7FEFF 		bl	LCD_WR_DATA
 3375              	.LVL460:
 905:Drivers/LCD_FMC/src/tftLCD.c ****         LCD_WR_DATA(0x00);
 3376              		.loc 1 905 9 view .LVU942
 3377 06b8 2120     		movs	r0, #33
 3378 06ba FFF7FEFF 		bl	LCD_WR_DATA
 3379              	.LVL461:
 906:Drivers/LCD_FMC/src/tftLCD.c ****         LCD_WR_DATA(0x2D);
 3380              		.loc 1 906 9 view .LVU943
 3381 06be 0020     		movs	r0, #0
 3382 06c0 FFF7FEFF 		bl	LCD_WR_DATA
 3383              	.LVL462:
 907:Drivers/LCD_FMC/src/tftLCD.c ****         LCD_WR_DATA(0x00);
 3384              		.loc 1 907 9 view .LVU944
 3385 06c4 2D20     		movs	r0, #45
 3386 06c6 FFF7FEFF 		bl	LCD_WR_DATA
 3387              	.LVL463:
 908:Drivers/LCD_FMC/src/tftLCD.c ****         LCD_WR_DATA(0x3D);
 3388              		.loc 1 908 9 view .LVU945
 3389 06ca 0020     		movs	r0, #0
 3390 06cc FFF7FEFF 		bl	LCD_WR_DATA
 3391              	.LVL464:
 909:Drivers/LCD_FMC/src/tftLCD.c ****         LCD_WR_DATA(0x00);
 3392              		.loc 1 909 9 view .LVU946
 3393 06d0 3D20     		movs	r0, #61
 3394 06d2 FFF7FEFF 		bl	LCD_WR_DATA
 3395              	.LVL465:
 910:Drivers/LCD_FMC/src/tftLCD.c ****         LCD_WR_DATA(0x5D);
 3396              		.loc 1 910 9 view .LVU947
 3397 06d6 0020     		movs	r0, #0
 3398 06d8 FFF7FEFF 		bl	LCD_WR_DATA
 3399              	.LVL466:
 911:Drivers/LCD_FMC/src/tftLCD.c ****         LCD_WR_DATA(0x00);
 3400              		.loc 1 911 9 view .LVU948
 3401 06dc 5D20     		movs	r0, #93
 3402 06de FFF7FEFF 		bl	LCD_WR_DATA
 3403              	.LVL467:
 912:Drivers/LCD_FMC/src/tftLCD.c ****         LCD_WR_DATA(0x5D);
 3404              		.loc 1 912 9 view .LVU949
 3405 06e2 0020     		movs	r0, #0
 3406 06e4 FFF7FEFF 		bl	LCD_WR_DATA
 3407              	.LVL468:
 913:Drivers/LCD_FMC/src/tftLCD.c ****         LCD_WR_DATA(0x00);
 3408              		.loc 1 913 9 view .LVU950
 3409 06e8 5D20     		movs	r0, #93
 3410 06ea FFF7FEFF 		bl	LCD_WR_DATA
 3411              	.LVL469:
 914:Drivers/LCD_FMC/src/tftLCD.c **** 
 3412              		.loc 1 914 9 view .LVU951
 3413 06ee 0020     		movs	r0, #0
 3414 06f0 FFF7FEFF 		bl	LCD_WR_DATA
 3415              	.LVL470:
 916:Drivers/LCD_FMC/src/tftLCD.c ****         LCD_WR_DATA(0x80);
 3416              		.loc 1 916 9 view .LVU952
 3417 06f4 B120     		movs	r0, #177
 3418 06f6 FFF7FEFF 		bl	LCD_WR_REG
 3419              	.LVL471:
ARM GAS  C:\usertemp\ccUDQ5mr.s 			page 108


 917:Drivers/LCD_FMC/src/tftLCD.c ****         LCD_WR_DATA(0x00);
 3420              		.loc 1 917 9 view .LVU953
 3421 06fa 8020     		movs	r0, #128
 3422 06fc FFF7FEFF 		bl	LCD_WR_DATA
 3423              	.LVL472:
 918:Drivers/LCD_FMC/src/tftLCD.c ****         LCD_WR_DATA(0x8B);
 3424              		.loc 1 918 9 view .LVU954
 3425 0700 0020     		movs	r0, #0
 3426 0702 FFF7FEFF 		bl	LCD_WR_DATA
 3427              	.LVL473:
 919:Drivers/LCD_FMC/src/tftLCD.c ****         LCD_WR_DATA(0x00);
 3428              		.loc 1 919 9 view .LVU955
 3429 0706 8B20     		movs	r0, #139
 3430 0708 FFF7FEFF 		bl	LCD_WR_DATA
 3431              	.LVL474:
 920:Drivers/LCD_FMC/src/tftLCD.c ****         LCD_WR_DATA(0x96);
 3432              		.loc 1 920 9 view .LVU956
 3433 070c 0020     		movs	r0, #0
 3434 070e FFF7FEFF 		bl	LCD_WR_DATA
 3435              	.LVL475:
 921:Drivers/LCD_FMC/src/tftLCD.c ****         LCD_WR_DATA(0x00);
 3436              		.loc 1 921 9 view .LVU957
 3437 0712 9620     		movs	r0, #150
 3438 0714 FFF7FEFF 		bl	LCD_WR_DATA
 3439              	.LVL476:
 922:Drivers/LCD_FMC/src/tftLCD.c **** 
 3440              		.loc 1 922 9 view .LVU958
 3441 0718 0020     		movs	r0, #0
 3442 071a FFF7FEFF 		bl	LCD_WR_DATA
 3443              	.LVL477:
 924:Drivers/LCD_FMC/src/tftLCD.c ****         LCD_WR_DATA(0x00);
 3444              		.loc 1 924 9 view .LVU959
 3445 071e B220     		movs	r0, #178
 3446 0720 FFF7FEFF 		bl	LCD_WR_REG
 3447              	.LVL478:
 925:Drivers/LCD_FMC/src/tftLCD.c ****         LCD_WR_DATA(0x00);
 3448              		.loc 1 925 9 view .LVU960
 3449 0724 0020     		movs	r0, #0
 3450 0726 FFF7FEFF 		bl	LCD_WR_DATA
 3451              	.LVL479:
 926:Drivers/LCD_FMC/src/tftLCD.c ****         LCD_WR_DATA(0x02);
 3452              		.loc 1 926 9 view .LVU961
 3453 072a 0020     		movs	r0, #0
 3454 072c FFF7FEFF 		bl	LCD_WR_DATA
 3455              	.LVL480:
 927:Drivers/LCD_FMC/src/tftLCD.c ****         LCD_WR_DATA(0x00);
 3456              		.loc 1 927 9 view .LVU962
 3457 0730 0220     		movs	r0, #2
 3458 0732 FFF7FEFF 		bl	LCD_WR_DATA
 3459              	.LVL481:
 928:Drivers/LCD_FMC/src/tftLCD.c ****         LCD_WR_DATA(0x03);
 3460              		.loc 1 928 9 view .LVU963
 3461 0736 0020     		movs	r0, #0
 3462 0738 FFF7FEFF 		bl	LCD_WR_DATA
 3463              	.LVL482:
 929:Drivers/LCD_FMC/src/tftLCD.c ****         LCD_WR_DATA(0x00);
 3464              		.loc 1 929 9 view .LVU964
ARM GAS  C:\usertemp\ccUDQ5mr.s 			page 109


 3465 073c 0320     		movs	r0, #3
 3466 073e FFF7FEFF 		bl	LCD_WR_DATA
 3467              	.LVL483:
 930:Drivers/LCD_FMC/src/tftLCD.c **** 
 3468              		.loc 1 930 9 view .LVU965
 3469 0742 0020     		movs	r0, #0
 3470 0744 FFF7FEFF 		bl	LCD_WR_DATA
 3471              	.LVL484:
 932:Drivers/LCD_FMC/src/tftLCD.c ****         LCD_WR_DATA(0x00);
 3472              		.loc 1 932 9 view .LVU966
 3473 0748 B320     		movs	r0, #179
 3474 074a FFF7FEFF 		bl	LCD_WR_REG
 3475              	.LVL485:
 933:Drivers/LCD_FMC/src/tftLCD.c ****         LCD_WR_DATA(0x00);
 3476              		.loc 1 933 9 view .LVU967
 3477 074e 0020     		movs	r0, #0
 3478 0750 FFF7FEFF 		bl	LCD_WR_DATA
 3479              	.LVL486:
 934:Drivers/LCD_FMC/src/tftLCD.c ****         LCD_WR_DATA(0x00);
 3480              		.loc 1 934 9 view .LVU968
 3481 0754 0020     		movs	r0, #0
 3482 0756 FFF7FEFF 		bl	LCD_WR_DATA
 3483              	.LVL487:
 935:Drivers/LCD_FMC/src/tftLCD.c ****         LCD_WR_DATA(0x00);
 3484              		.loc 1 935 9 view .LVU969
 3485 075a 0020     		movs	r0, #0
 3486 075c FFF7FEFF 		bl	LCD_WR_DATA
 3487              	.LVL488:
 936:Drivers/LCD_FMC/src/tftLCD.c ****         LCD_WR_DATA(0x00);
 3488              		.loc 1 936 9 view .LVU970
 3489 0760 0020     		movs	r0, #0
 3490 0762 FFF7FEFF 		bl	LCD_WR_DATA
 3491              	.LVL489:
 937:Drivers/LCD_FMC/src/tftLCD.c ****         LCD_WR_DATA(0x00);
 3492              		.loc 1 937 9 view .LVU971
 3493 0766 0020     		movs	r0, #0
 3494 0768 FFF7FEFF 		bl	LCD_WR_DATA
 3495              	.LVL490:
 938:Drivers/LCD_FMC/src/tftLCD.c ****         LCD_WR_DATA(0x00);
 3496              		.loc 1 938 9 view .LVU972
 3497 076c 0020     		movs	r0, #0
 3498 076e FFF7FEFF 		bl	LCD_WR_DATA
 3499              	.LVL491:
 939:Drivers/LCD_FMC/src/tftLCD.c ****         LCD_WR_DATA(0x00);
 3500              		.loc 1 939 9 view .LVU973
 3501 0772 0020     		movs	r0, #0
 3502 0774 FFF7FEFF 		bl	LCD_WR_DATA
 3503              	.LVL492:
 940:Drivers/LCD_FMC/src/tftLCD.c ****         LCD_WR_DATA(0x00);
 3504              		.loc 1 940 9 view .LVU974
 3505 0778 0020     		movs	r0, #0
 3506 077a FFF7FEFF 		bl	LCD_WR_DATA
 3507              	.LVL493:
 941:Drivers/LCD_FMC/src/tftLCD.c ****         LCD_WR_DATA(0x00);
 3508              		.loc 1 941 9 view .LVU975
 3509 077e 0020     		movs	r0, #0
 3510 0780 FFF7FEFF 		bl	LCD_WR_DATA
ARM GAS  C:\usertemp\ccUDQ5mr.s 			page 110


 3511              	.LVL494:
 942:Drivers/LCD_FMC/src/tftLCD.c ****         LCD_WR_DATA(0x00);
 3512              		.loc 1 942 9 view .LVU976
 3513 0784 0020     		movs	r0, #0
 3514 0786 FFF7FEFF 		bl	LCD_WR_DATA
 3515              	.LVL495:
 943:Drivers/LCD_FMC/src/tftLCD.c ****         LCD_WR_DATA(0x00);
 3516              		.loc 1 943 9 view .LVU977
 3517 078a 0020     		movs	r0, #0
 3518 078c FFF7FEFF 		bl	LCD_WR_DATA
 3519              	.LVL496:
 944:Drivers/LCD_FMC/src/tftLCD.c ****         LCD_WR_DATA(0x00);
 3520              		.loc 1 944 9 view .LVU978
 3521 0790 0020     		movs	r0, #0
 3522 0792 FFF7FEFF 		bl	LCD_WR_DATA
 3523              	.LVL497:
 945:Drivers/LCD_FMC/src/tftLCD.c ****         LCD_WR_DATA(0x00);
 3524              		.loc 1 945 9 view .LVU979
 3525 0796 0020     		movs	r0, #0
 3526 0798 FFF7FEFF 		bl	LCD_WR_DATA
 3527              	.LVL498:
 946:Drivers/LCD_FMC/src/tftLCD.c ****         LCD_WR_DATA(0x00);
 3528              		.loc 1 946 9 view .LVU980
 3529 079c 0020     		movs	r0, #0
 3530 079e FFF7FEFF 		bl	LCD_WR_DATA
 3531              	.LVL499:
 947:Drivers/LCD_FMC/src/tftLCD.c ****         LCD_WR_DATA(0x00);
 3532              		.loc 1 947 9 view .LVU981
 3533 07a2 0020     		movs	r0, #0
 3534 07a4 FFF7FEFF 		bl	LCD_WR_DATA
 3535              	.LVL500:
 948:Drivers/LCD_FMC/src/tftLCD.c ****         LCD_WR_DATA(0x00);
 3536              		.loc 1 948 9 view .LVU982
 3537 07a8 0020     		movs	r0, #0
 3538 07aa FFF7FEFF 		bl	LCD_WR_DATA
 3539              	.LVL501:
 949:Drivers/LCD_FMC/src/tftLCD.c ****         LCD_WR_DATA(0x00);
 3540              		.loc 1 949 9 view .LVU983
 3541 07ae 0020     		movs	r0, #0
 3542 07b0 FFF7FEFF 		bl	LCD_WR_DATA
 3543              	.LVL502:
 950:Drivers/LCD_FMC/src/tftLCD.c ****         LCD_WR_DATA(0x00);
 3544              		.loc 1 950 9 view .LVU984
 3545 07b4 0020     		movs	r0, #0
 3546 07b6 FFF7FEFF 		bl	LCD_WR_DATA
 3547              	.LVL503:
 951:Drivers/LCD_FMC/src/tftLCD.c ****         LCD_WR_DATA(0x00);
 3548              		.loc 1 951 9 view .LVU985
 3549 07ba 0020     		movs	r0, #0
 3550 07bc FFF7FEFF 		bl	LCD_WR_DATA
 3551              	.LVL504:
 952:Drivers/LCD_FMC/src/tftLCD.c ****         LCD_WR_DATA(0x00);
 3552              		.loc 1 952 9 view .LVU986
 3553 07c0 0020     		movs	r0, #0
 3554 07c2 FFF7FEFF 		bl	LCD_WR_DATA
 3555              	.LVL505:
 953:Drivers/LCD_FMC/src/tftLCD.c ****         LCD_WR_DATA(0x00);
ARM GAS  C:\usertemp\ccUDQ5mr.s 			page 111


 3556              		.loc 1 953 9 view .LVU987
 3557 07c6 0020     		movs	r0, #0
 3558 07c8 FFF7FEFF 		bl	LCD_WR_DATA
 3559              	.LVL506:
 954:Drivers/LCD_FMC/src/tftLCD.c ****         LCD_WR_DATA(0x00);
 3560              		.loc 1 954 9 view .LVU988
 3561 07cc 0020     		movs	r0, #0
 3562 07ce FFF7FEFF 		bl	LCD_WR_DATA
 3563              	.LVL507:
 955:Drivers/LCD_FMC/src/tftLCD.c ****         LCD_WR_DATA(0x00);
 3564              		.loc 1 955 9 view .LVU989
 3565 07d2 0020     		movs	r0, #0
 3566 07d4 FFF7FEFF 		bl	LCD_WR_DATA
 3567              	.LVL508:
 956:Drivers/LCD_FMC/src/tftLCD.c **** 
 3568              		.loc 1 956 9 view .LVU990
 3569 07d8 0020     		movs	r0, #0
 3570 07da FFF7FEFF 		bl	LCD_WR_DATA
 3571              	.LVL509:
 958:Drivers/LCD_FMC/src/tftLCD.c ****         LCD_WR_DATA(0x8B);
 3572              		.loc 1 958 9 view .LVU991
 3573 07de B420     		movs	r0, #180
 3574 07e0 FFF7FEFF 		bl	LCD_WR_REG
 3575              	.LVL510:
 959:Drivers/LCD_FMC/src/tftLCD.c ****         LCD_WR_DATA(0x00);
 3576              		.loc 1 959 9 view .LVU992
 3577 07e4 8B20     		movs	r0, #139
 3578 07e6 FFF7FEFF 		bl	LCD_WR_DATA
 3579              	.LVL511:
 960:Drivers/LCD_FMC/src/tftLCD.c ****         LCD_WR_DATA(0x96);
 3580              		.loc 1 960 9 view .LVU993
 3581 07ea 0020     		movs	r0, #0
 3582 07ec FFF7FEFF 		bl	LCD_WR_DATA
 3583              	.LVL512:
 961:Drivers/LCD_FMC/src/tftLCD.c ****         LCD_WR_DATA(0x00);
 3584              		.loc 1 961 9 view .LVU994
 3585 07f0 9620     		movs	r0, #150
 3586 07f2 FFF7FEFF 		bl	LCD_WR_DATA
 3587              	.LVL513:
 962:Drivers/LCD_FMC/src/tftLCD.c ****         LCD_WR_DATA(0xA1);
 3588              		.loc 1 962 9 view .LVU995
 3589 07f6 0020     		movs	r0, #0
 3590 07f8 FFF7FEFF 		bl	LCD_WR_DATA
 3591              	.LVL514:
 963:Drivers/LCD_FMC/src/tftLCD.c ****         LCD_WR_DATA(0x00);
 3592              		.loc 1 963 9 view .LVU996
 3593 07fc A120     		movs	r0, #161
 3594 07fe FFF7FEFF 		bl	LCD_WR_DATA
 3595              	.LVL515:
 964:Drivers/LCD_FMC/src/tftLCD.c **** 
 3596              		.loc 1 964 9 view .LVU997
 3597 0802 0020     		movs	r0, #0
 3598 0804 FFF7FEFF 		bl	LCD_WR_DATA
 3599              	.LVL516:
 966:Drivers/LCD_FMC/src/tftLCD.c ****         LCD_WR_DATA(0x02);
 3600              		.loc 1 966 9 view .LVU998
 3601 0808 B520     		movs	r0, #181
ARM GAS  C:\usertemp\ccUDQ5mr.s 			page 112


 3602 080a FFF7FEFF 		bl	LCD_WR_REG
 3603              	.LVL517:
 967:Drivers/LCD_FMC/src/tftLCD.c ****         LCD_WR_DATA(0x00);
 3604              		.loc 1 967 9 view .LVU999
 3605 080e 0220     		movs	r0, #2
 3606 0810 FFF7FEFF 		bl	LCD_WR_DATA
 3607              	.LVL518:
 968:Drivers/LCD_FMC/src/tftLCD.c ****         LCD_WR_DATA(0x03);
 3608              		.loc 1 968 9 view .LVU1000
 3609 0814 0020     		movs	r0, #0
 3610 0816 FFF7FEFF 		bl	LCD_WR_DATA
 3611              	.LVL519:
 969:Drivers/LCD_FMC/src/tftLCD.c ****         LCD_WR_DATA(0x00);
 3612              		.loc 1 969 9 view .LVU1001
 3613 081a 0320     		movs	r0, #3
 3614 081c FFF7FEFF 		bl	LCD_WR_DATA
 3615              	.LVL520:
 970:Drivers/LCD_FMC/src/tftLCD.c ****         LCD_WR_DATA(0x04);
 3616              		.loc 1 970 9 view .LVU1002
 3617 0820 0020     		movs	r0, #0
 3618 0822 FFF7FEFF 		bl	LCD_WR_DATA
 3619              	.LVL521:
 971:Drivers/LCD_FMC/src/tftLCD.c ****         LCD_WR_DATA(0x00);
 3620              		.loc 1 971 9 view .LVU1003
 3621 0826 0420     		movs	r0, #4
 3622 0828 FFF7FEFF 		bl	LCD_WR_DATA
 3623              	.LVL522:
 972:Drivers/LCD_FMC/src/tftLCD.c **** 
 3624              		.loc 1 972 9 view .LVU1004
 3625 082c 0020     		movs	r0, #0
 3626 082e FFF7FEFF 		bl	LCD_WR_DATA
 3627              	.LVL523:
 974:Drivers/LCD_FMC/src/tftLCD.c ****         LCD_WR_DATA(0x00);
 3628              		.loc 1 974 9 view .LVU1005
 3629 0832 B620     		movs	r0, #182
 3630 0834 FFF7FEFF 		bl	LCD_WR_REG
 3631              	.LVL524:
 975:Drivers/LCD_FMC/src/tftLCD.c ****         LCD_WR_DATA(0x00);
 3632              		.loc 1 975 9 view .LVU1006
 3633 0838 0020     		movs	r0, #0
 3634 083a FFF7FEFF 		bl	LCD_WR_DATA
 3635              	.LVL525:
 976:Drivers/LCD_FMC/src/tftLCD.c **** 
 3636              		.loc 1 976 9 view .LVU1007
 3637 083e 0020     		movs	r0, #0
 3638 0840 FFF7FEFF 		bl	LCD_WR_DATA
 3639              	.LVL526:
 978:Drivers/LCD_FMC/src/tftLCD.c ****         LCD_WR_DATA(0x00);
 3640              		.loc 1 978 9 view .LVU1008
 3641 0844 B720     		movs	r0, #183
 3642 0846 FFF7FEFF 		bl	LCD_WR_REG
 3643              	.LVL527:
 979:Drivers/LCD_FMC/src/tftLCD.c ****         LCD_WR_DATA(0x00);
 3644              		.loc 1 979 9 view .LVU1009
 3645 084a 0020     		movs	r0, #0
 3646 084c FFF7FEFF 		bl	LCD_WR_DATA
 3647              	.LVL528:
ARM GAS  C:\usertemp\ccUDQ5mr.s 			page 113


 980:Drivers/LCD_FMC/src/tftLCD.c ****         LCD_WR_DATA(0x3F);
 3648              		.loc 1 980 9 view .LVU1010
 3649 0850 0020     		movs	r0, #0
 3650 0852 FFF7FEFF 		bl	LCD_WR_DATA
 3651              	.LVL529:
 981:Drivers/LCD_FMC/src/tftLCD.c ****         LCD_WR_DATA(0x00);
 3652              		.loc 1 981 9 view .LVU1011
 3653 0856 3F20     		movs	r0, #63
 3654 0858 FFF7FEFF 		bl	LCD_WR_DATA
 3655              	.LVL530:
 982:Drivers/LCD_FMC/src/tftLCD.c ****         LCD_WR_DATA(0x5E);
 3656              		.loc 1 982 9 view .LVU1012
 3657 085c 0020     		movs	r0, #0
 3658 085e FFF7FEFF 		bl	LCD_WR_DATA
 3659              	.LVL531:
 983:Drivers/LCD_FMC/src/tftLCD.c ****         LCD_WR_DATA(0x00);
 3660              		.loc 1 983 9 view .LVU1013
 3661 0862 5E20     		movs	r0, #94
 3662 0864 FFF7FEFF 		bl	LCD_WR_DATA
 3663              	.LVL532:
 984:Drivers/LCD_FMC/src/tftLCD.c ****         LCD_WR_DATA(0x64);
 3664              		.loc 1 984 9 view .LVU1014
 3665 0868 0020     		movs	r0, #0
 3666 086a FFF7FEFF 		bl	LCD_WR_DATA
 3667              	.LVL533:
 985:Drivers/LCD_FMC/src/tftLCD.c ****         LCD_WR_DATA(0x00);
 3668              		.loc 1 985 9 view .LVU1015
 3669 086e 6420     		movs	r0, #100
 3670 0870 FFF7FEFF 		bl	LCD_WR_DATA
 3671              	.LVL534:
 986:Drivers/LCD_FMC/src/tftLCD.c ****         LCD_WR_DATA(0x8C);
 3672              		.loc 1 986 9 view .LVU1016
 3673 0874 0020     		movs	r0, #0
 3674 0876 FFF7FEFF 		bl	LCD_WR_DATA
 3675              	.LVL535:
 987:Drivers/LCD_FMC/src/tftLCD.c ****         LCD_WR_DATA(0x00);
 3676              		.loc 1 987 9 view .LVU1017
 3677 087a 8C20     		movs	r0, #140
 3678 087c FFF7FEFF 		bl	LCD_WR_DATA
 3679              	.LVL536:
 988:Drivers/LCD_FMC/src/tftLCD.c ****         LCD_WR_DATA(0xAC);
 3680              		.loc 1 988 9 view .LVU1018
 3681 0880 0020     		movs	r0, #0
 3682 0882 FFF7FEFF 		bl	LCD_WR_DATA
 3683              	.LVL537:
 989:Drivers/LCD_FMC/src/tftLCD.c ****         LCD_WR_DATA(0x00);
 3684              		.loc 1 989 9 view .LVU1019
 3685 0886 AC20     		movs	r0, #172
 3686 0888 FFF7FEFF 		bl	LCD_WR_DATA
 3687              	.LVL538:
 990:Drivers/LCD_FMC/src/tftLCD.c ****         LCD_WR_DATA(0xDC);
 3688              		.loc 1 990 9 view .LVU1020
 3689 088c 0020     		movs	r0, #0
 3690 088e FFF7FEFF 		bl	LCD_WR_DATA
 3691              	.LVL539:
 991:Drivers/LCD_FMC/src/tftLCD.c ****         LCD_WR_DATA(0x00);
 3692              		.loc 1 991 9 view .LVU1021
ARM GAS  C:\usertemp\ccUDQ5mr.s 			page 114


 3693 0892 DC20     		movs	r0, #220
 3694 0894 FFF7FEFF 		bl	LCD_WR_DATA
 3695              	.LVL540:
 992:Drivers/LCD_FMC/src/tftLCD.c ****         LCD_WR_DATA(0x70);
 3696              		.loc 1 992 9 view .LVU1022
 3697 0898 0020     		movs	r0, #0
 3698 089a FFF7FEFF 		bl	LCD_WR_DATA
 3699              	.LVL541:
 993:Drivers/LCD_FMC/src/tftLCD.c ****         LCD_WR_DATA(0x00);
 3700              		.loc 1 993 9 view .LVU1023
 3701 089e 7020     		movs	r0, #112
 3702 08a0 FFF7FEFF 		bl	LCD_WR_DATA
 3703              	.LVL542:
 994:Drivers/LCD_FMC/src/tftLCD.c ****         LCD_WR_DATA(0x90);
 3704              		.loc 1 994 9 view .LVU1024
 3705 08a4 0020     		movs	r0, #0
 3706 08a6 FFF7FEFF 		bl	LCD_WR_DATA
 3707              	.LVL543:
 995:Drivers/LCD_FMC/src/tftLCD.c ****         LCD_WR_DATA(0x00);
 3708              		.loc 1 995 9 view .LVU1025
 3709 08aa 9020     		movs	r0, #144
 3710 08ac FFF7FEFF 		bl	LCD_WR_DATA
 3711              	.LVL544:
 996:Drivers/LCD_FMC/src/tftLCD.c ****         LCD_WR_DATA(0xEB);
 3712              		.loc 1 996 9 view .LVU1026
 3713 08b0 0020     		movs	r0, #0
 3714 08b2 FFF7FEFF 		bl	LCD_WR_DATA
 3715              	.LVL545:
 997:Drivers/LCD_FMC/src/tftLCD.c ****         LCD_WR_DATA(0x00);
 3716              		.loc 1 997 9 view .LVU1027
 3717 08b6 EB20     		movs	r0, #235
 3718 08b8 FFF7FEFF 		bl	LCD_WR_DATA
 3719              	.LVL546:
 998:Drivers/LCD_FMC/src/tftLCD.c ****         LCD_WR_DATA(0xDC);
 3720              		.loc 1 998 9 view .LVU1028
 3721 08bc 0020     		movs	r0, #0
 3722 08be FFF7FEFF 		bl	LCD_WR_DATA
 3723              	.LVL547:
 999:Drivers/LCD_FMC/src/tftLCD.c ****         LCD_WR_DATA(0x00);
 3724              		.loc 1 999 9 view .LVU1029
 3725 08c2 DC20     		movs	r0, #220
 3726 08c4 FFF7FEFF 		bl	LCD_WR_DATA
 3727              	.LVL548:
1000:Drivers/LCD_FMC/src/tftLCD.c **** 
 3728              		.loc 1 1000 9 view .LVU1030
 3729 08c8 0020     		movs	r0, #0
 3730 08ca FFF7FEFF 		bl	LCD_WR_DATA
 3731              	.LVL549:
1002:Drivers/LCD_FMC/src/tftLCD.c ****         LCD_WR_DATA(0x00);
 3732              		.loc 1 1002 9 view .LVU1031
 3733 08ce B820     		movs	r0, #184
 3734 08d0 FFF7FEFF 		bl	LCD_WR_REG
 3735              	.LVL550:
1003:Drivers/LCD_FMC/src/tftLCD.c ****         LCD_WR_DATA(0x00);
 3736              		.loc 1 1003 9 view .LVU1032
 3737 08d4 0020     		movs	r0, #0
 3738 08d6 FFF7FEFF 		bl	LCD_WR_DATA
ARM GAS  C:\usertemp\ccUDQ5mr.s 			page 115


 3739              	.LVL551:
1004:Drivers/LCD_FMC/src/tftLCD.c ****         LCD_WR_DATA(0x00);
 3740              		.loc 1 1004 9 view .LVU1033
 3741 08da 0020     		movs	r0, #0
 3742 08dc FFF7FEFF 		bl	LCD_WR_DATA
 3743              	.LVL552:
1005:Drivers/LCD_FMC/src/tftLCD.c ****         LCD_WR_DATA(0x00);
 3744              		.loc 1 1005 9 view .LVU1034
 3745 08e0 0020     		movs	r0, #0
 3746 08e2 FFF7FEFF 		bl	LCD_WR_DATA
 3747              	.LVL553:
1006:Drivers/LCD_FMC/src/tftLCD.c ****         LCD_WR_DATA(0x00);
 3748              		.loc 1 1006 9 view .LVU1035
 3749 08e6 0020     		movs	r0, #0
 3750 08e8 FFF7FEFF 		bl	LCD_WR_DATA
 3751              	.LVL554:
1007:Drivers/LCD_FMC/src/tftLCD.c ****         LCD_WR_DATA(0x00);
 3752              		.loc 1 1007 9 view .LVU1036
 3753 08ec 0020     		movs	r0, #0
 3754 08ee FFF7FEFF 		bl	LCD_WR_DATA
 3755              	.LVL555:
1008:Drivers/LCD_FMC/src/tftLCD.c ****         LCD_WR_DATA(0x00);
 3756              		.loc 1 1008 9 view .LVU1037
 3757 08f2 0020     		movs	r0, #0
 3758 08f4 FFF7FEFF 		bl	LCD_WR_DATA
 3759              	.LVL556:
1009:Drivers/LCD_FMC/src/tftLCD.c ****         LCD_WR_DATA(0x00);
 3760              		.loc 1 1009 9 view .LVU1038
 3761 08f8 0020     		movs	r0, #0
 3762 08fa FFF7FEFF 		bl	LCD_WR_DATA
 3763              	.LVL557:
1010:Drivers/LCD_FMC/src/tftLCD.c **** 
 3764              		.loc 1 1010 9 view .LVU1039
 3765 08fe 0020     		movs	r0, #0
 3766 0900 FFF7FEFF 		bl	LCD_WR_DATA
 3767              	.LVL558:
1012:Drivers/LCD_FMC/src/tftLCD.c ****         LCD_WR_DATA(0x24);
 3768              		.loc 1 1012 9 view .LVU1040
 3769 0904 BA20     		movs	r0, #186
 3770 0906 FFF7FEFF 		bl	LCD_WR_REG
 3771              	.LVL559:
1013:Drivers/LCD_FMC/src/tftLCD.c ****         LCD_WR_DATA(0x00);
 3772              		.loc 1 1013 9 view .LVU1041
 3773 090a 2420     		movs	r0, #36
 3774 090c FFF7FEFF 		bl	LCD_WR_DATA
 3775              	.LVL560:
1014:Drivers/LCD_FMC/src/tftLCD.c ****         LCD_WR_DATA(0x00);
 3776              		.loc 1 1014 9 view .LVU1042
 3777 0910 0020     		movs	r0, #0
 3778 0912 FFF7FEFF 		bl	LCD_WR_DATA
 3779              	.LVL561:
1015:Drivers/LCD_FMC/src/tftLCD.c ****         LCD_WR_DATA(0x00);
 3780              		.loc 1 1015 9 view .LVU1043
 3781 0916 0020     		movs	r0, #0
 3782 0918 FFF7FEFF 		bl	LCD_WR_DATA
 3783              	.LVL562:
1016:Drivers/LCD_FMC/src/tftLCD.c **** 
ARM GAS  C:\usertemp\ccUDQ5mr.s 			page 116


 3784              		.loc 1 1016 9 view .LVU1044
 3785 091c 0020     		movs	r0, #0
 3786 091e FFF7FEFF 		bl	LCD_WR_DATA
 3787              	.LVL563:
1018:Drivers/LCD_FMC/src/tftLCD.c ****         LCD_WR_DATA(0x20);
 3788              		.loc 1 1018 9 view .LVU1045
 3789 0922 C120     		movs	r0, #193
 3790 0924 FFF7FEFF 		bl	LCD_WR_REG
 3791              	.LVL564:
1019:Drivers/LCD_FMC/src/tftLCD.c ****         LCD_WR_DATA(0x00);
 3792              		.loc 1 1019 9 view .LVU1046
 3793 0928 2020     		movs	r0, #32
 3794 092a FFF7FEFF 		bl	LCD_WR_DATA
 3795              	.LVL565:
1020:Drivers/LCD_FMC/src/tftLCD.c ****         LCD_WR_DATA(0x54);
 3796              		.loc 1 1020 9 view .LVU1047
 3797 092e 0020     		movs	r0, #0
 3798 0930 FFF7FEFF 		bl	LCD_WR_DATA
 3799              	.LVL566:
1021:Drivers/LCD_FMC/src/tftLCD.c ****         LCD_WR_DATA(0x00);
 3800              		.loc 1 1021 9 view .LVU1048
 3801 0934 5420     		movs	r0, #84
 3802 0936 FFF7FEFF 		bl	LCD_WR_DATA
 3803              	.LVL567:
1022:Drivers/LCD_FMC/src/tftLCD.c ****         LCD_WR_DATA(0xFF);
 3804              		.loc 1 1022 9 view .LVU1049
 3805 093a 0020     		movs	r0, #0
 3806 093c FFF7FEFF 		bl	LCD_WR_DATA
 3807              	.LVL568:
1023:Drivers/LCD_FMC/src/tftLCD.c ****         LCD_WR_DATA(0x00);
 3808              		.loc 1 1023 9 view .LVU1050
 3809 0940 FF20     		movs	r0, #255
 3810 0942 FFF7FEFF 		bl	LCD_WR_DATA
 3811              	.LVL569:
1024:Drivers/LCD_FMC/src/tftLCD.c **** 
 3812              		.loc 1 1024 9 view .LVU1051
 3813 0946 0020     		movs	r0, #0
 3814 0948 FFF7FEFF 		bl	LCD_WR_DATA
 3815              	.LVL570:
1026:Drivers/LCD_FMC/src/tftLCD.c ****         LCD_WR_DATA(0x0A);
 3816              		.loc 1 1026 9 view .LVU1052
 3817 094c C220     		movs	r0, #194
 3818 094e FFF7FEFF 		bl	LCD_WR_REG
 3819              	.LVL571:
1027:Drivers/LCD_FMC/src/tftLCD.c ****         LCD_WR_DATA(0x00);
 3820              		.loc 1 1027 9 view .LVU1053
 3821 0952 0A20     		movs	r0, #10
 3822 0954 FFF7FEFF 		bl	LCD_WR_DATA
 3823              	.LVL572:
1028:Drivers/LCD_FMC/src/tftLCD.c ****         LCD_WR_DATA(0x04);
 3824              		.loc 1 1028 9 view .LVU1054
 3825 0958 0020     		movs	r0, #0
 3826 095a FFF7FEFF 		bl	LCD_WR_DATA
 3827              	.LVL573:
1029:Drivers/LCD_FMC/src/tftLCD.c ****         LCD_WR_DATA(0x00);
 3828              		.loc 1 1029 9 view .LVU1055
 3829 095e 0420     		movs	r0, #4
ARM GAS  C:\usertemp\ccUDQ5mr.s 			page 117


 3830 0960 FFF7FEFF 		bl	LCD_WR_DATA
 3831              	.LVL574:
1030:Drivers/LCD_FMC/src/tftLCD.c **** 
 3832              		.loc 1 1030 9 view .LVU1056
 3833 0964 0020     		movs	r0, #0
 3834 0966 FFF7FEFF 		bl	LCD_WR_DATA
 3835              	.LVL575:
1032:Drivers/LCD_FMC/src/tftLCD.c ****         LCD_WR_DATA(0x3C);
 3836              		.loc 1 1032 9 view .LVU1057
 3837 096a C320     		movs	r0, #195
 3838 096c FFF7FEFF 		bl	LCD_WR_REG
 3839              	.LVL576:
1033:Drivers/LCD_FMC/src/tftLCD.c ****         LCD_WR_DATA(0x00);
 3840              		.loc 1 1033 9 view .LVU1058
 3841 0970 3C20     		movs	r0, #60
 3842 0972 FFF7FEFF 		bl	LCD_WR_DATA
 3843              	.LVL577:
1034:Drivers/LCD_FMC/src/tftLCD.c ****         LCD_WR_DATA(0x3A);
 3844              		.loc 1 1034 9 view .LVU1059
 3845 0976 0020     		movs	r0, #0
 3846 0978 FFF7FEFF 		bl	LCD_WR_DATA
 3847              	.LVL578:
1035:Drivers/LCD_FMC/src/tftLCD.c ****         LCD_WR_DATA(0x00);
 3848              		.loc 1 1035 9 view .LVU1060
 3849 097c 3A20     		movs	r0, #58
 3850 097e FFF7FEFF 		bl	LCD_WR_DATA
 3851              	.LVL579:
1036:Drivers/LCD_FMC/src/tftLCD.c ****         LCD_WR_DATA(0x39);
 3852              		.loc 1 1036 9 view .LVU1061
 3853 0982 0020     		movs	r0, #0
 3854 0984 FFF7FEFF 		bl	LCD_WR_DATA
 3855              	.LVL580:
1037:Drivers/LCD_FMC/src/tftLCD.c ****         LCD_WR_DATA(0x00);
 3856              		.loc 1 1037 9 view .LVU1062
 3857 0988 3920     		movs	r0, #57
 3858 098a FFF7FEFF 		bl	LCD_WR_DATA
 3859              	.LVL581:
1038:Drivers/LCD_FMC/src/tftLCD.c ****         LCD_WR_DATA(0x37);
 3860              		.loc 1 1038 9 view .LVU1063
 3861 098e 0020     		movs	r0, #0
 3862 0990 FFF7FEFF 		bl	LCD_WR_DATA
 3863              	.LVL582:
1039:Drivers/LCD_FMC/src/tftLCD.c ****         LCD_WR_DATA(0x00);
 3864              		.loc 1 1039 9 view .LVU1064
 3865 0994 3720     		movs	r0, #55
 3866 0996 FFF7FEFF 		bl	LCD_WR_DATA
 3867              	.LVL583:
1040:Drivers/LCD_FMC/src/tftLCD.c ****         LCD_WR_DATA(0x3C);
 3868              		.loc 1 1040 9 view .LVU1065
 3869 099a 0020     		movs	r0, #0
 3870 099c FFF7FEFF 		bl	LCD_WR_DATA
 3871              	.LVL584:
1041:Drivers/LCD_FMC/src/tftLCD.c ****         LCD_WR_DATA(0x00);
 3872              		.loc 1 1041 9 view .LVU1066
 3873 09a0 3C20     		movs	r0, #60
 3874 09a2 FFF7FEFF 		bl	LCD_WR_DATA
 3875              	.LVL585:
ARM GAS  C:\usertemp\ccUDQ5mr.s 			page 118


1042:Drivers/LCD_FMC/src/tftLCD.c ****         LCD_WR_DATA(0x36);
 3876              		.loc 1 1042 9 view .LVU1067
 3877 09a6 0020     		movs	r0, #0
 3878 09a8 FFF7FEFF 		bl	LCD_WR_DATA
 3879              	.LVL586:
1043:Drivers/LCD_FMC/src/tftLCD.c ****         LCD_WR_DATA(0x00);
 3880              		.loc 1 1043 9 view .LVU1068
 3881 09ac 3620     		movs	r0, #54
 3882 09ae FFF7FEFF 		bl	LCD_WR_DATA
 3883              	.LVL587:
1044:Drivers/LCD_FMC/src/tftLCD.c ****         LCD_WR_DATA(0x32);
 3884              		.loc 1 1044 9 view .LVU1069
 3885 09b2 0020     		movs	r0, #0
 3886 09b4 FFF7FEFF 		bl	LCD_WR_DATA
 3887              	.LVL588:
1045:Drivers/LCD_FMC/src/tftLCD.c ****         LCD_WR_DATA(0x00);
 3888              		.loc 1 1045 9 view .LVU1070
 3889 09b8 3220     		movs	r0, #50
 3890 09ba FFF7FEFF 		bl	LCD_WR_DATA
 3891              	.LVL589:
1046:Drivers/LCD_FMC/src/tftLCD.c ****         LCD_WR_DATA(0x2F);
 3892              		.loc 1 1046 9 view .LVU1071
 3893 09be 0020     		movs	r0, #0
 3894 09c0 FFF7FEFF 		bl	LCD_WR_DATA
 3895              	.LVL590:
1047:Drivers/LCD_FMC/src/tftLCD.c ****         LCD_WR_DATA(0x00);
 3896              		.loc 1 1047 9 view .LVU1072
 3897 09c4 2F20     		movs	r0, #47
 3898 09c6 FFF7FEFF 		bl	LCD_WR_DATA
 3899              	.LVL591:
1048:Drivers/LCD_FMC/src/tftLCD.c ****         LCD_WR_DATA(0x2C);
 3900              		.loc 1 1048 9 view .LVU1073
 3901 09ca 0020     		movs	r0, #0
 3902 09cc FFF7FEFF 		bl	LCD_WR_DATA
 3903              	.LVL592:
1049:Drivers/LCD_FMC/src/tftLCD.c ****         LCD_WR_DATA(0x00);
 3904              		.loc 1 1049 9 view .LVU1074
 3905 09d0 2C20     		movs	r0, #44
 3906 09d2 FFF7FEFF 		bl	LCD_WR_DATA
 3907              	.LVL593:
1050:Drivers/LCD_FMC/src/tftLCD.c ****         LCD_WR_DATA(0x29);
 3908              		.loc 1 1050 9 view .LVU1075
 3909 09d6 0020     		movs	r0, #0
 3910 09d8 FFF7FEFF 		bl	LCD_WR_DATA
 3911              	.LVL594:
1051:Drivers/LCD_FMC/src/tftLCD.c ****         LCD_WR_DATA(0x00);
 3912              		.loc 1 1051 9 view .LVU1076
 3913 09dc 2920     		movs	r0, #41
 3914 09de FFF7FEFF 		bl	LCD_WR_DATA
 3915              	.LVL595:
1052:Drivers/LCD_FMC/src/tftLCD.c ****         LCD_WR_DATA(0x26);
 3916              		.loc 1 1052 9 view .LVU1077
 3917 09e2 0020     		movs	r0, #0
 3918 09e4 FFF7FEFF 		bl	LCD_WR_DATA
 3919              	.LVL596:
1053:Drivers/LCD_FMC/src/tftLCD.c ****         LCD_WR_DATA(0x00);
 3920              		.loc 1 1053 9 view .LVU1078
ARM GAS  C:\usertemp\ccUDQ5mr.s 			page 119


 3921 09e8 2620     		movs	r0, #38
 3922 09ea FFF7FEFF 		bl	LCD_WR_DATA
 3923              	.LVL597:
1054:Drivers/LCD_FMC/src/tftLCD.c ****         LCD_WR_DATA(0x24);
 3924              		.loc 1 1054 9 view .LVU1079
 3925 09ee 0020     		movs	r0, #0
 3926 09f0 FFF7FEFF 		bl	LCD_WR_DATA
 3927              	.LVL598:
1055:Drivers/LCD_FMC/src/tftLCD.c ****         LCD_WR_DATA(0x00);
 3928              		.loc 1 1055 9 view .LVU1080
 3929 09f4 2420     		movs	r0, #36
 3930 09f6 FFF7FEFF 		bl	LCD_WR_DATA
 3931              	.LVL599:
1056:Drivers/LCD_FMC/src/tftLCD.c ****         LCD_WR_DATA(0x24);
 3932              		.loc 1 1056 9 view .LVU1081
 3933 09fa 0020     		movs	r0, #0
 3934 09fc FFF7FEFF 		bl	LCD_WR_DATA
 3935              	.LVL600:
1057:Drivers/LCD_FMC/src/tftLCD.c ****         LCD_WR_DATA(0x00);
 3936              		.loc 1 1057 9 view .LVU1082
 3937 0a00 2420     		movs	r0, #36
 3938 0a02 FFF7FEFF 		bl	LCD_WR_DATA
 3939              	.LVL601:
1058:Drivers/LCD_FMC/src/tftLCD.c ****         LCD_WR_DATA(0x23);
 3940              		.loc 1 1058 9 view .LVU1083
 3941 0a06 0020     		movs	r0, #0
 3942 0a08 FFF7FEFF 		bl	LCD_WR_DATA
 3943              	.LVL602:
1059:Drivers/LCD_FMC/src/tftLCD.c ****         LCD_WR_DATA(0x00);
 3944              		.loc 1 1059 9 view .LVU1084
 3945 0a0c 2320     		movs	r0, #35
 3946 0a0e FFF7FEFF 		bl	LCD_WR_DATA
 3947              	.LVL603:
1060:Drivers/LCD_FMC/src/tftLCD.c ****         LCD_WR_DATA(0x3C);
 3948              		.loc 1 1060 9 view .LVU1085
 3949 0a12 0020     		movs	r0, #0
 3950 0a14 FFF7FEFF 		bl	LCD_WR_DATA
 3951              	.LVL604:
1061:Drivers/LCD_FMC/src/tftLCD.c ****         LCD_WR_DATA(0x00);
 3952              		.loc 1 1061 9 view .LVU1086
 3953 0a18 3C20     		movs	r0, #60
 3954 0a1a FFF7FEFF 		bl	LCD_WR_DATA
 3955              	.LVL605:
1062:Drivers/LCD_FMC/src/tftLCD.c ****         LCD_WR_DATA(0x36);
 3956              		.loc 1 1062 9 view .LVU1087
 3957 0a1e 0020     		movs	r0, #0
 3958 0a20 FFF7FEFF 		bl	LCD_WR_DATA
 3959              	.LVL606:
1063:Drivers/LCD_FMC/src/tftLCD.c ****         LCD_WR_DATA(0x00);
 3960              		.loc 1 1063 9 view .LVU1088
 3961 0a24 3620     		movs	r0, #54
 3962 0a26 FFF7FEFF 		bl	LCD_WR_DATA
 3963              	.LVL607:
1064:Drivers/LCD_FMC/src/tftLCD.c ****         LCD_WR_DATA(0x32);
 3964              		.loc 1 1064 9 view .LVU1089
 3965 0a2a 0020     		movs	r0, #0
 3966 0a2c FFF7FEFF 		bl	LCD_WR_DATA
ARM GAS  C:\usertemp\ccUDQ5mr.s 			page 120


 3967              	.LVL608:
1065:Drivers/LCD_FMC/src/tftLCD.c ****         LCD_WR_DATA(0x00);
 3968              		.loc 1 1065 9 view .LVU1090
 3969 0a30 3220     		movs	r0, #50
 3970 0a32 FFF7FEFF 		bl	LCD_WR_DATA
 3971              	.LVL609:
1066:Drivers/LCD_FMC/src/tftLCD.c ****         LCD_WR_DATA(0x2F);
 3972              		.loc 1 1066 9 view .LVU1091
 3973 0a36 0020     		movs	r0, #0
 3974 0a38 FFF7FEFF 		bl	LCD_WR_DATA
 3975              	.LVL610:
1067:Drivers/LCD_FMC/src/tftLCD.c ****         LCD_WR_DATA(0x00);
 3976              		.loc 1 1067 9 view .LVU1092
 3977 0a3c 2F20     		movs	r0, #47
 3978 0a3e FFF7FEFF 		bl	LCD_WR_DATA
 3979              	.LVL611:
1068:Drivers/LCD_FMC/src/tftLCD.c ****         LCD_WR_DATA(0x2C);
 3980              		.loc 1 1068 9 view .LVU1093
 3981 0a42 0020     		movs	r0, #0
 3982 0a44 FFF7FEFF 		bl	LCD_WR_DATA
 3983              	.LVL612:
1069:Drivers/LCD_FMC/src/tftLCD.c ****         LCD_WR_DATA(0x00);
 3984              		.loc 1 1069 9 view .LVU1094
 3985 0a48 2C20     		movs	r0, #44
 3986 0a4a FFF7FEFF 		bl	LCD_WR_DATA
 3987              	.LVL613:
1070:Drivers/LCD_FMC/src/tftLCD.c ****         LCD_WR_DATA(0x29);
 3988              		.loc 1 1070 9 view .LVU1095
 3989 0a4e 0020     		movs	r0, #0
 3990 0a50 FFF7FEFF 		bl	LCD_WR_DATA
 3991              	.LVL614:
1071:Drivers/LCD_FMC/src/tftLCD.c ****         LCD_WR_DATA(0x00);
 3992              		.loc 1 1071 9 view .LVU1096
 3993 0a54 2920     		movs	r0, #41
 3994 0a56 FFF7FEFF 		bl	LCD_WR_DATA
 3995              	.LVL615:
1072:Drivers/LCD_FMC/src/tftLCD.c ****         LCD_WR_DATA(0x26);
 3996              		.loc 1 1072 9 view .LVU1097
 3997 0a5a 0020     		movs	r0, #0
 3998 0a5c FFF7FEFF 		bl	LCD_WR_DATA
 3999              	.LVL616:
1073:Drivers/LCD_FMC/src/tftLCD.c ****         LCD_WR_DATA(0x00);
 4000              		.loc 1 1073 9 view .LVU1098
 4001 0a60 2620     		movs	r0, #38
 4002 0a62 FFF7FEFF 		bl	LCD_WR_DATA
 4003              	.LVL617:
1074:Drivers/LCD_FMC/src/tftLCD.c ****         LCD_WR_DATA(0x24);
 4004              		.loc 1 1074 9 view .LVU1099
 4005 0a66 0020     		movs	r0, #0
 4006 0a68 FFF7FEFF 		bl	LCD_WR_DATA
 4007              	.LVL618:
1075:Drivers/LCD_FMC/src/tftLCD.c ****         LCD_WR_DATA(0x00);
 4008              		.loc 1 1075 9 view .LVU1100
 4009 0a6c 2420     		movs	r0, #36
 4010 0a6e FFF7FEFF 		bl	LCD_WR_DATA
 4011              	.LVL619:
1076:Drivers/LCD_FMC/src/tftLCD.c ****         LCD_WR_DATA(0x24);
ARM GAS  C:\usertemp\ccUDQ5mr.s 			page 121


 4012              		.loc 1 1076 9 view .LVU1101
 4013 0a72 0020     		movs	r0, #0
 4014 0a74 FFF7FEFF 		bl	LCD_WR_DATA
 4015              	.LVL620:
1077:Drivers/LCD_FMC/src/tftLCD.c ****         LCD_WR_DATA(0x00);
 4016              		.loc 1 1077 9 view .LVU1102
 4017 0a78 2420     		movs	r0, #36
 4018 0a7a FFF7FEFF 		bl	LCD_WR_DATA
 4019              	.LVL621:
1078:Drivers/LCD_FMC/src/tftLCD.c ****         LCD_WR_DATA(0x23);
 4020              		.loc 1 1078 9 view .LVU1103
 4021 0a7e 0020     		movs	r0, #0
 4022 0a80 FFF7FEFF 		bl	LCD_WR_DATA
 4023              	.LVL622:
1079:Drivers/LCD_FMC/src/tftLCD.c ****         LCD_WR_DATA(0x00);
 4024              		.loc 1 1079 9 view .LVU1104
 4025 0a84 2320     		movs	r0, #35
 4026 0a86 FFF7FEFF 		bl	LCD_WR_DATA
 4027              	.LVL623:
1080:Drivers/LCD_FMC/src/tftLCD.c **** 
 4028              		.loc 1 1080 9 view .LVU1105
 4029 0a8a 0020     		movs	r0, #0
 4030 0a8c FFF7FEFF 		bl	LCD_WR_DATA
 4031              	.LVL624:
1082:Drivers/LCD_FMC/src/tftLCD.c ****         LCD_WR_DATA(0x62);
 4032              		.loc 1 1082 9 view .LVU1106
 4033 0a90 C420     		movs	r0, #196
 4034 0a92 FFF7FEFF 		bl	LCD_WR_REG
 4035              	.LVL625:
1083:Drivers/LCD_FMC/src/tftLCD.c ****         LCD_WR_DATA(0x00);
 4036              		.loc 1 1083 9 view .LVU1107
 4037 0a96 6220     		movs	r0, #98
 4038 0a98 FFF7FEFF 		bl	LCD_WR_DATA
 4039              	.LVL626:
1084:Drivers/LCD_FMC/src/tftLCD.c ****         LCD_WR_DATA(0x05);
 4040              		.loc 1 1084 9 view .LVU1108
 4041 0a9c 0020     		movs	r0, #0
 4042 0a9e FFF7FEFF 		bl	LCD_WR_DATA
 4043              	.LVL627:
1085:Drivers/LCD_FMC/src/tftLCD.c ****         LCD_WR_DATA(0x00);
 4044              		.loc 1 1085 9 view .LVU1109
 4045 0aa2 0520     		movs	r0, #5
 4046 0aa4 FFF7FEFF 		bl	LCD_WR_DATA
 4047              	.LVL628:
1086:Drivers/LCD_FMC/src/tftLCD.c ****         LCD_WR_DATA(0x84);
 4048              		.loc 1 1086 9 view .LVU1110
 4049 0aa8 0020     		movs	r0, #0
 4050 0aaa FFF7FEFF 		bl	LCD_WR_DATA
 4051              	.LVL629:
1087:Drivers/LCD_FMC/src/tftLCD.c ****         LCD_WR_DATA(0x00);
 4052              		.loc 1 1087 9 view .LVU1111
 4053 0aae 8420     		movs	r0, #132
 4054 0ab0 FFF7FEFF 		bl	LCD_WR_DATA
 4055              	.LVL630:
1088:Drivers/LCD_FMC/src/tftLCD.c ****         LCD_WR_DATA(0xF0);
 4056              		.loc 1 1088 9 view .LVU1112
 4057 0ab4 0020     		movs	r0, #0
ARM GAS  C:\usertemp\ccUDQ5mr.s 			page 122


 4058 0ab6 FFF7FEFF 		bl	LCD_WR_DATA
 4059              	.LVL631:
1089:Drivers/LCD_FMC/src/tftLCD.c ****         LCD_WR_DATA(0x00);
 4060              		.loc 1 1089 9 view .LVU1113
 4061 0aba F020     		movs	r0, #240
 4062 0abc FFF7FEFF 		bl	LCD_WR_DATA
 4063              	.LVL632:
1090:Drivers/LCD_FMC/src/tftLCD.c ****         LCD_WR_DATA(0x18);
 4064              		.loc 1 1090 9 view .LVU1114
 4065 0ac0 0020     		movs	r0, #0
 4066 0ac2 FFF7FEFF 		bl	LCD_WR_DATA
 4067              	.LVL633:
1091:Drivers/LCD_FMC/src/tftLCD.c ****         LCD_WR_DATA(0x00);
 4068              		.loc 1 1091 9 view .LVU1115
 4069 0ac6 1820     		movs	r0, #24
 4070 0ac8 FFF7FEFF 		bl	LCD_WR_DATA
 4071              	.LVL634:
1092:Drivers/LCD_FMC/src/tftLCD.c ****         LCD_WR_DATA(0xA4);
 4072              		.loc 1 1092 9 view .LVU1116
 4073 0acc 0020     		movs	r0, #0
 4074 0ace FFF7FEFF 		bl	LCD_WR_DATA
 4075              	.LVL635:
1093:Drivers/LCD_FMC/src/tftLCD.c ****         LCD_WR_DATA(0x00);
 4076              		.loc 1 1093 9 view .LVU1117
 4077 0ad2 A420     		movs	r0, #164
 4078 0ad4 FFF7FEFF 		bl	LCD_WR_DATA
 4079              	.LVL636:
1094:Drivers/LCD_FMC/src/tftLCD.c ****         LCD_WR_DATA(0x18);
 4080              		.loc 1 1094 9 view .LVU1118
 4081 0ad8 0020     		movs	r0, #0
 4082 0ada FFF7FEFF 		bl	LCD_WR_DATA
 4083              	.LVL637:
1095:Drivers/LCD_FMC/src/tftLCD.c ****         LCD_WR_DATA(0x00);
 4084              		.loc 1 1095 9 view .LVU1119
 4085 0ade 1820     		movs	r0, #24
 4086 0ae0 FFF7FEFF 		bl	LCD_WR_DATA
 4087              	.LVL638:
1096:Drivers/LCD_FMC/src/tftLCD.c ****         LCD_WR_DATA(0x50);
 4088              		.loc 1 1096 9 view .LVU1120
 4089 0ae4 0020     		movs	r0, #0
 4090 0ae6 FFF7FEFF 		bl	LCD_WR_DATA
 4091              	.LVL639:
1097:Drivers/LCD_FMC/src/tftLCD.c ****         LCD_WR_DATA(0x00);
 4092              		.loc 1 1097 9 view .LVU1121
 4093 0aea 5020     		movs	r0, #80
 4094 0aec FFF7FEFF 		bl	LCD_WR_DATA
 4095              	.LVL640:
1098:Drivers/LCD_FMC/src/tftLCD.c ****         LCD_WR_DATA(0x0C);
 4096              		.loc 1 1098 9 view .LVU1122
 4097 0af0 0020     		movs	r0, #0
 4098 0af2 FFF7FEFF 		bl	LCD_WR_DATA
 4099              	.LVL641:
1099:Drivers/LCD_FMC/src/tftLCD.c ****         LCD_WR_DATA(0x00);
 4100              		.loc 1 1099 9 view .LVU1123
 4101 0af6 0C20     		movs	r0, #12
 4102 0af8 FFF7FEFF 		bl	LCD_WR_DATA
 4103              	.LVL642:
ARM GAS  C:\usertemp\ccUDQ5mr.s 			page 123


1100:Drivers/LCD_FMC/src/tftLCD.c ****         LCD_WR_DATA(0x17);
 4104              		.loc 1 1100 9 view .LVU1124
 4105 0afc 0020     		movs	r0, #0
 4106 0afe FFF7FEFF 		bl	LCD_WR_DATA
 4107              	.LVL643:
1101:Drivers/LCD_FMC/src/tftLCD.c ****         LCD_WR_DATA(0x00);
 4108              		.loc 1 1101 9 view .LVU1125
 4109 0b02 1720     		movs	r0, #23
 4110 0b04 FFF7FEFF 		bl	LCD_WR_DATA
 4111              	.LVL644:
1102:Drivers/LCD_FMC/src/tftLCD.c ****         LCD_WR_DATA(0x95);
 4112              		.loc 1 1102 9 view .LVU1126
 4113 0b08 0020     		movs	r0, #0
 4114 0b0a FFF7FEFF 		bl	LCD_WR_DATA
 4115              	.LVL645:
1103:Drivers/LCD_FMC/src/tftLCD.c ****         LCD_WR_DATA(0x00);
 4116              		.loc 1 1103 9 view .LVU1127
 4117 0b0e 9520     		movs	r0, #149
 4118 0b10 FFF7FEFF 		bl	LCD_WR_DATA
 4119              	.LVL646:
1104:Drivers/LCD_FMC/src/tftLCD.c ****         LCD_WR_DATA(0xF3);
 4120              		.loc 1 1104 9 view .LVU1128
 4121 0b14 0020     		movs	r0, #0
 4122 0b16 FFF7FEFF 		bl	LCD_WR_DATA
 4123              	.LVL647:
1105:Drivers/LCD_FMC/src/tftLCD.c ****         LCD_WR_DATA(0x00);
 4124              		.loc 1 1105 9 view .LVU1129
 4125 0b1a F320     		movs	r0, #243
 4126 0b1c FFF7FEFF 		bl	LCD_WR_DATA
 4127              	.LVL648:
1106:Drivers/LCD_FMC/src/tftLCD.c ****         LCD_WR_DATA(0xE6);
 4128              		.loc 1 1106 9 view .LVU1130
 4129 0b20 0020     		movs	r0, #0
 4130 0b22 FFF7FEFF 		bl	LCD_WR_DATA
 4131              	.LVL649:
1107:Drivers/LCD_FMC/src/tftLCD.c ****         LCD_WR_DATA(0x00);
 4132              		.loc 1 1107 9 view .LVU1131
 4133 0b26 E620     		movs	r0, #230
 4134 0b28 FFF7FEFF 		bl	LCD_WR_DATA
 4135              	.LVL650:
1108:Drivers/LCD_FMC/src/tftLCD.c **** 
 4136              		.loc 1 1108 9 view .LVU1132
 4137 0b2c 0020     		movs	r0, #0
 4138 0b2e FFF7FEFF 		bl	LCD_WR_DATA
 4139              	.LVL651:
1110:Drivers/LCD_FMC/src/tftLCD.c ****         LCD_WR_DATA(0x32);
 4140              		.loc 1 1110 9 view .LVU1133
 4141 0b32 C520     		movs	r0, #197
 4142 0b34 FFF7FEFF 		bl	LCD_WR_REG
 4143              	.LVL652:
1111:Drivers/LCD_FMC/src/tftLCD.c ****         LCD_WR_DATA(0x00);
 4144              		.loc 1 1111 9 view .LVU1134
 4145 0b38 3220     		movs	r0, #50
 4146 0b3a FFF7FEFF 		bl	LCD_WR_DATA
 4147              	.LVL653:
1112:Drivers/LCD_FMC/src/tftLCD.c ****         LCD_WR_DATA(0x44);
 4148              		.loc 1 1112 9 view .LVU1135
ARM GAS  C:\usertemp\ccUDQ5mr.s 			page 124


 4149 0b3e 0020     		movs	r0, #0
 4150 0b40 FFF7FEFF 		bl	LCD_WR_DATA
 4151              	.LVL654:
1113:Drivers/LCD_FMC/src/tftLCD.c ****         LCD_WR_DATA(0x00);
 4152              		.loc 1 1113 9 view .LVU1136
 4153 0b44 4420     		movs	r0, #68
 4154 0b46 FFF7FEFF 		bl	LCD_WR_DATA
 4155              	.LVL655:
1114:Drivers/LCD_FMC/src/tftLCD.c ****         LCD_WR_DATA(0x65);
 4156              		.loc 1 1114 9 view .LVU1137
 4157 0b4a 0020     		movs	r0, #0
 4158 0b4c FFF7FEFF 		bl	LCD_WR_DATA
 4159              	.LVL656:
1115:Drivers/LCD_FMC/src/tftLCD.c ****         LCD_WR_DATA(0x00);
 4160              		.loc 1 1115 9 view .LVU1138
 4161 0b50 6520     		movs	r0, #101
 4162 0b52 FFF7FEFF 		bl	LCD_WR_DATA
 4163              	.LVL657:
1116:Drivers/LCD_FMC/src/tftLCD.c ****         LCD_WR_DATA(0x76);
 4164              		.loc 1 1116 9 view .LVU1139
 4165 0b56 0020     		movs	r0, #0
 4166 0b58 FFF7FEFF 		bl	LCD_WR_DATA
 4167              	.LVL658:
1117:Drivers/LCD_FMC/src/tftLCD.c ****         LCD_WR_DATA(0x00);
 4168              		.loc 1 1117 9 view .LVU1140
 4169 0b5c 7620     		movs	r0, #118
 4170 0b5e FFF7FEFF 		bl	LCD_WR_DATA
 4171              	.LVL659:
1118:Drivers/LCD_FMC/src/tftLCD.c ****         LCD_WR_DATA(0x88);
 4172              		.loc 1 1118 9 view .LVU1141
 4173 0b62 0020     		movs	r0, #0
 4174 0b64 FFF7FEFF 		bl	LCD_WR_DATA
 4175              	.LVL660:
1119:Drivers/LCD_FMC/src/tftLCD.c ****         LCD_WR_DATA(0x00);
 4176              		.loc 1 1119 9 view .LVU1142
 4177 0b68 8820     		movs	r0, #136
 4178 0b6a FFF7FEFF 		bl	LCD_WR_DATA
 4179              	.LVL661:
1120:Drivers/LCD_FMC/src/tftLCD.c **** 
 4180              		.loc 1 1120 9 view .LVU1143
 4181 0b6e 0020     		movs	r0, #0
 4182 0b70 FFF7FEFF 		bl	LCD_WR_DATA
 4183              	.LVL662:
1122:Drivers/LCD_FMC/src/tftLCD.c ****         LCD_WR_DATA(0x20);
 4184              		.loc 1 1122 9 view .LVU1144
 4185 0b74 C620     		movs	r0, #198
 4186 0b76 FFF7FEFF 		bl	LCD_WR_REG
 4187              	.LVL663:
1123:Drivers/LCD_FMC/src/tftLCD.c ****         LCD_WR_DATA(0x00);
 4188              		.loc 1 1123 9 view .LVU1145
 4189 0b7a 2020     		movs	r0, #32
 4190 0b7c FFF7FEFF 		bl	LCD_WR_DATA
 4191              	.LVL664:
1124:Drivers/LCD_FMC/src/tftLCD.c ****         LCD_WR_DATA(0x17);
 4192              		.loc 1 1124 9 view .LVU1146
 4193 0b80 0020     		movs	r0, #0
 4194 0b82 FFF7FEFF 		bl	LCD_WR_DATA
ARM GAS  C:\usertemp\ccUDQ5mr.s 			page 125


 4195              	.LVL665:
1125:Drivers/LCD_FMC/src/tftLCD.c ****         LCD_WR_DATA(0x00);
 4196              		.loc 1 1125 9 view .LVU1147
 4197 0b86 1720     		movs	r0, #23
 4198 0b88 FFF7FEFF 		bl	LCD_WR_DATA
 4199              	.LVL666:
1126:Drivers/LCD_FMC/src/tftLCD.c ****         LCD_WR_DATA(0x01);
 4200              		.loc 1 1126 9 view .LVU1148
 4201 0b8c 0020     		movs	r0, #0
 4202 0b8e FFF7FEFF 		bl	LCD_WR_DATA
 4203              	.LVL667:
1127:Drivers/LCD_FMC/src/tftLCD.c ****         LCD_WR_DATA(0x00);
 4204              		.loc 1 1127 9 view .LVU1149
 4205 0b92 0120     		movs	r0, #1
 4206 0b94 FFF7FEFF 		bl	LCD_WR_DATA
 4207              	.LVL668:
1128:Drivers/LCD_FMC/src/tftLCD.c **** 
 4208              		.loc 1 1128 9 view .LVU1150
 4209 0b98 0020     		movs	r0, #0
 4210 0b9a FFF7FEFF 		bl	LCD_WR_DATA
 4211              	.LVL669:
1130:Drivers/LCD_FMC/src/tftLCD.c ****         LCD_WR_DATA(0x00);
 4212              		.loc 1 1130 9 view .LVU1151
 4213 0b9e C720     		movs	r0, #199
 4214 0ba0 FFF7FEFF 		bl	LCD_WR_REG
 4215              	.LVL670:
1131:Drivers/LCD_FMC/src/tftLCD.c ****         LCD_WR_DATA(0x00);
 4216              		.loc 1 1131 9 view .LVU1152
 4217 0ba4 0020     		movs	r0, #0
 4218 0ba6 FFF7FEFF 		bl	LCD_WR_DATA
 4219              	.LVL671:
1132:Drivers/LCD_FMC/src/tftLCD.c ****         LCD_WR_DATA(0x00);
 4220              		.loc 1 1132 9 view .LVU1153
 4221 0baa 0020     		movs	r0, #0
 4222 0bac FFF7FEFF 		bl	LCD_WR_DATA
 4223              	.LVL672:
1133:Drivers/LCD_FMC/src/tftLCD.c ****         LCD_WR_DATA(0x00);
 4224              		.loc 1 1133 9 view .LVU1154
 4225 0bb0 0020     		movs	r0, #0
 4226 0bb2 FFF7FEFF 		bl	LCD_WR_DATA
 4227              	.LVL673:
1134:Drivers/LCD_FMC/src/tftLCD.c **** 
 4228              		.loc 1 1134 9 view .LVU1155
 4229 0bb6 0020     		movs	r0, #0
 4230 0bb8 FFF7FEFF 		bl	LCD_WR_DATA
 4231              	.LVL674:
1136:Drivers/LCD_FMC/src/tftLCD.c ****         LCD_WR_DATA(0x00);
 4232              		.loc 1 1136 9 view .LVU1156
 4233 0bbc C820     		movs	r0, #200
 4234 0bbe FFF7FEFF 		bl	LCD_WR_REG
 4235              	.LVL675:
1137:Drivers/LCD_FMC/src/tftLCD.c ****         LCD_WR_DATA(0x00);
 4236              		.loc 1 1137 9 view .LVU1157
 4237 0bc2 0020     		movs	r0, #0
 4238 0bc4 FFF7FEFF 		bl	LCD_WR_DATA
 4239              	.LVL676:
1138:Drivers/LCD_FMC/src/tftLCD.c ****         LCD_WR_DATA(0x00);
ARM GAS  C:\usertemp\ccUDQ5mr.s 			page 126


 4240              		.loc 1 1138 9 view .LVU1158
 4241 0bc8 0020     		movs	r0, #0
 4242 0bca FFF7FEFF 		bl	LCD_WR_DATA
 4243              	.LVL677:
1139:Drivers/LCD_FMC/src/tftLCD.c ****         LCD_WR_DATA(0x00);
 4244              		.loc 1 1139 9 view .LVU1159
 4245 0bce 0020     		movs	r0, #0
 4246 0bd0 FFF7FEFF 		bl	LCD_WR_DATA
 4247              	.LVL678:
1140:Drivers/LCD_FMC/src/tftLCD.c **** 
 4248              		.loc 1 1140 9 view .LVU1160
 4249 0bd4 0020     		movs	r0, #0
 4250 0bd6 FFF7FEFF 		bl	LCD_WR_DATA
 4251              	.LVL679:
1142:Drivers/LCD_FMC/src/tftLCD.c ****         LCD_WR_DATA(0x00);
 4252              		.loc 1 1142 9 view .LVU1161
 4253 0bda C920     		movs	r0, #201
 4254 0bdc FFF7FEFF 		bl	LCD_WR_REG
 4255              	.LVL680:
1143:Drivers/LCD_FMC/src/tftLCD.c ****         LCD_WR_DATA(0x00);
 4256              		.loc 1 1143 9 view .LVU1162
 4257 0be0 0020     		movs	r0, #0
 4258 0be2 FFF7FEFF 		bl	LCD_WR_DATA
 4259              	.LVL681:
1144:Drivers/LCD_FMC/src/tftLCD.c ****         LCD_WR_DATA(0x00);
 4260              		.loc 1 1144 9 view .LVU1163
 4261 0be6 0020     		movs	r0, #0
 4262 0be8 FFF7FEFF 		bl	LCD_WR_DATA
 4263              	.LVL682:
1145:Drivers/LCD_FMC/src/tftLCD.c ****         LCD_WR_DATA(0x00);
 4264              		.loc 1 1145 9 view .LVU1164
 4265 0bec 0020     		movs	r0, #0
 4266 0bee FFF7FEFF 		bl	LCD_WR_DATA
 4267              	.LVL683:
1146:Drivers/LCD_FMC/src/tftLCD.c ****         LCD_WR_DATA(0x00);
 4268              		.loc 1 1146 9 view .LVU1165
 4269 0bf2 0020     		movs	r0, #0
 4270 0bf4 FFF7FEFF 		bl	LCD_WR_DATA
 4271              	.LVL684:
1147:Drivers/LCD_FMC/src/tftLCD.c ****         LCD_WR_DATA(0x00);
 4272              		.loc 1 1147 9 view .LVU1166
 4273 0bf8 0020     		movs	r0, #0
 4274 0bfa FFF7FEFF 		bl	LCD_WR_DATA
 4275              	.LVL685:
1148:Drivers/LCD_FMC/src/tftLCD.c ****         LCD_WR_DATA(0x00);
 4276              		.loc 1 1148 9 view .LVU1167
 4277 0bfe 0020     		movs	r0, #0
 4278 0c00 FFF7FEFF 		bl	LCD_WR_DATA
 4279              	.LVL686:
1149:Drivers/LCD_FMC/src/tftLCD.c ****         LCD_WR_DATA(0x00);
 4280              		.loc 1 1149 9 view .LVU1168
 4281 0c04 0020     		movs	r0, #0
 4282 0c06 FFF7FEFF 		bl	LCD_WR_DATA
 4283              	.LVL687:
1150:Drivers/LCD_FMC/src/tftLCD.c ****         LCD_WR_DATA(0x00);
 4284              		.loc 1 1150 9 view .LVU1169
 4285 0c0a 0020     		movs	r0, #0
ARM GAS  C:\usertemp\ccUDQ5mr.s 			page 127


 4286 0c0c FFF7FEFF 		bl	LCD_WR_DATA
 4287              	.LVL688:
1151:Drivers/LCD_FMC/src/tftLCD.c ****         LCD_WR_DATA(0x00);
 4288              		.loc 1 1151 9 view .LVU1170
 4289 0c10 0020     		movs	r0, #0
 4290 0c12 FFF7FEFF 		bl	LCD_WR_DATA
 4291              	.LVL689:
1152:Drivers/LCD_FMC/src/tftLCD.c ****         LCD_WR_DATA(0x00);
 4292              		.loc 1 1152 9 view .LVU1171
 4293 0c16 0020     		movs	r0, #0
 4294 0c18 FFF7FEFF 		bl	LCD_WR_DATA
 4295              	.LVL690:
1153:Drivers/LCD_FMC/src/tftLCD.c ****         LCD_WR_DATA(0x00);
 4296              		.loc 1 1153 9 view .LVU1172
 4297 0c1c 0020     		movs	r0, #0
 4298 0c1e FFF7FEFF 		bl	LCD_WR_DATA
 4299              	.LVL691:
1154:Drivers/LCD_FMC/src/tftLCD.c ****         LCD_WR_DATA(0x00);
 4300              		.loc 1 1154 9 view .LVU1173
 4301 0c22 0020     		movs	r0, #0
 4302 0c24 FFF7FEFF 		bl	LCD_WR_DATA
 4303              	.LVL692:
1155:Drivers/LCD_FMC/src/tftLCD.c ****         LCD_WR_DATA(0x00);
 4304              		.loc 1 1155 9 view .LVU1174
 4305 0c28 0020     		movs	r0, #0
 4306 0c2a FFF7FEFF 		bl	LCD_WR_DATA
 4307              	.LVL693:
1156:Drivers/LCD_FMC/src/tftLCD.c ****         LCD_WR_DATA(0x00);
 4308              		.loc 1 1156 9 view .LVU1175
 4309 0c2e 0020     		movs	r0, #0
 4310 0c30 FFF7FEFF 		bl	LCD_WR_DATA
 4311              	.LVL694:
1157:Drivers/LCD_FMC/src/tftLCD.c ****         LCD_WR_DATA(0x00);
 4312              		.loc 1 1157 9 view .LVU1176
 4313 0c34 0020     		movs	r0, #0
 4314 0c36 FFF7FEFF 		bl	LCD_WR_DATA
 4315              	.LVL695:
1158:Drivers/LCD_FMC/src/tftLCD.c **** 
 4316              		.loc 1 1158 9 view .LVU1177
 4317 0c3a 0020     		movs	r0, #0
 4318 0c3c FFF7FEFF 		bl	LCD_WR_DATA
 4319              	.LVL696:
1160:Drivers/LCD_FMC/src/tftLCD.c ****         LCD_WR_DATA(0x16);
 4320              		.loc 1 1160 9 view .LVU1178
 4321 0c40 E020     		movs	r0, #224
 4322 0c42 FFF7FEFF 		bl	LCD_WR_REG
 4323              	.LVL697:
1161:Drivers/LCD_FMC/src/tftLCD.c ****         LCD_WR_DATA(0x00);
 4324              		.loc 1 1161 9 view .LVU1179
 4325 0c46 1620     		movs	r0, #22
 4326 0c48 FFF7FEFF 		bl	LCD_WR_DATA
 4327              	.LVL698:
1162:Drivers/LCD_FMC/src/tftLCD.c ****         LCD_WR_DATA(0x1C);
 4328              		.loc 1 1162 9 view .LVU1180
 4329 0c4c 0020     		movs	r0, #0
 4330 0c4e FFF7FEFF 		bl	LCD_WR_DATA
 4331              	.LVL699:
ARM GAS  C:\usertemp\ccUDQ5mr.s 			page 128


1163:Drivers/LCD_FMC/src/tftLCD.c ****         LCD_WR_DATA(0x00);
 4332              		.loc 1 1163 9 view .LVU1181
 4333 0c52 1C20     		movs	r0, #28
 4334 0c54 FFF7FEFF 		bl	LCD_WR_DATA
 4335              	.LVL700:
1164:Drivers/LCD_FMC/src/tftLCD.c ****         LCD_WR_DATA(0x21);
 4336              		.loc 1 1164 9 view .LVU1182
 4337 0c58 0020     		movs	r0, #0
 4338 0c5a FFF7FEFF 		bl	LCD_WR_DATA
 4339              	.LVL701:
1165:Drivers/LCD_FMC/src/tftLCD.c ****         LCD_WR_DATA(0x00);
 4340              		.loc 1 1165 9 view .LVU1183
 4341 0c5e 2120     		movs	r0, #33
 4342 0c60 FFF7FEFF 		bl	LCD_WR_DATA
 4343              	.LVL702:
1166:Drivers/LCD_FMC/src/tftLCD.c ****         LCD_WR_DATA(0x36);
 4344              		.loc 1 1166 9 view .LVU1184
 4345 0c64 0020     		movs	r0, #0
 4346 0c66 FFF7FEFF 		bl	LCD_WR_DATA
 4347              	.LVL703:
1167:Drivers/LCD_FMC/src/tftLCD.c ****         LCD_WR_DATA(0x00);
 4348              		.loc 1 1167 9 view .LVU1185
 4349 0c6a 3620     		movs	r0, #54
 4350 0c6c FFF7FEFF 		bl	LCD_WR_DATA
 4351              	.LVL704:
1168:Drivers/LCD_FMC/src/tftLCD.c ****         LCD_WR_DATA(0x46);
 4352              		.loc 1 1168 9 view .LVU1186
 4353 0c70 0020     		movs	r0, #0
 4354 0c72 FFF7FEFF 		bl	LCD_WR_DATA
 4355              	.LVL705:
1169:Drivers/LCD_FMC/src/tftLCD.c ****         LCD_WR_DATA(0x00);
 4356              		.loc 1 1169 9 view .LVU1187
 4357 0c76 4620     		movs	r0, #70
 4358 0c78 FFF7FEFF 		bl	LCD_WR_DATA
 4359              	.LVL706:
1170:Drivers/LCD_FMC/src/tftLCD.c ****         LCD_WR_DATA(0x52);
 4360              		.loc 1 1170 9 view .LVU1188
 4361 0c7c 0020     		movs	r0, #0
 4362 0c7e FFF7FEFF 		bl	LCD_WR_DATA
 4363              	.LVL707:
1171:Drivers/LCD_FMC/src/tftLCD.c ****         LCD_WR_DATA(0x00);
 4364              		.loc 1 1171 9 view .LVU1189
 4365 0c82 5220     		movs	r0, #82
 4366 0c84 FFF7FEFF 		bl	LCD_WR_DATA
 4367              	.LVL708:
1172:Drivers/LCD_FMC/src/tftLCD.c ****         LCD_WR_DATA(0x64);
 4368              		.loc 1 1172 9 view .LVU1190
 4369 0c88 0020     		movs	r0, #0
 4370 0c8a FFF7FEFF 		bl	LCD_WR_DATA
 4371              	.LVL709:
1173:Drivers/LCD_FMC/src/tftLCD.c ****         LCD_WR_DATA(0x00);
 4372              		.loc 1 1173 9 view .LVU1191
 4373 0c8e 6420     		movs	r0, #100
 4374 0c90 FFF7FEFF 		bl	LCD_WR_DATA
 4375              	.LVL710:
1174:Drivers/LCD_FMC/src/tftLCD.c ****         LCD_WR_DATA(0x7A);
 4376              		.loc 1 1174 9 view .LVU1192
ARM GAS  C:\usertemp\ccUDQ5mr.s 			page 129


 4377 0c94 0020     		movs	r0, #0
 4378 0c96 FFF7FEFF 		bl	LCD_WR_DATA
 4379              	.LVL711:
1175:Drivers/LCD_FMC/src/tftLCD.c ****         LCD_WR_DATA(0x00);
 4380              		.loc 1 1175 9 view .LVU1193
 4381 0c9a 7A20     		movs	r0, #122
 4382 0c9c FFF7FEFF 		bl	LCD_WR_DATA
 4383              	.LVL712:
1176:Drivers/LCD_FMC/src/tftLCD.c ****         LCD_WR_DATA(0x8B);
 4384              		.loc 1 1176 9 view .LVU1194
 4385 0ca0 0020     		movs	r0, #0
 4386 0ca2 FFF7FEFF 		bl	LCD_WR_DATA
 4387              	.LVL713:
1177:Drivers/LCD_FMC/src/tftLCD.c ****         LCD_WR_DATA(0x00);
 4388              		.loc 1 1177 9 view .LVU1195
 4389 0ca6 8B20     		movs	r0, #139
 4390 0ca8 FFF7FEFF 		bl	LCD_WR_DATA
 4391              	.LVL714:
1178:Drivers/LCD_FMC/src/tftLCD.c ****         LCD_WR_DATA(0x99);
 4392              		.loc 1 1178 9 view .LVU1196
 4393 0cac 0020     		movs	r0, #0
 4394 0cae FFF7FEFF 		bl	LCD_WR_DATA
 4395              	.LVL715:
1179:Drivers/LCD_FMC/src/tftLCD.c ****         LCD_WR_DATA(0x00);
 4396              		.loc 1 1179 9 view .LVU1197
 4397 0cb2 9920     		movs	r0, #153
 4398 0cb4 FFF7FEFF 		bl	LCD_WR_DATA
 4399              	.LVL716:
1180:Drivers/LCD_FMC/src/tftLCD.c ****         LCD_WR_DATA(0xA8);
 4400              		.loc 1 1180 9 view .LVU1198
 4401 0cb8 0020     		movs	r0, #0
 4402 0cba FFF7FEFF 		bl	LCD_WR_DATA
 4403              	.LVL717:
1181:Drivers/LCD_FMC/src/tftLCD.c ****         LCD_WR_DATA(0x00);
 4404              		.loc 1 1181 9 view .LVU1199
 4405 0cbe A820     		movs	r0, #168
 4406 0cc0 FFF7FEFF 		bl	LCD_WR_DATA
 4407              	.LVL718:
1182:Drivers/LCD_FMC/src/tftLCD.c ****         LCD_WR_DATA(0xB9);
 4408              		.loc 1 1182 9 view .LVU1200
 4409 0cc4 0020     		movs	r0, #0
 4410 0cc6 FFF7FEFF 		bl	LCD_WR_DATA
 4411              	.LVL719:
1183:Drivers/LCD_FMC/src/tftLCD.c ****         LCD_WR_DATA(0x00);
 4412              		.loc 1 1183 9 view .LVU1201
 4413 0cca B920     		movs	r0, #185
 4414 0ccc FFF7FEFF 		bl	LCD_WR_DATA
 4415              	.LVL720:
1184:Drivers/LCD_FMC/src/tftLCD.c ****         LCD_WR_DATA(0xC4);
 4416              		.loc 1 1184 9 view .LVU1202
 4417 0cd0 0020     		movs	r0, #0
 4418 0cd2 FFF7FEFF 		bl	LCD_WR_DATA
 4419              	.LVL721:
1185:Drivers/LCD_FMC/src/tftLCD.c ****         LCD_WR_DATA(0x00);
 4420              		.loc 1 1185 9 view .LVU1203
 4421 0cd6 C420     		movs	r0, #196
 4422 0cd8 FFF7FEFF 		bl	LCD_WR_DATA
ARM GAS  C:\usertemp\ccUDQ5mr.s 			page 130


 4423              	.LVL722:
1186:Drivers/LCD_FMC/src/tftLCD.c ****         LCD_WR_DATA(0xCA);
 4424              		.loc 1 1186 9 view .LVU1204
 4425 0cdc 0020     		movs	r0, #0
 4426 0cde FFF7FEFF 		bl	LCD_WR_DATA
 4427              	.LVL723:
1187:Drivers/LCD_FMC/src/tftLCD.c ****         LCD_WR_DATA(0x00);
 4428              		.loc 1 1187 9 view .LVU1205
 4429 0ce2 CA20     		movs	r0, #202
 4430 0ce4 FFF7FEFF 		bl	LCD_WR_DATA
 4431              	.LVL724:
1188:Drivers/LCD_FMC/src/tftLCD.c ****         LCD_WR_DATA(0xD2);
 4432              		.loc 1 1188 9 view .LVU1206
 4433 0ce8 0020     		movs	r0, #0
 4434 0cea FFF7FEFF 		bl	LCD_WR_DATA
 4435              	.LVL725:
1189:Drivers/LCD_FMC/src/tftLCD.c ****         LCD_WR_DATA(0x00);
 4436              		.loc 1 1189 9 view .LVU1207
 4437 0cee D220     		movs	r0, #210
 4438 0cf0 FFF7FEFF 		bl	LCD_WR_DATA
 4439              	.LVL726:
1190:Drivers/LCD_FMC/src/tftLCD.c ****         LCD_WR_DATA(0xD9);
 4440              		.loc 1 1190 9 view .LVU1208
 4441 0cf4 0020     		movs	r0, #0
 4442 0cf6 FFF7FEFF 		bl	LCD_WR_DATA
 4443              	.LVL727:
1191:Drivers/LCD_FMC/src/tftLCD.c ****         LCD_WR_DATA(0x00);
 4444              		.loc 1 1191 9 view .LVU1209
 4445 0cfa D920     		movs	r0, #217
 4446 0cfc FFF7FEFF 		bl	LCD_WR_DATA
 4447              	.LVL728:
1192:Drivers/LCD_FMC/src/tftLCD.c ****         LCD_WR_DATA(0xE0);
 4448              		.loc 1 1192 9 view .LVU1210
 4449 0d00 0020     		movs	r0, #0
 4450 0d02 FFF7FEFF 		bl	LCD_WR_DATA
 4451              	.LVL729:
1193:Drivers/LCD_FMC/src/tftLCD.c ****         LCD_WR_DATA(0x00);
 4452              		.loc 1 1193 9 view .LVU1211
 4453 0d06 E020     		movs	r0, #224
 4454 0d08 FFF7FEFF 		bl	LCD_WR_DATA
 4455              	.LVL730:
1194:Drivers/LCD_FMC/src/tftLCD.c ****         LCD_WR_DATA(0xF3);
 4456              		.loc 1 1194 9 view .LVU1212
 4457 0d0c 0020     		movs	r0, #0
 4458 0d0e FFF7FEFF 		bl	LCD_WR_DATA
 4459              	.LVL731:
1195:Drivers/LCD_FMC/src/tftLCD.c ****         LCD_WR_DATA(0x00);
 4460              		.loc 1 1195 9 view .LVU1213
 4461 0d12 F320     		movs	r0, #243
 4462 0d14 FFF7FEFF 		bl	LCD_WR_DATA
 4463              	.LVL732:
1196:Drivers/LCD_FMC/src/tftLCD.c **** 
 4464              		.loc 1 1196 9 view .LVU1214
 4465 0d18 0020     		movs	r0, #0
 4466 0d1a FFF7FEFF 		bl	LCD_WR_DATA
 4467              	.LVL733:
1198:Drivers/LCD_FMC/src/tftLCD.c ****         LCD_WR_DATA(0x16);
ARM GAS  C:\usertemp\ccUDQ5mr.s 			page 131


 4468              		.loc 1 1198 9 view .LVU1215
 4469 0d1e E120     		movs	r0, #225
 4470 0d20 FFF7FEFF 		bl	LCD_WR_REG
 4471              	.LVL734:
1199:Drivers/LCD_FMC/src/tftLCD.c ****         LCD_WR_DATA(0x00);
 4472              		.loc 1 1199 9 view .LVU1216
 4473 0d24 1620     		movs	r0, #22
 4474 0d26 FFF7FEFF 		bl	LCD_WR_DATA
 4475              	.LVL735:
1200:Drivers/LCD_FMC/src/tftLCD.c ****         LCD_WR_DATA(0x1C);
 4476              		.loc 1 1200 9 view .LVU1217
 4477 0d2a 0020     		movs	r0, #0
 4478 0d2c FFF7FEFF 		bl	LCD_WR_DATA
 4479              	.LVL736:
1201:Drivers/LCD_FMC/src/tftLCD.c ****         LCD_WR_DATA(0x00);
 4480              		.loc 1 1201 9 view .LVU1218
 4481 0d30 1C20     		movs	r0, #28
 4482 0d32 FFF7FEFF 		bl	LCD_WR_DATA
 4483              	.LVL737:
1202:Drivers/LCD_FMC/src/tftLCD.c ****         LCD_WR_DATA(0x22);
 4484              		.loc 1 1202 9 view .LVU1219
 4485 0d36 0020     		movs	r0, #0
 4486 0d38 FFF7FEFF 		bl	LCD_WR_DATA
 4487              	.LVL738:
1203:Drivers/LCD_FMC/src/tftLCD.c ****         LCD_WR_DATA(0x00);
 4488              		.loc 1 1203 9 view .LVU1220
 4489 0d3c 2220     		movs	r0, #34
 4490 0d3e FFF7FEFF 		bl	LCD_WR_DATA
 4491              	.LVL739:
1204:Drivers/LCD_FMC/src/tftLCD.c ****         LCD_WR_DATA(0x36);
 4492              		.loc 1 1204 9 view .LVU1221
 4493 0d42 0020     		movs	r0, #0
 4494 0d44 FFF7FEFF 		bl	LCD_WR_DATA
 4495              	.LVL740:
1205:Drivers/LCD_FMC/src/tftLCD.c ****         LCD_WR_DATA(0x00);
 4496              		.loc 1 1205 9 view .LVU1222
 4497 0d48 3620     		movs	r0, #54
 4498 0d4a FFF7FEFF 		bl	LCD_WR_DATA
 4499              	.LVL741:
1206:Drivers/LCD_FMC/src/tftLCD.c ****         LCD_WR_DATA(0x45);
 4500              		.loc 1 1206 9 view .LVU1223
 4501 0d4e 0020     		movs	r0, #0
 4502 0d50 FFF7FEFF 		bl	LCD_WR_DATA
 4503              	.LVL742:
1207:Drivers/LCD_FMC/src/tftLCD.c ****         LCD_WR_DATA(0x00);
 4504              		.loc 1 1207 9 view .LVU1224
 4505 0d54 4520     		movs	r0, #69
 4506 0d56 FFF7FEFF 		bl	LCD_WR_DATA
 4507              	.LVL743:
1208:Drivers/LCD_FMC/src/tftLCD.c ****         LCD_WR_DATA(0x52);
 4508              		.loc 1 1208 9 view .LVU1225
 4509 0d5a 0020     		movs	r0, #0
 4510 0d5c FFF7FEFF 		bl	LCD_WR_DATA
 4511              	.LVL744:
1209:Drivers/LCD_FMC/src/tftLCD.c ****         LCD_WR_DATA(0x00);
 4512              		.loc 1 1209 9 view .LVU1226
 4513 0d60 5220     		movs	r0, #82
ARM GAS  C:\usertemp\ccUDQ5mr.s 			page 132


 4514 0d62 FFF7FEFF 		bl	LCD_WR_DATA
 4515              	.LVL745:
1210:Drivers/LCD_FMC/src/tftLCD.c ****         LCD_WR_DATA(0x64);
 4516              		.loc 1 1210 9 view .LVU1227
 4517 0d66 0020     		movs	r0, #0
 4518 0d68 FFF7FEFF 		bl	LCD_WR_DATA
 4519              	.LVL746:
1211:Drivers/LCD_FMC/src/tftLCD.c ****         LCD_WR_DATA(0x00);
 4520              		.loc 1 1211 9 view .LVU1228
 4521 0d6c 6420     		movs	r0, #100
 4522 0d6e FFF7FEFF 		bl	LCD_WR_DATA
 4523              	.LVL747:
1212:Drivers/LCD_FMC/src/tftLCD.c ****         LCD_WR_DATA(0x7A);
 4524              		.loc 1 1212 9 view .LVU1229
 4525 0d72 0020     		movs	r0, #0
 4526 0d74 FFF7FEFF 		bl	LCD_WR_DATA
 4527              	.LVL748:
1213:Drivers/LCD_FMC/src/tftLCD.c ****         LCD_WR_DATA(0x00);
 4528              		.loc 1 1213 9 view .LVU1230
 4529 0d78 7A20     		movs	r0, #122
 4530 0d7a FFF7FEFF 		bl	LCD_WR_DATA
 4531              	.LVL749:
1214:Drivers/LCD_FMC/src/tftLCD.c ****         LCD_WR_DATA(0x8B);
 4532              		.loc 1 1214 9 view .LVU1231
 4533 0d7e 0020     		movs	r0, #0
 4534 0d80 FFF7FEFF 		bl	LCD_WR_DATA
 4535              	.LVL750:
1215:Drivers/LCD_FMC/src/tftLCD.c ****         LCD_WR_DATA(0x00);
 4536              		.loc 1 1215 9 view .LVU1232
 4537 0d84 8B20     		movs	r0, #139
 4538 0d86 FFF7FEFF 		bl	LCD_WR_DATA
 4539              	.LVL751:
1216:Drivers/LCD_FMC/src/tftLCD.c ****         LCD_WR_DATA(0x99);
 4540              		.loc 1 1216 9 view .LVU1233
 4541 0d8a 0020     		movs	r0, #0
 4542 0d8c FFF7FEFF 		bl	LCD_WR_DATA
 4543              	.LVL752:
1217:Drivers/LCD_FMC/src/tftLCD.c ****         LCD_WR_DATA(0x00);
 4544              		.loc 1 1217 9 view .LVU1234
 4545 0d90 9920     		movs	r0, #153
 4546 0d92 FFF7FEFF 		bl	LCD_WR_DATA
 4547              	.LVL753:
1218:Drivers/LCD_FMC/src/tftLCD.c ****         LCD_WR_DATA(0xA8);
 4548              		.loc 1 1218 9 view .LVU1235
 4549 0d96 0020     		movs	r0, #0
 4550 0d98 FFF7FEFF 		bl	LCD_WR_DATA
 4551              	.LVL754:
1219:Drivers/LCD_FMC/src/tftLCD.c ****         LCD_WR_DATA(0x00);
 4552              		.loc 1 1219 9 view .LVU1236
 4553 0d9c A820     		movs	r0, #168
 4554 0d9e FFF7FEFF 		bl	LCD_WR_DATA
 4555              	.LVL755:
1220:Drivers/LCD_FMC/src/tftLCD.c ****         LCD_WR_DATA(0xB9);
 4556              		.loc 1 1220 9 view .LVU1237
 4557 0da2 0020     		movs	r0, #0
 4558 0da4 FFF7FEFF 		bl	LCD_WR_DATA
 4559              	.LVL756:
ARM GAS  C:\usertemp\ccUDQ5mr.s 			page 133


1221:Drivers/LCD_FMC/src/tftLCD.c ****         LCD_WR_DATA(0x00);
 4560              		.loc 1 1221 9 view .LVU1238
 4561 0da8 B920     		movs	r0, #185
 4562 0daa FFF7FEFF 		bl	LCD_WR_DATA
 4563              	.LVL757:
1222:Drivers/LCD_FMC/src/tftLCD.c ****         LCD_WR_DATA(0xC4);
 4564              		.loc 1 1222 9 view .LVU1239
 4565 0dae 0020     		movs	r0, #0
 4566 0db0 FFF7FEFF 		bl	LCD_WR_DATA
 4567              	.LVL758:
1223:Drivers/LCD_FMC/src/tftLCD.c ****         LCD_WR_DATA(0x00);
 4568              		.loc 1 1223 9 view .LVU1240
 4569 0db4 C420     		movs	r0, #196
 4570 0db6 FFF7FEFF 		bl	LCD_WR_DATA
 4571              	.LVL759:
1224:Drivers/LCD_FMC/src/tftLCD.c ****         LCD_WR_DATA(0xCA);
 4572              		.loc 1 1224 9 view .LVU1241
 4573 0dba 0020     		movs	r0, #0
 4574 0dbc FFF7FEFF 		bl	LCD_WR_DATA
 4575              	.LVL760:
1225:Drivers/LCD_FMC/src/tftLCD.c ****         LCD_WR_DATA(0x00);
 4576              		.loc 1 1225 9 view .LVU1242
 4577 0dc0 CA20     		movs	r0, #202
 4578 0dc2 FFF7FEFF 		bl	LCD_WR_DATA
 4579              	.LVL761:
1226:Drivers/LCD_FMC/src/tftLCD.c ****         LCD_WR_DATA(0xD2);
 4580              		.loc 1 1226 9 view .LVU1243
 4581 0dc6 0020     		movs	r0, #0
 4582 0dc8 FFF7FEFF 		bl	LCD_WR_DATA
 4583              	.LVL762:
1227:Drivers/LCD_FMC/src/tftLCD.c ****         LCD_WR_DATA(0x00);
 4584              		.loc 1 1227 9 view .LVU1244
 4585 0dcc D220     		movs	r0, #210
 4586 0dce FFF7FEFF 		bl	LCD_WR_DATA
 4587              	.LVL763:
1228:Drivers/LCD_FMC/src/tftLCD.c ****         LCD_WR_DATA(0xD8);
 4588              		.loc 1 1228 9 view .LVU1245
 4589 0dd2 0020     		movs	r0, #0
 4590 0dd4 FFF7FEFF 		bl	LCD_WR_DATA
 4591              	.LVL764:
1229:Drivers/LCD_FMC/src/tftLCD.c ****         LCD_WR_DATA(0x00);
 4592              		.loc 1 1229 9 view .LVU1246
 4593 0dd8 D820     		movs	r0, #216
 4594 0dda FFF7FEFF 		bl	LCD_WR_DATA
 4595              	.LVL765:
1230:Drivers/LCD_FMC/src/tftLCD.c ****         LCD_WR_DATA(0xE0);
 4596              		.loc 1 1230 9 view .LVU1247
 4597 0dde 0020     		movs	r0, #0
 4598 0de0 FFF7FEFF 		bl	LCD_WR_DATA
 4599              	.LVL766:
1231:Drivers/LCD_FMC/src/tftLCD.c ****         LCD_WR_DATA(0x00);
 4600              		.loc 1 1231 9 view .LVU1248
 4601 0de4 E020     		movs	r0, #224
 4602 0de6 FFF7FEFF 		bl	LCD_WR_DATA
 4603              	.LVL767:
1232:Drivers/LCD_FMC/src/tftLCD.c ****         LCD_WR_DATA(0xF3);
 4604              		.loc 1 1232 9 view .LVU1249
ARM GAS  C:\usertemp\ccUDQ5mr.s 			page 134


 4605 0dea 0020     		movs	r0, #0
 4606 0dec FFF7FEFF 		bl	LCD_WR_DATA
 4607              	.LVL768:
1233:Drivers/LCD_FMC/src/tftLCD.c ****         LCD_WR_DATA(0x00);
 4608              		.loc 1 1233 9 view .LVU1250
 4609 0df0 F320     		movs	r0, #243
 4610 0df2 FFF7FEFF 		bl	LCD_WR_DATA
 4611              	.LVL769:
1234:Drivers/LCD_FMC/src/tftLCD.c **** 
 4612              		.loc 1 1234 9 view .LVU1251
 4613 0df6 0020     		movs	r0, #0
 4614 0df8 FFF7FEFF 		bl	LCD_WR_DATA
 4615              	.LVL770:
1236:Drivers/LCD_FMC/src/tftLCD.c ****         LCD_WR_DATA(0x05);
 4616              		.loc 1 1236 9 view .LVU1252
 4617 0dfc E220     		movs	r0, #226
 4618 0dfe FFF7FEFF 		bl	LCD_WR_REG
 4619              	.LVL771:
1237:Drivers/LCD_FMC/src/tftLCD.c ****         LCD_WR_DATA(0x00);
 4620              		.loc 1 1237 9 view .LVU1253
 4621 0e02 0520     		movs	r0, #5
 4622 0e04 FFF7FEFF 		bl	LCD_WR_DATA
 4623              	.LVL772:
1238:Drivers/LCD_FMC/src/tftLCD.c ****         LCD_WR_DATA(0x0B);
 4624              		.loc 1 1238 9 view .LVU1254
 4625 0e08 0020     		movs	r0, #0
 4626 0e0a FFF7FEFF 		bl	LCD_WR_DATA
 4627              	.LVL773:
1239:Drivers/LCD_FMC/src/tftLCD.c ****         LCD_WR_DATA(0x00);
 4628              		.loc 1 1239 9 view .LVU1255
 4629 0e0e 0B20     		movs	r0, #11
 4630 0e10 FFF7FEFF 		bl	LCD_WR_DATA
 4631              	.LVL774:
1240:Drivers/LCD_FMC/src/tftLCD.c ****         LCD_WR_DATA(0x1B);
 4632              		.loc 1 1240 9 view .LVU1256
 4633 0e14 0020     		movs	r0, #0
 4634 0e16 FFF7FEFF 		bl	LCD_WR_DATA
 4635              	.LVL775:
1241:Drivers/LCD_FMC/src/tftLCD.c ****         LCD_WR_DATA(0x00);
 4636              		.loc 1 1241 9 view .LVU1257
 4637 0e1a 1B20     		movs	r0, #27
 4638 0e1c FFF7FEFF 		bl	LCD_WR_DATA
 4639              	.LVL776:
1242:Drivers/LCD_FMC/src/tftLCD.c ****         LCD_WR_DATA(0x34);
 4640              		.loc 1 1242 9 view .LVU1258
 4641 0e20 0020     		movs	r0, #0
 4642 0e22 FFF7FEFF 		bl	LCD_WR_DATA
 4643              	.LVL777:
1243:Drivers/LCD_FMC/src/tftLCD.c ****         LCD_WR_DATA(0x00);
 4644              		.loc 1 1243 9 view .LVU1259
 4645 0e26 3420     		movs	r0, #52
 4646 0e28 FFF7FEFF 		bl	LCD_WR_DATA
 4647              	.LVL778:
1244:Drivers/LCD_FMC/src/tftLCD.c ****         LCD_WR_DATA(0x44);
 4648              		.loc 1 1244 9 view .LVU1260
 4649 0e2c 0020     		movs	r0, #0
 4650 0e2e FFF7FEFF 		bl	LCD_WR_DATA
ARM GAS  C:\usertemp\ccUDQ5mr.s 			page 135


 4651              	.LVL779:
1245:Drivers/LCD_FMC/src/tftLCD.c ****         LCD_WR_DATA(0x00);
 4652              		.loc 1 1245 9 view .LVU1261
 4653 0e32 4420     		movs	r0, #68
 4654 0e34 FFF7FEFF 		bl	LCD_WR_DATA
 4655              	.LVL780:
1246:Drivers/LCD_FMC/src/tftLCD.c ****         LCD_WR_DATA(0x4F);
 4656              		.loc 1 1246 9 view .LVU1262
 4657 0e38 0020     		movs	r0, #0
 4658 0e3a FFF7FEFF 		bl	LCD_WR_DATA
 4659              	.LVL781:
1247:Drivers/LCD_FMC/src/tftLCD.c ****         LCD_WR_DATA(0x00);
 4660              		.loc 1 1247 9 view .LVU1263
 4661 0e3e 4F20     		movs	r0, #79
 4662 0e40 FFF7FEFF 		bl	LCD_WR_DATA
 4663              	.LVL782:
1248:Drivers/LCD_FMC/src/tftLCD.c ****         LCD_WR_DATA(0x61);
 4664              		.loc 1 1248 9 view .LVU1264
 4665 0e44 0020     		movs	r0, #0
 4666 0e46 FFF7FEFF 		bl	LCD_WR_DATA
 4667              	.LVL783:
1249:Drivers/LCD_FMC/src/tftLCD.c ****         LCD_WR_DATA(0x00);
 4668              		.loc 1 1249 9 view .LVU1265
 4669 0e4a 6120     		movs	r0, #97
 4670 0e4c FFF7FEFF 		bl	LCD_WR_DATA
 4671              	.LVL784:
1250:Drivers/LCD_FMC/src/tftLCD.c ****         LCD_WR_DATA(0x79);
 4672              		.loc 1 1250 9 view .LVU1266
 4673 0e50 0020     		movs	r0, #0
 4674 0e52 FFF7FEFF 		bl	LCD_WR_DATA
 4675              	.LVL785:
1251:Drivers/LCD_FMC/src/tftLCD.c ****         LCD_WR_DATA(0x00);
 4676              		.loc 1 1251 9 view .LVU1267
 4677 0e56 7920     		movs	r0, #121
 4678 0e58 FFF7FEFF 		bl	LCD_WR_DATA
 4679              	.LVL786:
1252:Drivers/LCD_FMC/src/tftLCD.c ****         LCD_WR_DATA(0x88);
 4680              		.loc 1 1252 9 view .LVU1268
 4681 0e5c 0020     		movs	r0, #0
 4682 0e5e FFF7FEFF 		bl	LCD_WR_DATA
 4683              	.LVL787:
1253:Drivers/LCD_FMC/src/tftLCD.c ****         LCD_WR_DATA(0x00);
 4684              		.loc 1 1253 9 view .LVU1269
 4685 0e62 8820     		movs	r0, #136
 4686 0e64 FFF7FEFF 		bl	LCD_WR_DATA
 4687              	.LVL788:
1254:Drivers/LCD_FMC/src/tftLCD.c ****         LCD_WR_DATA(0x97);
 4688              		.loc 1 1254 9 view .LVU1270
 4689 0e68 0020     		movs	r0, #0
 4690 0e6a FFF7FEFF 		bl	LCD_WR_DATA
 4691              	.LVL789:
1255:Drivers/LCD_FMC/src/tftLCD.c ****         LCD_WR_DATA(0x00);
 4692              		.loc 1 1255 9 view .LVU1271
 4693 0e6e 9720     		movs	r0, #151
 4694 0e70 FFF7FEFF 		bl	LCD_WR_DATA
 4695              	.LVL790:
1256:Drivers/LCD_FMC/src/tftLCD.c ****         LCD_WR_DATA(0xA6);
ARM GAS  C:\usertemp\ccUDQ5mr.s 			page 136


 4696              		.loc 1 1256 9 view .LVU1272
 4697 0e74 0020     		movs	r0, #0
 4698 0e76 FFF7FEFF 		bl	LCD_WR_DATA
 4699              	.LVL791:
1257:Drivers/LCD_FMC/src/tftLCD.c ****         LCD_WR_DATA(0x00);
 4700              		.loc 1 1257 9 view .LVU1273
 4701 0e7a A620     		movs	r0, #166
 4702 0e7c FFF7FEFF 		bl	LCD_WR_DATA
 4703              	.LVL792:
1258:Drivers/LCD_FMC/src/tftLCD.c ****         LCD_WR_DATA(0xB7);
 4704              		.loc 1 1258 9 view .LVU1274
 4705 0e80 0020     		movs	r0, #0
 4706 0e82 FFF7FEFF 		bl	LCD_WR_DATA
 4707              	.LVL793:
1259:Drivers/LCD_FMC/src/tftLCD.c ****         LCD_WR_DATA(0x00);
 4708              		.loc 1 1259 9 view .LVU1275
 4709 0e86 B720     		movs	r0, #183
 4710 0e88 FFF7FEFF 		bl	LCD_WR_DATA
 4711              	.LVL794:
1260:Drivers/LCD_FMC/src/tftLCD.c ****         LCD_WR_DATA(0xC2);
 4712              		.loc 1 1260 9 view .LVU1276
 4713 0e8c 0020     		movs	r0, #0
 4714 0e8e FFF7FEFF 		bl	LCD_WR_DATA
 4715              	.LVL795:
1261:Drivers/LCD_FMC/src/tftLCD.c ****         LCD_WR_DATA(0x00);
 4716              		.loc 1 1261 9 view .LVU1277
 4717 0e92 C220     		movs	r0, #194
 4718 0e94 FFF7FEFF 		bl	LCD_WR_DATA
 4719              	.LVL796:
1262:Drivers/LCD_FMC/src/tftLCD.c ****         LCD_WR_DATA(0xC7);
 4720              		.loc 1 1262 9 view .LVU1278
 4721 0e98 0020     		movs	r0, #0
 4722 0e9a FFF7FEFF 		bl	LCD_WR_DATA
 4723              	.LVL797:
1263:Drivers/LCD_FMC/src/tftLCD.c ****         LCD_WR_DATA(0x00);
 4724              		.loc 1 1263 9 view .LVU1279
 4725 0e9e C720     		movs	r0, #199
 4726 0ea0 FFF7FEFF 		bl	LCD_WR_DATA
 4727              	.LVL798:
1264:Drivers/LCD_FMC/src/tftLCD.c ****         LCD_WR_DATA(0xD1);
 4728              		.loc 1 1264 9 view .LVU1280
 4729 0ea4 0020     		movs	r0, #0
 4730 0ea6 FFF7FEFF 		bl	LCD_WR_DATA
 4731              	.LVL799:
1265:Drivers/LCD_FMC/src/tftLCD.c ****         LCD_WR_DATA(0x00);
 4732              		.loc 1 1265 9 view .LVU1281
 4733 0eaa D120     		movs	r0, #209
 4734 0eac FFF7FEFF 		bl	LCD_WR_DATA
 4735              	.LVL800:
1266:Drivers/LCD_FMC/src/tftLCD.c ****         LCD_WR_DATA(0xD6);
 4736              		.loc 1 1266 9 view .LVU1282
 4737 0eb0 0020     		movs	r0, #0
 4738 0eb2 FFF7FEFF 		bl	LCD_WR_DATA
 4739              	.LVL801:
1267:Drivers/LCD_FMC/src/tftLCD.c ****         LCD_WR_DATA(0x00);
 4740              		.loc 1 1267 9 view .LVU1283
 4741 0eb6 D620     		movs	r0, #214
ARM GAS  C:\usertemp\ccUDQ5mr.s 			page 137


 4742 0eb8 FFF7FEFF 		bl	LCD_WR_DATA
 4743              	.LVL802:
1268:Drivers/LCD_FMC/src/tftLCD.c ****         LCD_WR_DATA(0xDD);
 4744              		.loc 1 1268 9 view .LVU1284
 4745 0ebc 0020     		movs	r0, #0
 4746 0ebe FFF7FEFF 		bl	LCD_WR_DATA
 4747              	.LVL803:
1269:Drivers/LCD_FMC/src/tftLCD.c ****         LCD_WR_DATA(0x00);
 4748              		.loc 1 1269 9 view .LVU1285
 4749 0ec2 DD20     		movs	r0, #221
 4750 0ec4 FFF7FEFF 		bl	LCD_WR_DATA
 4751              	.LVL804:
1270:Drivers/LCD_FMC/src/tftLCD.c ****         LCD_WR_DATA(0xF3);
 4752              		.loc 1 1270 9 view .LVU1286
 4753 0ec8 0020     		movs	r0, #0
 4754 0eca FFF7FEFF 		bl	LCD_WR_DATA
 4755              	.LVL805:
1271:Drivers/LCD_FMC/src/tftLCD.c ****         LCD_WR_DATA(0x00);
 4756              		.loc 1 1271 9 view .LVU1287
 4757 0ece F320     		movs	r0, #243
 4758 0ed0 FFF7FEFF 		bl	LCD_WR_DATA
 4759              	.LVL806:
1272:Drivers/LCD_FMC/src/tftLCD.c ****         LCD_WR_REG(0xE3);
 4760              		.loc 1 1272 9 view .LVU1288
 4761 0ed4 0020     		movs	r0, #0
 4762 0ed6 FFF7FEFF 		bl	LCD_WR_DATA
 4763              	.LVL807:
1273:Drivers/LCD_FMC/src/tftLCD.c ****         LCD_WR_DATA(0x05);
 4764              		.loc 1 1273 9 view .LVU1289
 4765 0eda E320     		movs	r0, #227
 4766 0edc FFF7FEFF 		bl	LCD_WR_REG
 4767              	.LVL808:
1274:Drivers/LCD_FMC/src/tftLCD.c ****         LCD_WR_DATA(0x00);
 4768              		.loc 1 1274 9 view .LVU1290
 4769 0ee0 0520     		movs	r0, #5
 4770 0ee2 FFF7FEFF 		bl	LCD_WR_DATA
 4771              	.LVL809:
1275:Drivers/LCD_FMC/src/tftLCD.c ****         LCD_WR_DATA(0xA);
 4772              		.loc 1 1275 9 view .LVU1291
 4773 0ee6 0020     		movs	r0, #0
 4774 0ee8 FFF7FEFF 		bl	LCD_WR_DATA
 4775              	.LVL810:
1276:Drivers/LCD_FMC/src/tftLCD.c ****         LCD_WR_DATA(0x00);
 4776              		.loc 1 1276 9 view .LVU1292
 4777 0eec 0A20     		movs	r0, #10
 4778 0eee FFF7FEFF 		bl	LCD_WR_DATA
 4779              	.LVL811:
1277:Drivers/LCD_FMC/src/tftLCD.c ****         LCD_WR_DATA(0x1C);
 4780              		.loc 1 1277 9 view .LVU1293
 4781 0ef2 0020     		movs	r0, #0
 4782 0ef4 FFF7FEFF 		bl	LCD_WR_DATA
 4783              	.LVL812:
1278:Drivers/LCD_FMC/src/tftLCD.c ****         LCD_WR_DATA(0x00);
 4784              		.loc 1 1278 9 view .LVU1294
 4785 0ef8 1C20     		movs	r0, #28
 4786 0efa FFF7FEFF 		bl	LCD_WR_DATA
 4787              	.LVL813:
ARM GAS  C:\usertemp\ccUDQ5mr.s 			page 138


1279:Drivers/LCD_FMC/src/tftLCD.c ****         LCD_WR_DATA(0x33);
 4788              		.loc 1 1279 9 view .LVU1295
 4789 0efe 0020     		movs	r0, #0
 4790 0f00 FFF7FEFF 		bl	LCD_WR_DATA
 4791              	.LVL814:
1280:Drivers/LCD_FMC/src/tftLCD.c ****         LCD_WR_DATA(0x00);
 4792              		.loc 1 1280 9 view .LVU1296
 4793 0f04 3320     		movs	r0, #51
 4794 0f06 FFF7FEFF 		bl	LCD_WR_DATA
 4795              	.LVL815:
1281:Drivers/LCD_FMC/src/tftLCD.c ****         LCD_WR_DATA(0x44);
 4796              		.loc 1 1281 9 view .LVU1297
 4797 0f0a 0020     		movs	r0, #0
 4798 0f0c FFF7FEFF 		bl	LCD_WR_DATA
 4799              	.LVL816:
1282:Drivers/LCD_FMC/src/tftLCD.c ****         LCD_WR_DATA(0x00);
 4800              		.loc 1 1282 9 view .LVU1298
 4801 0f10 4420     		movs	r0, #68
 4802 0f12 FFF7FEFF 		bl	LCD_WR_DATA
 4803              	.LVL817:
1283:Drivers/LCD_FMC/src/tftLCD.c ****         LCD_WR_DATA(0x50);
 4804              		.loc 1 1283 9 view .LVU1299
 4805 0f16 0020     		movs	r0, #0
 4806 0f18 FFF7FEFF 		bl	LCD_WR_DATA
 4807              	.LVL818:
1284:Drivers/LCD_FMC/src/tftLCD.c ****         LCD_WR_DATA(0x00);
 4808              		.loc 1 1284 9 view .LVU1300
 4809 0f1c 5020     		movs	r0, #80
 4810 0f1e FFF7FEFF 		bl	LCD_WR_DATA
 4811              	.LVL819:
1285:Drivers/LCD_FMC/src/tftLCD.c ****         LCD_WR_DATA(0x62);
 4812              		.loc 1 1285 9 view .LVU1301
 4813 0f22 0020     		movs	r0, #0
 4814 0f24 FFF7FEFF 		bl	LCD_WR_DATA
 4815              	.LVL820:
1286:Drivers/LCD_FMC/src/tftLCD.c ****         LCD_WR_DATA(0x00);
 4816              		.loc 1 1286 9 view .LVU1302
 4817 0f28 6220     		movs	r0, #98
 4818 0f2a FFF7FEFF 		bl	LCD_WR_DATA
 4819              	.LVL821:
1287:Drivers/LCD_FMC/src/tftLCD.c ****         LCD_WR_DATA(0x78);
 4820              		.loc 1 1287 9 view .LVU1303
 4821 0f2e 0020     		movs	r0, #0
 4822 0f30 FFF7FEFF 		bl	LCD_WR_DATA
 4823              	.LVL822:
1288:Drivers/LCD_FMC/src/tftLCD.c ****         LCD_WR_DATA(0x00);
 4824              		.loc 1 1288 9 view .LVU1304
 4825 0f34 7820     		movs	r0, #120
 4826 0f36 FFF7FEFF 		bl	LCD_WR_DATA
 4827              	.LVL823:
1289:Drivers/LCD_FMC/src/tftLCD.c ****         LCD_WR_DATA(0x88);
 4828              		.loc 1 1289 9 view .LVU1305
 4829 0f3a 0020     		movs	r0, #0
 4830 0f3c FFF7FEFF 		bl	LCD_WR_DATA
 4831              	.LVL824:
1290:Drivers/LCD_FMC/src/tftLCD.c ****         LCD_WR_DATA(0x00);
 4832              		.loc 1 1290 9 view .LVU1306
ARM GAS  C:\usertemp\ccUDQ5mr.s 			page 139


 4833 0f40 8820     		movs	r0, #136
 4834 0f42 FFF7FEFF 		bl	LCD_WR_DATA
 4835              	.LVL825:
1291:Drivers/LCD_FMC/src/tftLCD.c ****         LCD_WR_DATA(0x97);
 4836              		.loc 1 1291 9 view .LVU1307
 4837 0f46 0020     		movs	r0, #0
 4838 0f48 FFF7FEFF 		bl	LCD_WR_DATA
 4839              	.LVL826:
1292:Drivers/LCD_FMC/src/tftLCD.c ****         LCD_WR_DATA(0x00);
 4840              		.loc 1 1292 9 view .LVU1308
 4841 0f4c 9720     		movs	r0, #151
 4842 0f4e FFF7FEFF 		bl	LCD_WR_DATA
 4843              	.LVL827:
1293:Drivers/LCD_FMC/src/tftLCD.c ****         LCD_WR_DATA(0xA6);
 4844              		.loc 1 1293 9 view .LVU1309
 4845 0f52 0020     		movs	r0, #0
 4846 0f54 FFF7FEFF 		bl	LCD_WR_DATA
 4847              	.LVL828:
1294:Drivers/LCD_FMC/src/tftLCD.c ****         LCD_WR_DATA(0x00);
 4848              		.loc 1 1294 9 view .LVU1310
 4849 0f58 A620     		movs	r0, #166
 4850 0f5a FFF7FEFF 		bl	LCD_WR_DATA
 4851              	.LVL829:
1295:Drivers/LCD_FMC/src/tftLCD.c ****         LCD_WR_DATA(0xB7);
 4852              		.loc 1 1295 9 view .LVU1311
 4853 0f5e 0020     		movs	r0, #0
 4854 0f60 FFF7FEFF 		bl	LCD_WR_DATA
 4855              	.LVL830:
1296:Drivers/LCD_FMC/src/tftLCD.c ****         LCD_WR_DATA(0x00);
 4856              		.loc 1 1296 9 view .LVU1312
 4857 0f64 B720     		movs	r0, #183
 4858 0f66 FFF7FEFF 		bl	LCD_WR_DATA
 4859              	.LVL831:
1297:Drivers/LCD_FMC/src/tftLCD.c ****         LCD_WR_DATA(0xC2);
 4860              		.loc 1 1297 9 view .LVU1313
 4861 0f6a 0020     		movs	r0, #0
 4862 0f6c FFF7FEFF 		bl	LCD_WR_DATA
 4863              	.LVL832:
1298:Drivers/LCD_FMC/src/tftLCD.c ****         LCD_WR_DATA(0x00);
 4864              		.loc 1 1298 9 view .LVU1314
 4865 0f70 C220     		movs	r0, #194
 4866 0f72 FFF7FEFF 		bl	LCD_WR_DATA
 4867              	.LVL833:
1299:Drivers/LCD_FMC/src/tftLCD.c ****         LCD_WR_DATA(0xC7);
 4868              		.loc 1 1299 9 view .LVU1315
 4869 0f76 0020     		movs	r0, #0
 4870 0f78 FFF7FEFF 		bl	LCD_WR_DATA
 4871              	.LVL834:
1300:Drivers/LCD_FMC/src/tftLCD.c ****         LCD_WR_DATA(0x00);
 4872              		.loc 1 1300 9 view .LVU1316
 4873 0f7c C720     		movs	r0, #199
 4874 0f7e FFF7FEFF 		bl	LCD_WR_DATA
 4875              	.LVL835:
1301:Drivers/LCD_FMC/src/tftLCD.c ****         LCD_WR_DATA(0xD1);
 4876              		.loc 1 1301 9 view .LVU1317
 4877 0f82 0020     		movs	r0, #0
 4878 0f84 FFF7FEFF 		bl	LCD_WR_DATA
ARM GAS  C:\usertemp\ccUDQ5mr.s 			page 140


 4879              	.LVL836:
1302:Drivers/LCD_FMC/src/tftLCD.c ****         LCD_WR_DATA(0x00);
 4880              		.loc 1 1302 9 view .LVU1318
 4881 0f88 D120     		movs	r0, #209
 4882 0f8a FFF7FEFF 		bl	LCD_WR_DATA
 4883              	.LVL837:
1303:Drivers/LCD_FMC/src/tftLCD.c ****         LCD_WR_DATA(0xD5);
 4884              		.loc 1 1303 9 view .LVU1319
 4885 0f8e 0020     		movs	r0, #0
 4886 0f90 FFF7FEFF 		bl	LCD_WR_DATA
 4887              	.LVL838:
1304:Drivers/LCD_FMC/src/tftLCD.c ****         LCD_WR_DATA(0x00);
 4888              		.loc 1 1304 9 view .LVU1320
 4889 0f94 D520     		movs	r0, #213
 4890 0f96 FFF7FEFF 		bl	LCD_WR_DATA
 4891              	.LVL839:
1305:Drivers/LCD_FMC/src/tftLCD.c ****         LCD_WR_DATA(0xDD);
 4892              		.loc 1 1305 9 view .LVU1321
 4893 0f9a 0020     		movs	r0, #0
 4894 0f9c FFF7FEFF 		bl	LCD_WR_DATA
 4895              	.LVL840:
1306:Drivers/LCD_FMC/src/tftLCD.c ****         LCD_WR_DATA(0x00);
 4896              		.loc 1 1306 9 view .LVU1322
 4897 0fa0 DD20     		movs	r0, #221
 4898 0fa2 FFF7FEFF 		bl	LCD_WR_DATA
 4899              	.LVL841:
1307:Drivers/LCD_FMC/src/tftLCD.c ****         LCD_WR_DATA(0xF3);
 4900              		.loc 1 1307 9 view .LVU1323
 4901 0fa6 0020     		movs	r0, #0
 4902 0fa8 FFF7FEFF 		bl	LCD_WR_DATA
 4903              	.LVL842:
1308:Drivers/LCD_FMC/src/tftLCD.c ****         LCD_WR_DATA(0x00);
 4904              		.loc 1 1308 9 view .LVU1324
 4905 0fac F320     		movs	r0, #243
 4906 0fae FFF7FEFF 		bl	LCD_WR_DATA
 4907              	.LVL843:
1309:Drivers/LCD_FMC/src/tftLCD.c **** 
 4908              		.loc 1 1309 9 view .LVU1325
 4909 0fb2 0020     		movs	r0, #0
 4910 0fb4 FFF7FEFF 		bl	LCD_WR_DATA
 4911              	.LVL844:
1311:Drivers/LCD_FMC/src/tftLCD.c ****         LCD_WR_DATA(0x01);
 4912              		.loc 1 1311 9 view .LVU1326
 4913 0fb8 E420     		movs	r0, #228
 4914 0fba FFF7FEFF 		bl	LCD_WR_REG
 4915              	.LVL845:
1312:Drivers/LCD_FMC/src/tftLCD.c ****         LCD_WR_DATA(0x00);
 4916              		.loc 1 1312 9 view .LVU1327
 4917 0fbe 0120     		movs	r0, #1
 4918 0fc0 FFF7FEFF 		bl	LCD_WR_DATA
 4919              	.LVL846:
1313:Drivers/LCD_FMC/src/tftLCD.c ****         LCD_WR_DATA(0x01);
 4920              		.loc 1 1313 9 view .LVU1328
 4921 0fc4 0020     		movs	r0, #0
 4922 0fc6 FFF7FEFF 		bl	LCD_WR_DATA
 4923              	.LVL847:
1314:Drivers/LCD_FMC/src/tftLCD.c ****         LCD_WR_DATA(0x00);
ARM GAS  C:\usertemp\ccUDQ5mr.s 			page 141


 4924              		.loc 1 1314 9 view .LVU1329
 4925 0fca 0120     		movs	r0, #1
 4926 0fcc FFF7FEFF 		bl	LCD_WR_DATA
 4927              	.LVL848:
1315:Drivers/LCD_FMC/src/tftLCD.c ****         LCD_WR_DATA(0x02);
 4928              		.loc 1 1315 9 view .LVU1330
 4929 0fd0 0020     		movs	r0, #0
 4930 0fd2 FFF7FEFF 		bl	LCD_WR_DATA
 4931              	.LVL849:
1316:Drivers/LCD_FMC/src/tftLCD.c ****         LCD_WR_DATA(0x00);
 4932              		.loc 1 1316 9 view .LVU1331
 4933 0fd6 0220     		movs	r0, #2
 4934 0fd8 FFF7FEFF 		bl	LCD_WR_DATA
 4935              	.LVL850:
1317:Drivers/LCD_FMC/src/tftLCD.c ****         LCD_WR_DATA(0x2A);
 4936              		.loc 1 1317 9 view .LVU1332
 4937 0fdc 0020     		movs	r0, #0
 4938 0fde FFF7FEFF 		bl	LCD_WR_DATA
 4939              	.LVL851:
1318:Drivers/LCD_FMC/src/tftLCD.c ****         LCD_WR_DATA(0x00);
 4940              		.loc 1 1318 9 view .LVU1333
 4941 0fe2 2A20     		movs	r0, #42
 4942 0fe4 FFF7FEFF 		bl	LCD_WR_DATA
 4943              	.LVL852:
1319:Drivers/LCD_FMC/src/tftLCD.c ****         LCD_WR_DATA(0x3C);
 4944              		.loc 1 1319 9 view .LVU1334
 4945 0fe8 0020     		movs	r0, #0
 4946 0fea FFF7FEFF 		bl	LCD_WR_DATA
 4947              	.LVL853:
1320:Drivers/LCD_FMC/src/tftLCD.c ****         LCD_WR_DATA(0x00);
 4948              		.loc 1 1320 9 view .LVU1335
 4949 0fee 3C20     		movs	r0, #60
 4950 0ff0 FFF7FEFF 		bl	LCD_WR_DATA
 4951              	.LVL854:
1321:Drivers/LCD_FMC/src/tftLCD.c ****         LCD_WR_DATA(0x4B);
 4952              		.loc 1 1321 9 view .LVU1336
 4953 0ff4 0020     		movs	r0, #0
 4954 0ff6 FFF7FEFF 		bl	LCD_WR_DATA
 4955              	.LVL855:
1322:Drivers/LCD_FMC/src/tftLCD.c ****         LCD_WR_DATA(0x00);
 4956              		.loc 1 1322 9 view .LVU1337
 4957 0ffa 4B20     		movs	r0, #75
 4958 0ffc FFF7FEFF 		bl	LCD_WR_DATA
 4959              	.LVL856:
1323:Drivers/LCD_FMC/src/tftLCD.c ****         LCD_WR_DATA(0x5D);
 4960              		.loc 1 1323 9 view .LVU1338
 4961 1000 0020     		movs	r0, #0
 4962 1002 FFF7FEFF 		bl	LCD_WR_DATA
 4963              	.LVL857:
1324:Drivers/LCD_FMC/src/tftLCD.c ****         LCD_WR_DATA(0x00);
 4964              		.loc 1 1324 9 view .LVU1339
 4965 1006 5D20     		movs	r0, #93
 4966 1008 FFF7FEFF 		bl	LCD_WR_DATA
 4967              	.LVL858:
1325:Drivers/LCD_FMC/src/tftLCD.c ****         LCD_WR_DATA(0x74);
 4968              		.loc 1 1325 9 view .LVU1340
 4969 100c 0020     		movs	r0, #0
ARM GAS  C:\usertemp\ccUDQ5mr.s 			page 142


 4970 100e FFF7FEFF 		bl	LCD_WR_DATA
 4971              	.LVL859:
1326:Drivers/LCD_FMC/src/tftLCD.c ****         LCD_WR_DATA(0x00);
 4972              		.loc 1 1326 9 view .LVU1341
 4973 1012 7420     		movs	r0, #116
 4974 1014 FFF7FEFF 		bl	LCD_WR_DATA
 4975              	.LVL860:
1327:Drivers/LCD_FMC/src/tftLCD.c ****         LCD_WR_DATA(0x84);
 4976              		.loc 1 1327 9 view .LVU1342
 4977 1018 0020     		movs	r0, #0
 4978 101a FFF7FEFF 		bl	LCD_WR_DATA
 4979              	.LVL861:
1328:Drivers/LCD_FMC/src/tftLCD.c ****         LCD_WR_DATA(0x00);
 4980              		.loc 1 1328 9 view .LVU1343
 4981 101e 8420     		movs	r0, #132
 4982 1020 FFF7FEFF 		bl	LCD_WR_DATA
 4983              	.LVL862:
1329:Drivers/LCD_FMC/src/tftLCD.c ****         LCD_WR_DATA(0x93);
 4984              		.loc 1 1329 9 view .LVU1344
 4985 1024 0020     		movs	r0, #0
 4986 1026 FFF7FEFF 		bl	LCD_WR_DATA
 4987              	.LVL863:
1330:Drivers/LCD_FMC/src/tftLCD.c ****         LCD_WR_DATA(0x00);
 4988              		.loc 1 1330 9 view .LVU1345
 4989 102a 9320     		movs	r0, #147
 4990 102c FFF7FEFF 		bl	LCD_WR_DATA
 4991              	.LVL864:
1331:Drivers/LCD_FMC/src/tftLCD.c ****         LCD_WR_DATA(0xA2);
 4992              		.loc 1 1331 9 view .LVU1346
 4993 1030 0020     		movs	r0, #0
 4994 1032 FFF7FEFF 		bl	LCD_WR_DATA
 4995              	.LVL865:
1332:Drivers/LCD_FMC/src/tftLCD.c ****         LCD_WR_DATA(0x00);
 4996              		.loc 1 1332 9 view .LVU1347
 4997 1036 A220     		movs	r0, #162
 4998 1038 FFF7FEFF 		bl	LCD_WR_DATA
 4999              	.LVL866:
1333:Drivers/LCD_FMC/src/tftLCD.c ****         LCD_WR_DATA(0xB3);
 5000              		.loc 1 1333 9 view .LVU1348
 5001 103c 0020     		movs	r0, #0
 5002 103e FFF7FEFF 		bl	LCD_WR_DATA
 5003              	.LVL867:
1334:Drivers/LCD_FMC/src/tftLCD.c ****         LCD_WR_DATA(0x00);
 5004              		.loc 1 1334 9 view .LVU1349
 5005 1042 B320     		movs	r0, #179
 5006 1044 FFF7FEFF 		bl	LCD_WR_DATA
 5007              	.LVL868:
1335:Drivers/LCD_FMC/src/tftLCD.c ****         LCD_WR_DATA(0xBE);
 5008              		.loc 1 1335 9 view .LVU1350
 5009 1048 0020     		movs	r0, #0
 5010 104a FFF7FEFF 		bl	LCD_WR_DATA
 5011              	.LVL869:
1336:Drivers/LCD_FMC/src/tftLCD.c ****         LCD_WR_DATA(0x00);
 5012              		.loc 1 1336 9 view .LVU1351
 5013 104e BE20     		movs	r0, #190
 5014 1050 FFF7FEFF 		bl	LCD_WR_DATA
 5015              	.LVL870:
ARM GAS  C:\usertemp\ccUDQ5mr.s 			page 143


1337:Drivers/LCD_FMC/src/tftLCD.c ****         LCD_WR_DATA(0xC4);
 5016              		.loc 1 1337 9 view .LVU1352
 5017 1054 0020     		movs	r0, #0
 5018 1056 FFF7FEFF 		bl	LCD_WR_DATA
 5019              	.LVL871:
1338:Drivers/LCD_FMC/src/tftLCD.c ****         LCD_WR_DATA(0x00);
 5020              		.loc 1 1338 9 view .LVU1353
 5021 105a C420     		movs	r0, #196
 5022 105c FFF7FEFF 		bl	LCD_WR_DATA
 5023              	.LVL872:
1339:Drivers/LCD_FMC/src/tftLCD.c ****         LCD_WR_DATA(0xCD);
 5024              		.loc 1 1339 9 view .LVU1354
 5025 1060 0020     		movs	r0, #0
 5026 1062 FFF7FEFF 		bl	LCD_WR_DATA
 5027              	.LVL873:
1340:Drivers/LCD_FMC/src/tftLCD.c ****         LCD_WR_DATA(0x00);
 5028              		.loc 1 1340 9 view .LVU1355
 5029 1066 CD20     		movs	r0, #205
 5030 1068 FFF7FEFF 		bl	LCD_WR_DATA
 5031              	.LVL874:
1341:Drivers/LCD_FMC/src/tftLCD.c ****         LCD_WR_DATA(0xD3);
 5032              		.loc 1 1341 9 view .LVU1356
 5033 106c 0020     		movs	r0, #0
 5034 106e FFF7FEFF 		bl	LCD_WR_DATA
 5035              	.LVL875:
1342:Drivers/LCD_FMC/src/tftLCD.c ****         LCD_WR_DATA(0x00);
 5036              		.loc 1 1342 9 view .LVU1357
 5037 1072 D320     		movs	r0, #211
 5038 1074 FFF7FEFF 		bl	LCD_WR_DATA
 5039              	.LVL876:
1343:Drivers/LCD_FMC/src/tftLCD.c ****         LCD_WR_DATA(0xDD);
 5040              		.loc 1 1343 9 view .LVU1358
 5041 1078 0020     		movs	r0, #0
 5042 107a FFF7FEFF 		bl	LCD_WR_DATA
 5043              	.LVL877:
1344:Drivers/LCD_FMC/src/tftLCD.c ****         LCD_WR_DATA(0x00);
 5044              		.loc 1 1344 9 view .LVU1359
 5045 107e DD20     		movs	r0, #221
 5046 1080 FFF7FEFF 		bl	LCD_WR_DATA
 5047              	.LVL878:
1345:Drivers/LCD_FMC/src/tftLCD.c ****         LCD_WR_DATA(0xF3);
 5048              		.loc 1 1345 9 view .LVU1360
 5049 1084 0020     		movs	r0, #0
 5050 1086 FFF7FEFF 		bl	LCD_WR_DATA
 5051              	.LVL879:
1346:Drivers/LCD_FMC/src/tftLCD.c ****         LCD_WR_DATA(0x00);
 5052              		.loc 1 1346 9 view .LVU1361
 5053 108a F320     		movs	r0, #243
 5054 108c FFF7FEFF 		bl	LCD_WR_DATA
 5055              	.LVL880:
1347:Drivers/LCD_FMC/src/tftLCD.c ****         LCD_WR_REG(0xE5);
 5056              		.loc 1 1347 9 view .LVU1362
 5057 1090 0020     		movs	r0, #0
 5058 1092 FFF7FEFF 		bl	LCD_WR_DATA
 5059              	.LVL881:
1348:Drivers/LCD_FMC/src/tftLCD.c ****         LCD_WR_DATA(0x00);
 5060              		.loc 1 1348 9 view .LVU1363
ARM GAS  C:\usertemp\ccUDQ5mr.s 			page 144


 5061 1096 E520     		movs	r0, #229
 5062 1098 FFF7FEFF 		bl	LCD_WR_REG
 5063              	.LVL882:
1349:Drivers/LCD_FMC/src/tftLCD.c ****         LCD_WR_DATA(0x00);
 5064              		.loc 1 1349 9 view .LVU1364
 5065 109c 0020     		movs	r0, #0
 5066 109e FFF7FEFF 		bl	LCD_WR_DATA
 5067              	.LVL883:
1350:Drivers/LCD_FMC/src/tftLCD.c ****         LCD_WR_DATA(0x00);
 5068              		.loc 1 1350 9 view .LVU1365
 5069 10a2 0020     		movs	r0, #0
 5070 10a4 FFF7FEFF 		bl	LCD_WR_DATA
 5071              	.LVL884:
1351:Drivers/LCD_FMC/src/tftLCD.c ****         LCD_WR_DATA(0x00);
 5072              		.loc 1 1351 9 view .LVU1366
 5073 10a8 0020     		movs	r0, #0
 5074 10aa FFF7FEFF 		bl	LCD_WR_DATA
 5075              	.LVL885:
1352:Drivers/LCD_FMC/src/tftLCD.c ****         LCD_WR_DATA(0x02);
 5076              		.loc 1 1352 9 view .LVU1367
 5077 10ae 0020     		movs	r0, #0
 5078 10b0 FFF7FEFF 		bl	LCD_WR_DATA
 5079              	.LVL886:
1353:Drivers/LCD_FMC/src/tftLCD.c ****         LCD_WR_DATA(0x00);
 5080              		.loc 1 1353 9 view .LVU1368
 5081 10b4 0220     		movs	r0, #2
 5082 10b6 FFF7FEFF 		bl	LCD_WR_DATA
 5083              	.LVL887:
1354:Drivers/LCD_FMC/src/tftLCD.c ****         LCD_WR_DATA(0x29);
 5084              		.loc 1 1354 9 view .LVU1369
 5085 10ba 0020     		movs	r0, #0
 5086 10bc FFF7FEFF 		bl	LCD_WR_DATA
 5087              	.LVL888:
1355:Drivers/LCD_FMC/src/tftLCD.c ****         LCD_WR_DATA(0x00);
 5088              		.loc 1 1355 9 view .LVU1370
 5089 10c0 2920     		movs	r0, #41
 5090 10c2 FFF7FEFF 		bl	LCD_WR_DATA
 5091              	.LVL889:
1356:Drivers/LCD_FMC/src/tftLCD.c ****         LCD_WR_DATA(0x3C);
 5092              		.loc 1 1356 9 view .LVU1371
 5093 10c6 0020     		movs	r0, #0
 5094 10c8 FFF7FEFF 		bl	LCD_WR_DATA
 5095              	.LVL890:
1357:Drivers/LCD_FMC/src/tftLCD.c ****         LCD_WR_DATA(0x00);
 5096              		.loc 1 1357 9 view .LVU1372
 5097 10cc 3C20     		movs	r0, #60
 5098 10ce FFF7FEFF 		bl	LCD_WR_DATA
 5099              	.LVL891:
1358:Drivers/LCD_FMC/src/tftLCD.c ****         LCD_WR_DATA(0x4B);
 5100              		.loc 1 1358 9 view .LVU1373
 5101 10d2 0020     		movs	r0, #0
 5102 10d4 FFF7FEFF 		bl	LCD_WR_DATA
 5103              	.LVL892:
1359:Drivers/LCD_FMC/src/tftLCD.c ****         LCD_WR_DATA(0x00);
 5104              		.loc 1 1359 9 view .LVU1374
 5105 10d8 4B20     		movs	r0, #75
 5106 10da FFF7FEFF 		bl	LCD_WR_DATA
ARM GAS  C:\usertemp\ccUDQ5mr.s 			page 145


 5107              	.LVL893:
1360:Drivers/LCD_FMC/src/tftLCD.c ****         LCD_WR_DATA(0x5D);
 5108              		.loc 1 1360 9 view .LVU1375
 5109 10de 0020     		movs	r0, #0
 5110 10e0 FFF7FEFF 		bl	LCD_WR_DATA
 5111              	.LVL894:
1361:Drivers/LCD_FMC/src/tftLCD.c ****         LCD_WR_DATA(0x00);
 5112              		.loc 1 1361 9 view .LVU1376
 5113 10e4 5D20     		movs	r0, #93
 5114 10e6 FFF7FEFF 		bl	LCD_WR_DATA
 5115              	.LVL895:
1362:Drivers/LCD_FMC/src/tftLCD.c ****         LCD_WR_DATA(0x74);
 5116              		.loc 1 1362 9 view .LVU1377
 5117 10ea 0020     		movs	r0, #0
 5118 10ec FFF7FEFF 		bl	LCD_WR_DATA
 5119              	.LVL896:
1363:Drivers/LCD_FMC/src/tftLCD.c ****         LCD_WR_DATA(0x00);
 5120              		.loc 1 1363 9 view .LVU1378
 5121 10f0 7420     		movs	r0, #116
 5122 10f2 FFF7FEFF 		bl	LCD_WR_DATA
 5123              	.LVL897:
1364:Drivers/LCD_FMC/src/tftLCD.c ****         LCD_WR_DATA(0x84);
 5124              		.loc 1 1364 9 view .LVU1379
 5125 10f6 0020     		movs	r0, #0
 5126 10f8 FFF7FEFF 		bl	LCD_WR_DATA
 5127              	.LVL898:
1365:Drivers/LCD_FMC/src/tftLCD.c ****         LCD_WR_DATA(0x00);
 5128              		.loc 1 1365 9 view .LVU1380
 5129 10fc 8420     		movs	r0, #132
 5130 10fe FFF7FEFF 		bl	LCD_WR_DATA
 5131              	.LVL899:
1366:Drivers/LCD_FMC/src/tftLCD.c ****         LCD_WR_DATA(0x93);
 5132              		.loc 1 1366 9 view .LVU1381
 5133 1102 0020     		movs	r0, #0
 5134 1104 FFF7FEFF 		bl	LCD_WR_DATA
 5135              	.LVL900:
1367:Drivers/LCD_FMC/src/tftLCD.c ****         LCD_WR_DATA(0x00);
 5136              		.loc 1 1367 9 view .LVU1382
 5137 1108 9320     		movs	r0, #147
 5138 110a FFF7FEFF 		bl	LCD_WR_DATA
 5139              	.LVL901:
1368:Drivers/LCD_FMC/src/tftLCD.c ****         LCD_WR_DATA(0xA2);
 5140              		.loc 1 1368 9 view .LVU1383
 5141 110e 0020     		movs	r0, #0
 5142 1110 FFF7FEFF 		bl	LCD_WR_DATA
 5143              	.LVL902:
1369:Drivers/LCD_FMC/src/tftLCD.c ****         LCD_WR_DATA(0x00);
 5144              		.loc 1 1369 9 view .LVU1384
 5145 1114 A220     		movs	r0, #162
 5146 1116 FFF7FEFF 		bl	LCD_WR_DATA
 5147              	.LVL903:
1370:Drivers/LCD_FMC/src/tftLCD.c ****         LCD_WR_DATA(0xB3);
 5148              		.loc 1 1370 9 view .LVU1385
 5149 111a 0020     		movs	r0, #0
 5150 111c FFF7FEFF 		bl	LCD_WR_DATA
 5151              	.LVL904:
1371:Drivers/LCD_FMC/src/tftLCD.c ****         LCD_WR_DATA(0x00);
ARM GAS  C:\usertemp\ccUDQ5mr.s 			page 146


 5152              		.loc 1 1371 9 view .LVU1386
 5153 1120 B320     		movs	r0, #179
 5154 1122 FFF7FEFF 		bl	LCD_WR_DATA
 5155              	.LVL905:
1372:Drivers/LCD_FMC/src/tftLCD.c ****         LCD_WR_DATA(0xBE);
 5156              		.loc 1 1372 9 view .LVU1387
 5157 1126 0020     		movs	r0, #0
 5158 1128 FFF7FEFF 		bl	LCD_WR_DATA
 5159              	.LVL906:
1373:Drivers/LCD_FMC/src/tftLCD.c ****         LCD_WR_DATA(0x00);
 5160              		.loc 1 1373 9 view .LVU1388
 5161 112c BE20     		movs	r0, #190
 5162 112e FFF7FEFF 		bl	LCD_WR_DATA
 5163              	.LVL907:
1374:Drivers/LCD_FMC/src/tftLCD.c ****         LCD_WR_DATA(0xC4);
 5164              		.loc 1 1374 9 view .LVU1389
 5165 1132 0020     		movs	r0, #0
 5166 1134 FFF7FEFF 		bl	LCD_WR_DATA
 5167              	.LVL908:
1375:Drivers/LCD_FMC/src/tftLCD.c ****         LCD_WR_DATA(0x00);
 5168              		.loc 1 1375 9 view .LVU1390
 5169 1138 C420     		movs	r0, #196
 5170 113a FFF7FEFF 		bl	LCD_WR_DATA
 5171              	.LVL909:
1376:Drivers/LCD_FMC/src/tftLCD.c ****         LCD_WR_DATA(0xCD);
 5172              		.loc 1 1376 9 view .LVU1391
 5173 113e 0020     		movs	r0, #0
 5174 1140 FFF7FEFF 		bl	LCD_WR_DATA
 5175              	.LVL910:
1377:Drivers/LCD_FMC/src/tftLCD.c ****         LCD_WR_DATA(0x00);
 5176              		.loc 1 1377 9 view .LVU1392
 5177 1144 CD20     		movs	r0, #205
 5178 1146 FFF7FEFF 		bl	LCD_WR_DATA
 5179              	.LVL911:
1378:Drivers/LCD_FMC/src/tftLCD.c ****         LCD_WR_DATA(0xD3);
 5180              		.loc 1 1378 9 view .LVU1393
 5181 114a 0020     		movs	r0, #0
 5182 114c FFF7FEFF 		bl	LCD_WR_DATA
 5183              	.LVL912:
1379:Drivers/LCD_FMC/src/tftLCD.c ****         LCD_WR_DATA(0x00);
 5184              		.loc 1 1379 9 view .LVU1394
 5185 1150 D320     		movs	r0, #211
 5186 1152 FFF7FEFF 		bl	LCD_WR_DATA
 5187              	.LVL913:
1380:Drivers/LCD_FMC/src/tftLCD.c ****         LCD_WR_DATA(0xDC);
 5188              		.loc 1 1380 9 view .LVU1395
 5189 1156 0020     		movs	r0, #0
 5190 1158 FFF7FEFF 		bl	LCD_WR_DATA
 5191              	.LVL914:
1381:Drivers/LCD_FMC/src/tftLCD.c ****         LCD_WR_DATA(0x00);
 5192              		.loc 1 1381 9 view .LVU1396
 5193 115c DC20     		movs	r0, #220
 5194 115e FFF7FEFF 		bl	LCD_WR_DATA
 5195              	.LVL915:
1382:Drivers/LCD_FMC/src/tftLCD.c ****         LCD_WR_DATA(0xF3);
 5196              		.loc 1 1382 9 view .LVU1397
 5197 1162 0020     		movs	r0, #0
ARM GAS  C:\usertemp\ccUDQ5mr.s 			page 147


 5198 1164 FFF7FEFF 		bl	LCD_WR_DATA
 5199              	.LVL916:
1383:Drivers/LCD_FMC/src/tftLCD.c ****         LCD_WR_DATA(0x00);
 5200              		.loc 1 1383 9 view .LVU1398
 5201 1168 F320     		movs	r0, #243
 5202 116a FFF7FEFF 		bl	LCD_WR_DATA
 5203              	.LVL917:
1384:Drivers/LCD_FMC/src/tftLCD.c **** 
 5204              		.loc 1 1384 9 view .LVU1399
 5205 116e 0020     		movs	r0, #0
 5206 1170 FFF7FEFF 		bl	LCD_WR_DATA
 5207              	.LVL918:
1386:Drivers/LCD_FMC/src/tftLCD.c ****         LCD_WR_DATA(0x11);
 5208              		.loc 1 1386 9 view .LVU1400
 5209 1174 E620     		movs	r0, #230
 5210 1176 FFF7FEFF 		bl	LCD_WR_REG
 5211              	.LVL919:
1387:Drivers/LCD_FMC/src/tftLCD.c ****         LCD_WR_DATA(0x00);
 5212              		.loc 1 1387 9 view .LVU1401
 5213 117a 1120     		movs	r0, #17
 5214 117c FFF7FEFF 		bl	LCD_WR_DATA
 5215              	.LVL920:
1388:Drivers/LCD_FMC/src/tftLCD.c ****         LCD_WR_DATA(0x34);
 5216              		.loc 1 1388 9 view .LVU1402
 5217 1180 0020     		movs	r0, #0
 5218 1182 FFF7FEFF 		bl	LCD_WR_DATA
 5219              	.LVL921:
1389:Drivers/LCD_FMC/src/tftLCD.c ****         LCD_WR_DATA(0x00);
 5220              		.loc 1 1389 9 view .LVU1403
 5221 1186 3420     		movs	r0, #52
 5222 1188 FFF7FEFF 		bl	LCD_WR_DATA
 5223              	.LVL922:
1390:Drivers/LCD_FMC/src/tftLCD.c ****         LCD_WR_DATA(0x56);
 5224              		.loc 1 1390 9 view .LVU1404
 5225 118c 0020     		movs	r0, #0
 5226 118e FFF7FEFF 		bl	LCD_WR_DATA
 5227              	.LVL923:
1391:Drivers/LCD_FMC/src/tftLCD.c ****         LCD_WR_DATA(0x00);
 5228              		.loc 1 1391 9 view .LVU1405
 5229 1192 5620     		movs	r0, #86
 5230 1194 FFF7FEFF 		bl	LCD_WR_DATA
 5231              	.LVL924:
1392:Drivers/LCD_FMC/src/tftLCD.c ****         LCD_WR_DATA(0x76);
 5232              		.loc 1 1392 9 view .LVU1406
 5233 1198 0020     		movs	r0, #0
 5234 119a FFF7FEFF 		bl	LCD_WR_DATA
 5235              	.LVL925:
1393:Drivers/LCD_FMC/src/tftLCD.c ****         LCD_WR_DATA(0x00);
 5236              		.loc 1 1393 9 view .LVU1407
 5237 119e 7620     		movs	r0, #118
 5238 11a0 FFF7FEFF 		bl	LCD_WR_DATA
 5239              	.LVL926:
1394:Drivers/LCD_FMC/src/tftLCD.c ****         LCD_WR_DATA(0x77);
 5240              		.loc 1 1394 9 view .LVU1408
 5241 11a4 0020     		movs	r0, #0
 5242 11a6 FFF7FEFF 		bl	LCD_WR_DATA
 5243              	.LVL927:
ARM GAS  C:\usertemp\ccUDQ5mr.s 			page 148


1395:Drivers/LCD_FMC/src/tftLCD.c ****         LCD_WR_DATA(0x00);
 5244              		.loc 1 1395 9 view .LVU1409
 5245 11aa 7720     		movs	r0, #119
 5246 11ac FFF7FEFF 		bl	LCD_WR_DATA
 5247              	.LVL928:
1396:Drivers/LCD_FMC/src/tftLCD.c ****         LCD_WR_DATA(0x66);
 5248              		.loc 1 1396 9 view .LVU1410
 5249 11b0 0020     		movs	r0, #0
 5250 11b2 FFF7FEFF 		bl	LCD_WR_DATA
 5251              	.LVL929:
1397:Drivers/LCD_FMC/src/tftLCD.c ****         LCD_WR_DATA(0x00);
 5252              		.loc 1 1397 9 view .LVU1411
 5253 11b6 6620     		movs	r0, #102
 5254 11b8 FFF7FEFF 		bl	LCD_WR_DATA
 5255              	.LVL930:
1398:Drivers/LCD_FMC/src/tftLCD.c ****         LCD_WR_DATA(0x88);
 5256              		.loc 1 1398 9 view .LVU1412
 5257 11bc 0020     		movs	r0, #0
 5258 11be FFF7FEFF 		bl	LCD_WR_DATA
 5259              	.LVL931:
1399:Drivers/LCD_FMC/src/tftLCD.c ****         LCD_WR_DATA(0x00);
 5260              		.loc 1 1399 9 view .LVU1413
 5261 11c2 8820     		movs	r0, #136
 5262 11c4 FFF7FEFF 		bl	LCD_WR_DATA
 5263              	.LVL932:
1400:Drivers/LCD_FMC/src/tftLCD.c ****         LCD_WR_DATA(0x99);
 5264              		.loc 1 1400 9 view .LVU1414
 5265 11c8 0020     		movs	r0, #0
 5266 11ca FFF7FEFF 		bl	LCD_WR_DATA
 5267              	.LVL933:
1401:Drivers/LCD_FMC/src/tftLCD.c ****         LCD_WR_DATA(0x00);
 5268              		.loc 1 1401 9 view .LVU1415
 5269 11ce 9920     		movs	r0, #153
 5270 11d0 FFF7FEFF 		bl	LCD_WR_DATA
 5271              	.LVL934:
1402:Drivers/LCD_FMC/src/tftLCD.c ****         LCD_WR_DATA(0xBB);
 5272              		.loc 1 1402 9 view .LVU1416
 5273 11d4 0020     		movs	r0, #0
 5274 11d6 FFF7FEFF 		bl	LCD_WR_DATA
 5275              	.LVL935:
1403:Drivers/LCD_FMC/src/tftLCD.c ****         LCD_WR_DATA(0x00);
 5276              		.loc 1 1403 9 view .LVU1417
 5277 11da BB20     		movs	r0, #187
 5278 11dc FFF7FEFF 		bl	LCD_WR_DATA
 5279              	.LVL936:
1404:Drivers/LCD_FMC/src/tftLCD.c ****         LCD_WR_DATA(0x99);
 5280              		.loc 1 1404 9 view .LVU1418
 5281 11e0 0020     		movs	r0, #0
 5282 11e2 FFF7FEFF 		bl	LCD_WR_DATA
 5283              	.LVL937:
1405:Drivers/LCD_FMC/src/tftLCD.c ****         LCD_WR_DATA(0x00);
 5284              		.loc 1 1405 9 view .LVU1419
 5285 11e6 9920     		movs	r0, #153
 5286 11e8 FFF7FEFF 		bl	LCD_WR_DATA
 5287              	.LVL938:
1406:Drivers/LCD_FMC/src/tftLCD.c ****         LCD_WR_DATA(0x66);
 5288              		.loc 1 1406 9 view .LVU1420
ARM GAS  C:\usertemp\ccUDQ5mr.s 			page 149


 5289 11ec 0020     		movs	r0, #0
 5290 11ee FFF7FEFF 		bl	LCD_WR_DATA
 5291              	.LVL939:
1407:Drivers/LCD_FMC/src/tftLCD.c ****         LCD_WR_DATA(0x00);
 5292              		.loc 1 1407 9 view .LVU1421
 5293 11f2 6620     		movs	r0, #102
 5294 11f4 FFF7FEFF 		bl	LCD_WR_DATA
 5295              	.LVL940:
1408:Drivers/LCD_FMC/src/tftLCD.c ****         LCD_WR_DATA(0x55);
 5296              		.loc 1 1408 9 view .LVU1422
 5297 11f8 0020     		movs	r0, #0
 5298 11fa FFF7FEFF 		bl	LCD_WR_DATA
 5299              	.LVL941:
1409:Drivers/LCD_FMC/src/tftLCD.c ****         LCD_WR_DATA(0x00);
 5300              		.loc 1 1409 9 view .LVU1423
 5301 11fe 5520     		movs	r0, #85
 5302 1200 FFF7FEFF 		bl	LCD_WR_DATA
 5303              	.LVL942:
1410:Drivers/LCD_FMC/src/tftLCD.c ****         LCD_WR_DATA(0x55);
 5304              		.loc 1 1410 9 view .LVU1424
 5305 1204 0020     		movs	r0, #0
 5306 1206 FFF7FEFF 		bl	LCD_WR_DATA
 5307              	.LVL943:
1411:Drivers/LCD_FMC/src/tftLCD.c ****         LCD_WR_DATA(0x00);
 5308              		.loc 1 1411 9 view .LVU1425
 5309 120a 5520     		movs	r0, #85
 5310 120c FFF7FEFF 		bl	LCD_WR_DATA
 5311              	.LVL944:
1412:Drivers/LCD_FMC/src/tftLCD.c ****         LCD_WR_DATA(0x45);
 5312              		.loc 1 1412 9 view .LVU1426
 5313 1210 0020     		movs	r0, #0
 5314 1212 FFF7FEFF 		bl	LCD_WR_DATA
 5315              	.LVL945:
1413:Drivers/LCD_FMC/src/tftLCD.c ****         LCD_WR_DATA(0x00);
 5316              		.loc 1 1413 9 view .LVU1427
 5317 1216 4520     		movs	r0, #69
 5318 1218 FFF7FEFF 		bl	LCD_WR_DATA
 5319              	.LVL946:
1414:Drivers/LCD_FMC/src/tftLCD.c ****         LCD_WR_DATA(0x43);
 5320              		.loc 1 1414 9 view .LVU1428
 5321 121c 0020     		movs	r0, #0
 5322 121e FFF7FEFF 		bl	LCD_WR_DATA
 5323              	.LVL947:
1415:Drivers/LCD_FMC/src/tftLCD.c ****         LCD_WR_DATA(0x00);
 5324              		.loc 1 1415 9 view .LVU1429
 5325 1222 4320     		movs	r0, #67
 5326 1224 FFF7FEFF 		bl	LCD_WR_DATA
 5327              	.LVL948:
1416:Drivers/LCD_FMC/src/tftLCD.c ****         LCD_WR_DATA(0x44);
 5328              		.loc 1 1416 9 view .LVU1430
 5329 1228 0020     		movs	r0, #0
 5330 122a FFF7FEFF 		bl	LCD_WR_DATA
 5331              	.LVL949:
1417:Drivers/LCD_FMC/src/tftLCD.c ****         LCD_WR_DATA(0x00);
 5332              		.loc 1 1417 9 view .LVU1431
 5333 122e 4420     		movs	r0, #68
 5334 1230 FFF7FEFF 		bl	LCD_WR_DATA
ARM GAS  C:\usertemp\ccUDQ5mr.s 			page 150


 5335              	.LVL950:
1418:Drivers/LCD_FMC/src/tftLCD.c **** 
 5336              		.loc 1 1418 9 view .LVU1432
 5337 1234 0020     		movs	r0, #0
 5338 1236 FFF7FEFF 		bl	LCD_WR_DATA
 5339              	.LVL951:
1420:Drivers/LCD_FMC/src/tftLCD.c ****         LCD_WR_DATA(0x32);
 5340              		.loc 1 1420 9 view .LVU1433
 5341 123a E720     		movs	r0, #231
 5342 123c FFF7FEFF 		bl	LCD_WR_REG
 5343              	.LVL952:
1421:Drivers/LCD_FMC/src/tftLCD.c ****         LCD_WR_DATA(0x00);
 5344              		.loc 1 1421 9 view .LVU1434
 5345 1240 3220     		movs	r0, #50
 5346 1242 FFF7FEFF 		bl	LCD_WR_DATA
 5347              	.LVL953:
1422:Drivers/LCD_FMC/src/tftLCD.c ****         LCD_WR_DATA(0x55);
 5348              		.loc 1 1422 9 view .LVU1435
 5349 1246 0020     		movs	r0, #0
 5350 1248 FFF7FEFF 		bl	LCD_WR_DATA
 5351              	.LVL954:
1423:Drivers/LCD_FMC/src/tftLCD.c ****         LCD_WR_DATA(0x00);
 5352              		.loc 1 1423 9 view .LVU1436
 5353 124c 5520     		movs	r0, #85
 5354 124e FFF7FEFF 		bl	LCD_WR_DATA
 5355              	.LVL955:
1424:Drivers/LCD_FMC/src/tftLCD.c ****         LCD_WR_DATA(0x76);
 5356              		.loc 1 1424 9 view .LVU1437
 5357 1252 0020     		movs	r0, #0
 5358 1254 FFF7FEFF 		bl	LCD_WR_DATA
 5359              	.LVL956:
1425:Drivers/LCD_FMC/src/tftLCD.c ****         LCD_WR_DATA(0x00);
 5360              		.loc 1 1425 9 view .LVU1438
 5361 1258 7620     		movs	r0, #118
 5362 125a FFF7FEFF 		bl	LCD_WR_DATA
 5363              	.LVL957:
1426:Drivers/LCD_FMC/src/tftLCD.c ****         LCD_WR_DATA(0x66);
 5364              		.loc 1 1426 9 view .LVU1439
 5365 125e 0020     		movs	r0, #0
 5366 1260 FFF7FEFF 		bl	LCD_WR_DATA
 5367              	.LVL958:
1427:Drivers/LCD_FMC/src/tftLCD.c ****         LCD_WR_DATA(0x00);
 5368              		.loc 1 1427 9 view .LVU1440
 5369 1264 6620     		movs	r0, #102
 5370 1266 FFF7FEFF 		bl	LCD_WR_DATA
 5371              	.LVL959:
1428:Drivers/LCD_FMC/src/tftLCD.c ****         LCD_WR_DATA(0x67);
 5372              		.loc 1 1428 9 view .LVU1441
 5373 126a 0020     		movs	r0, #0
 5374 126c FFF7FEFF 		bl	LCD_WR_DATA
 5375              	.LVL960:
1429:Drivers/LCD_FMC/src/tftLCD.c ****         LCD_WR_DATA(0x00);
 5376              		.loc 1 1429 9 view .LVU1442
 5377 1270 6720     		movs	r0, #103
 5378 1272 FFF7FEFF 		bl	LCD_WR_DATA
 5379              	.LVL961:
1430:Drivers/LCD_FMC/src/tftLCD.c ****         LCD_WR_DATA(0x67);
ARM GAS  C:\usertemp\ccUDQ5mr.s 			page 151


 5380              		.loc 1 1430 9 view .LVU1443
 5381 1276 0020     		movs	r0, #0
 5382 1278 FFF7FEFF 		bl	LCD_WR_DATA
 5383              	.LVL962:
1431:Drivers/LCD_FMC/src/tftLCD.c ****         LCD_WR_DATA(0x00);
 5384              		.loc 1 1431 9 view .LVU1444
 5385 127c 6720     		movs	r0, #103
 5386 127e FFF7FEFF 		bl	LCD_WR_DATA
 5387              	.LVL963:
1432:Drivers/LCD_FMC/src/tftLCD.c ****         LCD_WR_DATA(0x87);
 5388              		.loc 1 1432 9 view .LVU1445
 5389 1282 0020     		movs	r0, #0
 5390 1284 FFF7FEFF 		bl	LCD_WR_DATA
 5391              	.LVL964:
1433:Drivers/LCD_FMC/src/tftLCD.c ****         LCD_WR_DATA(0x00);
 5392              		.loc 1 1433 9 view .LVU1446
 5393 1288 8720     		movs	r0, #135
 5394 128a FFF7FEFF 		bl	LCD_WR_DATA
 5395              	.LVL965:
1434:Drivers/LCD_FMC/src/tftLCD.c ****         LCD_WR_DATA(0x99);
 5396              		.loc 1 1434 9 view .LVU1447
 5397 128e 0020     		movs	r0, #0
 5398 1290 FFF7FEFF 		bl	LCD_WR_DATA
 5399              	.LVL966:
1435:Drivers/LCD_FMC/src/tftLCD.c ****         LCD_WR_DATA(0x00);
 5400              		.loc 1 1435 9 view .LVU1448
 5401 1294 9920     		movs	r0, #153
 5402 1296 FFF7FEFF 		bl	LCD_WR_DATA
 5403              	.LVL967:
1436:Drivers/LCD_FMC/src/tftLCD.c ****         LCD_WR_DATA(0xBB);
 5404              		.loc 1 1436 9 view .LVU1449
 5405 129a 0020     		movs	r0, #0
 5406 129c FFF7FEFF 		bl	LCD_WR_DATA
 5407              	.LVL968:
1437:Drivers/LCD_FMC/src/tftLCD.c ****         LCD_WR_DATA(0x00);
 5408              		.loc 1 1437 9 view .LVU1450
 5409 12a0 BB20     		movs	r0, #187
 5410 12a2 FFF7FEFF 		bl	LCD_WR_DATA
 5411              	.LVL969:
1438:Drivers/LCD_FMC/src/tftLCD.c ****         LCD_WR_DATA(0x99);
 5412              		.loc 1 1438 9 view .LVU1451
 5413 12a6 0020     		movs	r0, #0
 5414 12a8 FFF7FEFF 		bl	LCD_WR_DATA
 5415              	.LVL970:
1439:Drivers/LCD_FMC/src/tftLCD.c ****         LCD_WR_DATA(0x00);
 5416              		.loc 1 1439 9 view .LVU1452
 5417 12ac 9920     		movs	r0, #153
 5418 12ae FFF7FEFF 		bl	LCD_WR_DATA
 5419              	.LVL971:
1440:Drivers/LCD_FMC/src/tftLCD.c ****         LCD_WR_DATA(0x77);
 5420              		.loc 1 1440 9 view .LVU1453
 5421 12b2 0020     		movs	r0, #0
 5422 12b4 FFF7FEFF 		bl	LCD_WR_DATA
 5423              	.LVL972:
1441:Drivers/LCD_FMC/src/tftLCD.c ****         LCD_WR_DATA(0x00);
 5424              		.loc 1 1441 9 view .LVU1454
 5425 12b8 7720     		movs	r0, #119
ARM GAS  C:\usertemp\ccUDQ5mr.s 			page 152


 5426 12ba FFF7FEFF 		bl	LCD_WR_DATA
 5427              	.LVL973:
1442:Drivers/LCD_FMC/src/tftLCD.c ****         LCD_WR_DATA(0x44);
 5428              		.loc 1 1442 9 view .LVU1455
 5429 12be 0020     		movs	r0, #0
 5430 12c0 FFF7FEFF 		bl	LCD_WR_DATA
 5431              	.LVL974:
1443:Drivers/LCD_FMC/src/tftLCD.c ****         LCD_WR_DATA(0x00);
 5432              		.loc 1 1443 9 view .LVU1456
 5433 12c4 4420     		movs	r0, #68
 5434 12c6 FFF7FEFF 		bl	LCD_WR_DATA
 5435              	.LVL975:
1444:Drivers/LCD_FMC/src/tftLCD.c ****         LCD_WR_DATA(0x56);
 5436              		.loc 1 1444 9 view .LVU1457
 5437 12ca 0020     		movs	r0, #0
 5438 12cc FFF7FEFF 		bl	LCD_WR_DATA
 5439              	.LVL976:
1445:Drivers/LCD_FMC/src/tftLCD.c ****         LCD_WR_DATA(0x00);
 5440              		.loc 1 1445 9 view .LVU1458
 5441 12d0 5620     		movs	r0, #86
 5442 12d2 FFF7FEFF 		bl	LCD_WR_DATA
 5443              	.LVL977:
1446:Drivers/LCD_FMC/src/tftLCD.c ****         LCD_WR_DATA(0x23);
 5444              		.loc 1 1446 9 view .LVU1459
 5445 12d6 0020     		movs	r0, #0
 5446 12d8 FFF7FEFF 		bl	LCD_WR_DATA
 5447              	.LVL978:
1447:Drivers/LCD_FMC/src/tftLCD.c ****         LCD_WR_DATA(0x00);
 5448              		.loc 1 1447 9 view .LVU1460
 5449 12dc 2320     		movs	r0, #35
 5450 12de FFF7FEFF 		bl	LCD_WR_DATA
 5451              	.LVL979:
1448:Drivers/LCD_FMC/src/tftLCD.c ****         LCD_WR_DATA(0x33);
 5452              		.loc 1 1448 9 view .LVU1461
 5453 12e2 0020     		movs	r0, #0
 5454 12e4 FFF7FEFF 		bl	LCD_WR_DATA
 5455              	.LVL980:
1449:Drivers/LCD_FMC/src/tftLCD.c ****         LCD_WR_DATA(0x00);
 5456              		.loc 1 1449 9 view .LVU1462
 5457 12e8 3320     		movs	r0, #51
 5458 12ea FFF7FEFF 		bl	LCD_WR_DATA
 5459              	.LVL981:
1450:Drivers/LCD_FMC/src/tftLCD.c ****         LCD_WR_DATA(0x45);
 5460              		.loc 1 1450 9 view .LVU1463
 5461 12ee 0020     		movs	r0, #0
 5462 12f0 FFF7FEFF 		bl	LCD_WR_DATA
 5463              	.LVL982:
1451:Drivers/LCD_FMC/src/tftLCD.c ****         LCD_WR_DATA(0x00);
 5464              		.loc 1 1451 9 view .LVU1464
 5465 12f4 4520     		movs	r0, #69
 5466 12f6 FFF7FEFF 		bl	LCD_WR_DATA
 5467              	.LVL983:
1452:Drivers/LCD_FMC/src/tftLCD.c **** 
 5468              		.loc 1 1452 9 view .LVU1465
 5469 12fa 0020     		movs	r0, #0
 5470 12fc FFF7FEFF 		bl	LCD_WR_DATA
 5471              	.LVL984:
ARM GAS  C:\usertemp\ccUDQ5mr.s 			page 153


1454:Drivers/LCD_FMC/src/tftLCD.c ****         LCD_WR_DATA(0x00);
 5472              		.loc 1 1454 9 view .LVU1466
 5473 1300 E820     		movs	r0, #232
 5474 1302 FFF7FEFF 		bl	LCD_WR_REG
 5475              	.LVL985:
1455:Drivers/LCD_FMC/src/tftLCD.c ****         LCD_WR_DATA(0x00);
 5476              		.loc 1 1455 9 view .LVU1467
 5477 1306 0020     		movs	r0, #0
 5478 1308 FFF7FEFF 		bl	LCD_WR_DATA
 5479              	.LVL986:
1456:Drivers/LCD_FMC/src/tftLCD.c ****         LCD_WR_DATA(0x99);
 5480              		.loc 1 1456 9 view .LVU1468
 5481 130c 0020     		movs	r0, #0
 5482 130e FFF7FEFF 		bl	LCD_WR_DATA
 5483              	.LVL987:
1457:Drivers/LCD_FMC/src/tftLCD.c ****         LCD_WR_DATA(0x00);
 5484              		.loc 1 1457 9 view .LVU1469
 5485 1312 9920     		movs	r0, #153
 5486 1314 FFF7FEFF 		bl	LCD_WR_DATA
 5487              	.LVL988:
1458:Drivers/LCD_FMC/src/tftLCD.c ****         LCD_WR_DATA(0x87);
 5488              		.loc 1 1458 9 view .LVU1470
 5489 1318 0020     		movs	r0, #0
 5490 131a FFF7FEFF 		bl	LCD_WR_DATA
 5491              	.LVL989:
1459:Drivers/LCD_FMC/src/tftLCD.c ****         LCD_WR_DATA(0x00);
 5492              		.loc 1 1459 9 view .LVU1471
 5493 131e 8720     		movs	r0, #135
 5494 1320 FFF7FEFF 		bl	LCD_WR_DATA
 5495              	.LVL990:
1460:Drivers/LCD_FMC/src/tftLCD.c ****         LCD_WR_DATA(0x88);
 5496              		.loc 1 1460 9 view .LVU1472
 5497 1324 0020     		movs	r0, #0
 5498 1326 FFF7FEFF 		bl	LCD_WR_DATA
 5499              	.LVL991:
1461:Drivers/LCD_FMC/src/tftLCD.c ****         LCD_WR_DATA(0x00);
 5500              		.loc 1 1461 9 view .LVU1473
 5501 132a 8820     		movs	r0, #136
 5502 132c FFF7FEFF 		bl	LCD_WR_DATA
 5503              	.LVL992:
1462:Drivers/LCD_FMC/src/tftLCD.c ****         LCD_WR_DATA(0x77);
 5504              		.loc 1 1462 9 view .LVU1474
 5505 1330 0020     		movs	r0, #0
 5506 1332 FFF7FEFF 		bl	LCD_WR_DATA
 5507              	.LVL993:
1463:Drivers/LCD_FMC/src/tftLCD.c ****         LCD_WR_DATA(0x00);
 5508              		.loc 1 1463 9 view .LVU1475
 5509 1336 7720     		movs	r0, #119
 5510 1338 FFF7FEFF 		bl	LCD_WR_DATA
 5511              	.LVL994:
1464:Drivers/LCD_FMC/src/tftLCD.c ****         LCD_WR_DATA(0x66);
 5512              		.loc 1 1464 9 view .LVU1476
 5513 133c 0020     		movs	r0, #0
 5514 133e FFF7FEFF 		bl	LCD_WR_DATA
 5515              	.LVL995:
1465:Drivers/LCD_FMC/src/tftLCD.c ****         LCD_WR_DATA(0x00);
 5516              		.loc 1 1465 9 view .LVU1477
ARM GAS  C:\usertemp\ccUDQ5mr.s 			page 154


 5517 1342 6620     		movs	r0, #102
 5518 1344 FFF7FEFF 		bl	LCD_WR_DATA
 5519              	.LVL996:
1466:Drivers/LCD_FMC/src/tftLCD.c ****         LCD_WR_DATA(0x88);
 5520              		.loc 1 1466 9 view .LVU1478
 5521 1348 0020     		movs	r0, #0
 5522 134a FFF7FEFF 		bl	LCD_WR_DATA
 5523              	.LVL997:
1467:Drivers/LCD_FMC/src/tftLCD.c ****         LCD_WR_DATA(0x00);
 5524              		.loc 1 1467 9 view .LVU1479
 5525 134e 8820     		movs	r0, #136
 5526 1350 FFF7FEFF 		bl	LCD_WR_DATA
 5527              	.LVL998:
1468:Drivers/LCD_FMC/src/tftLCD.c ****         LCD_WR_DATA(0xAA);
 5528              		.loc 1 1468 9 view .LVU1480
 5529 1354 0020     		movs	r0, #0
 5530 1356 FFF7FEFF 		bl	LCD_WR_DATA
 5531              	.LVL999:
1469:Drivers/LCD_FMC/src/tftLCD.c ****         LCD_WR_DATA(0x00);
 5532              		.loc 1 1469 9 view .LVU1481
 5533 135a AA20     		movs	r0, #170
 5534 135c FFF7FEFF 		bl	LCD_WR_DATA
 5535              	.LVL1000:
1470:Drivers/LCD_FMC/src/tftLCD.c ****         LCD_WR_DATA(0xBB);
 5536              		.loc 1 1470 9 view .LVU1482
 5537 1360 0020     		movs	r0, #0
 5538 1362 FFF7FEFF 		bl	LCD_WR_DATA
 5539              	.LVL1001:
1471:Drivers/LCD_FMC/src/tftLCD.c ****         LCD_WR_DATA(0x00);
 5540              		.loc 1 1471 9 view .LVU1483
 5541 1366 BB20     		movs	r0, #187
 5542 1368 FFF7FEFF 		bl	LCD_WR_DATA
 5543              	.LVL1002:
1472:Drivers/LCD_FMC/src/tftLCD.c ****         LCD_WR_DATA(0x99);
 5544              		.loc 1 1472 9 view .LVU1484
 5545 136c 0020     		movs	r0, #0
 5546 136e FFF7FEFF 		bl	LCD_WR_DATA
 5547              	.LVL1003:
1473:Drivers/LCD_FMC/src/tftLCD.c ****         LCD_WR_DATA(0x00);
 5548              		.loc 1 1473 9 view .LVU1485
 5549 1372 9920     		movs	r0, #153
 5550 1374 FFF7FEFF 		bl	LCD_WR_DATA
 5551              	.LVL1004:
1474:Drivers/LCD_FMC/src/tftLCD.c ****         LCD_WR_DATA(0x66);
 5552              		.loc 1 1474 9 view .LVU1486
 5553 1378 0020     		movs	r0, #0
 5554 137a FFF7FEFF 		bl	LCD_WR_DATA
 5555              	.LVL1005:
1475:Drivers/LCD_FMC/src/tftLCD.c ****         LCD_WR_DATA(0x00);
 5556              		.loc 1 1475 9 view .LVU1487
 5557 137e 6620     		movs	r0, #102
 5558 1380 FFF7FEFF 		bl	LCD_WR_DATA
 5559              	.LVL1006:
1476:Drivers/LCD_FMC/src/tftLCD.c ****         LCD_WR_DATA(0x55);
 5560              		.loc 1 1476 9 view .LVU1488
 5561 1384 0020     		movs	r0, #0
 5562 1386 FFF7FEFF 		bl	LCD_WR_DATA
ARM GAS  C:\usertemp\ccUDQ5mr.s 			page 155


 5563              	.LVL1007:
1477:Drivers/LCD_FMC/src/tftLCD.c ****         LCD_WR_DATA(0x00);
 5564              		.loc 1 1477 9 view .LVU1489
 5565 138a 5520     		movs	r0, #85
 5566 138c FFF7FEFF 		bl	LCD_WR_DATA
 5567              	.LVL1008:
1478:Drivers/LCD_FMC/src/tftLCD.c ****         LCD_WR_DATA(0x55);
 5568              		.loc 1 1478 9 view .LVU1490
 5569 1390 0020     		movs	r0, #0
 5570 1392 FFF7FEFF 		bl	LCD_WR_DATA
 5571              	.LVL1009:
1479:Drivers/LCD_FMC/src/tftLCD.c ****         LCD_WR_DATA(0x00);
 5572              		.loc 1 1479 9 view .LVU1491
 5573 1396 5520     		movs	r0, #85
 5574 1398 FFF7FEFF 		bl	LCD_WR_DATA
 5575              	.LVL1010:
1480:Drivers/LCD_FMC/src/tftLCD.c ****         LCD_WR_DATA(0x44);
 5576              		.loc 1 1480 9 view .LVU1492
 5577 139c 0020     		movs	r0, #0
 5578 139e FFF7FEFF 		bl	LCD_WR_DATA
 5579              	.LVL1011:
1481:Drivers/LCD_FMC/src/tftLCD.c ****         LCD_WR_DATA(0x00);
 5580              		.loc 1 1481 9 view .LVU1493
 5581 13a2 4420     		movs	r0, #68
 5582 13a4 FFF7FEFF 		bl	LCD_WR_DATA
 5583              	.LVL1012:
1482:Drivers/LCD_FMC/src/tftLCD.c ****         LCD_WR_DATA(0x44);
 5584              		.loc 1 1482 9 view .LVU1494
 5585 13a8 0020     		movs	r0, #0
 5586 13aa FFF7FEFF 		bl	LCD_WR_DATA
 5587              	.LVL1013:
1483:Drivers/LCD_FMC/src/tftLCD.c ****         LCD_WR_DATA(0x00);
 5588              		.loc 1 1483 9 view .LVU1495
 5589 13ae 4420     		movs	r0, #68
 5590 13b0 FFF7FEFF 		bl	LCD_WR_DATA
 5591              	.LVL1014:
1484:Drivers/LCD_FMC/src/tftLCD.c ****         LCD_WR_DATA(0x55);
 5592              		.loc 1 1484 9 view .LVU1496
 5593 13b4 0020     		movs	r0, #0
 5594 13b6 FFF7FEFF 		bl	LCD_WR_DATA
 5595              	.LVL1015:
1485:Drivers/LCD_FMC/src/tftLCD.c ****         LCD_WR_DATA(0x00);
 5596              		.loc 1 1485 9 view .LVU1497
 5597 13ba 5520     		movs	r0, #85
 5598 13bc FFF7FEFF 		bl	LCD_WR_DATA
 5599              	.LVL1016:
1486:Drivers/LCD_FMC/src/tftLCD.c **** 
 5600              		.loc 1 1486 9 view .LVU1498
 5601 13c0 0020     		movs	r0, #0
 5602 13c2 FFF7FEFF 		bl	LCD_WR_DATA
 5603              	.LVL1017:
1488:Drivers/LCD_FMC/src/tftLCD.c ****         LCD_WR_DATA(0xAA);
 5604              		.loc 1 1488 9 view .LVU1499
 5605 13c6 E920     		movs	r0, #233
 5606 13c8 FFF7FEFF 		bl	LCD_WR_REG
 5607              	.LVL1018:
1489:Drivers/LCD_FMC/src/tftLCD.c ****         LCD_WR_DATA(0x00);
ARM GAS  C:\usertemp\ccUDQ5mr.s 			page 156


 5608              		.loc 1 1489 9 view .LVU1500
 5609 13cc AA20     		movs	r0, #170
 5610 13ce FFF7FEFF 		bl	LCD_WR_DATA
 5611              	.LVL1019:
1490:Drivers/LCD_FMC/src/tftLCD.c ****         LCD_WR_DATA(0x00);
 5612              		.loc 1 1490 9 view .LVU1501
 5613 13d2 0020     		movs	r0, #0
 5614 13d4 FFF7FEFF 		bl	LCD_WR_DATA
 5615              	.LVL1020:
1491:Drivers/LCD_FMC/src/tftLCD.c ****         LCD_WR_DATA(0x00);
 5616              		.loc 1 1491 9 view .LVU1502
 5617 13d8 0020     		movs	r0, #0
 5618 13da FFF7FEFF 		bl	LCD_WR_DATA
 5619              	.LVL1021:
1492:Drivers/LCD_FMC/src/tftLCD.c **** 
 5620              		.loc 1 1492 9 view .LVU1503
 5621 13de 0020     		movs	r0, #0
 5622 13e0 FFF7FEFF 		bl	LCD_WR_DATA
 5623              	.LVL1022:
1494:Drivers/LCD_FMC/src/tftLCD.c ****         LCD_WR_DATA(0xAA);
 5624              		.loc 1 1494 9 view .LVU1504
 5625 13e4 0020     		movs	r0, #0
 5626 13e6 FFF7FEFF 		bl	LCD_WR_REG
 5627              	.LVL1023:
1495:Drivers/LCD_FMC/src/tftLCD.c **** 
 5628              		.loc 1 1495 9 view .LVU1505
 5629 13ea AA20     		movs	r0, #170
 5630 13ec FFF7FEFF 		bl	LCD_WR_DATA
 5631              	.LVL1024:
1497:Drivers/LCD_FMC/src/tftLCD.c ****         LCD_WR_DATA(0x00);
 5632              		.loc 1 1497 9 view .LVU1506
 5633 13f0 CF20     		movs	r0, #207
 5634 13f2 FFF7FEFF 		bl	LCD_WR_REG
 5635              	.LVL1025:
1498:Drivers/LCD_FMC/src/tftLCD.c ****         LCD_WR_DATA(0x00);
 5636              		.loc 1 1498 9 view .LVU1507
 5637 13f6 0020     		movs	r0, #0
 5638 13f8 FFF7FEFF 		bl	LCD_WR_DATA
 5639              	.LVL1026:
1499:Drivers/LCD_FMC/src/tftLCD.c ****         LCD_WR_DATA(0x00);
 5640              		.loc 1 1499 9 view .LVU1508
 5641 13fc 0020     		movs	r0, #0
 5642 13fe FFF7FEFF 		bl	LCD_WR_DATA
 5643              	.LVL1027:
1500:Drivers/LCD_FMC/src/tftLCD.c ****         LCD_WR_DATA(0x00);
 5644              		.loc 1 1500 9 view .LVU1509
 5645 1402 0020     		movs	r0, #0
 5646 1404 FFF7FEFF 		bl	LCD_WR_DATA
 5647              	.LVL1028:
1501:Drivers/LCD_FMC/src/tftLCD.c ****         LCD_WR_DATA(0x00);
 5648              		.loc 1 1501 9 view .LVU1510
 5649 1408 0020     		movs	r0, #0
 5650 140a FFF7FEFF 		bl	LCD_WR_DATA
 5651              	.LVL1029:
1502:Drivers/LCD_FMC/src/tftLCD.c ****         LCD_WR_DATA(0x00);
 5652              		.loc 1 1502 9 view .LVU1511
 5653 140e 0020     		movs	r0, #0
ARM GAS  C:\usertemp\ccUDQ5mr.s 			page 157


 5654 1410 FFF7FEFF 		bl	LCD_WR_DATA
 5655              	.LVL1030:
1503:Drivers/LCD_FMC/src/tftLCD.c ****         LCD_WR_DATA(0x00);
 5656              		.loc 1 1503 9 view .LVU1512
 5657 1414 0020     		movs	r0, #0
 5658 1416 FFF7FEFF 		bl	LCD_WR_DATA
 5659              	.LVL1031:
1504:Drivers/LCD_FMC/src/tftLCD.c ****         LCD_WR_DATA(0x00);
 5660              		.loc 1 1504 9 view .LVU1513
 5661 141a 0020     		movs	r0, #0
 5662 141c FFF7FEFF 		bl	LCD_WR_DATA
 5663              	.LVL1032:
1505:Drivers/LCD_FMC/src/tftLCD.c ****         LCD_WR_DATA(0x00);
 5664              		.loc 1 1505 9 view .LVU1514
 5665 1420 0020     		movs	r0, #0
 5666 1422 FFF7FEFF 		bl	LCD_WR_DATA
 5667              	.LVL1033:
1506:Drivers/LCD_FMC/src/tftLCD.c ****         LCD_WR_DATA(0x00);
 5668              		.loc 1 1506 9 view .LVU1515
 5669 1426 0020     		movs	r0, #0
 5670 1428 FFF7FEFF 		bl	LCD_WR_DATA
 5671              	.LVL1034:
1507:Drivers/LCD_FMC/src/tftLCD.c ****         LCD_WR_DATA(0x00);
 5672              		.loc 1 1507 9 view .LVU1516
 5673 142c 0020     		movs	r0, #0
 5674 142e FFF7FEFF 		bl	LCD_WR_DATA
 5675              	.LVL1035:
1508:Drivers/LCD_FMC/src/tftLCD.c ****         LCD_WR_DATA(0x00);
 5676              		.loc 1 1508 9 view .LVU1517
 5677 1432 0020     		movs	r0, #0
 5678 1434 FFF7FEFF 		bl	LCD_WR_DATA
 5679              	.LVL1036:
1509:Drivers/LCD_FMC/src/tftLCD.c ****         LCD_WR_DATA(0x00);
 5680              		.loc 1 1509 9 view .LVU1518
 5681 1438 0020     		movs	r0, #0
 5682 143a FFF7FEFF 		bl	LCD_WR_DATA
 5683              	.LVL1037:
1510:Drivers/LCD_FMC/src/tftLCD.c ****         LCD_WR_DATA(0x00);
 5684              		.loc 1 1510 9 view .LVU1519
 5685 143e 0020     		movs	r0, #0
 5686 1440 FFF7FEFF 		bl	LCD_WR_DATA
 5687              	.LVL1038:
1511:Drivers/LCD_FMC/src/tftLCD.c ****         LCD_WR_DATA(0x00);
 5688              		.loc 1 1511 9 view .LVU1520
 5689 1444 0020     		movs	r0, #0
 5690 1446 FFF7FEFF 		bl	LCD_WR_DATA
 5691              	.LVL1039:
1512:Drivers/LCD_FMC/src/tftLCD.c ****         LCD_WR_DATA(0x00);
 5692              		.loc 1 1512 9 view .LVU1521
 5693 144a 0020     		movs	r0, #0
 5694 144c FFF7FEFF 		bl	LCD_WR_DATA
 5695              	.LVL1040:
1513:Drivers/LCD_FMC/src/tftLCD.c ****         LCD_WR_DATA(0x00);
 5696              		.loc 1 1513 9 view .LVU1522
 5697 1450 0020     		movs	r0, #0
 5698 1452 FFF7FEFF 		bl	LCD_WR_DATA
 5699              	.LVL1041:
ARM GAS  C:\usertemp\ccUDQ5mr.s 			page 158


1514:Drivers/LCD_FMC/src/tftLCD.c **** 
 5700              		.loc 1 1514 9 view .LVU1523
 5701 1456 0020     		movs	r0, #0
 5702 1458 FFF7FEFF 		bl	LCD_WR_DATA
 5703              	.LVL1042:
1516:Drivers/LCD_FMC/src/tftLCD.c ****         LCD_WR_DATA(0x00);
 5704              		.loc 1 1516 9 view .LVU1524
 5705 145c F020     		movs	r0, #240
 5706 145e FFF7FEFF 		bl	LCD_WR_REG
 5707              	.LVL1043:
1517:Drivers/LCD_FMC/src/tftLCD.c ****         LCD_WR_DATA(0x50);
 5708              		.loc 1 1517 9 view .LVU1525
 5709 1462 0020     		movs	r0, #0
 5710 1464 FFF7FEFF 		bl	LCD_WR_DATA
 5711              	.LVL1044:
1518:Drivers/LCD_FMC/src/tftLCD.c ****         LCD_WR_DATA(0x00);
 5712              		.loc 1 1518 9 view .LVU1526
 5713 1468 5020     		movs	r0, #80
 5714 146a FFF7FEFF 		bl	LCD_WR_DATA
 5715              	.LVL1045:
1519:Drivers/LCD_FMC/src/tftLCD.c ****         LCD_WR_DATA(0x00);
 5716              		.loc 1 1519 9 view .LVU1527
 5717 146e 0020     		movs	r0, #0
 5718 1470 FFF7FEFF 		bl	LCD_WR_DATA
 5719              	.LVL1046:
1520:Drivers/LCD_FMC/src/tftLCD.c ****         LCD_WR_DATA(0x00);
 5720              		.loc 1 1520 9 view .LVU1528
 5721 1474 0020     		movs	r0, #0
 5722 1476 FFF7FEFF 		bl	LCD_WR_DATA
 5723              	.LVL1047:
1521:Drivers/LCD_FMC/src/tftLCD.c **** 
 5724              		.loc 1 1521 9 view .LVU1529
 5725 147a 0020     		movs	r0, #0
 5726 147c FFF7FEFF 		bl	LCD_WR_DATA
 5727              	.LVL1048:
1523:Drivers/LCD_FMC/src/tftLCD.c ****         LCD_WR_DATA(0x00);
 5728              		.loc 1 1523 9 view .LVU1530
 5729 1480 F320     		movs	r0, #243
 5730 1482 FFF7FEFF 		bl	LCD_WR_REG
 5731              	.LVL1049:
1524:Drivers/LCD_FMC/src/tftLCD.c **** 
 5732              		.loc 1 1524 9 view .LVU1531
 5733 1486 0020     		movs	r0, #0
 5734 1488 FFF7FEFF 		bl	LCD_WR_DATA
 5735              	.LVL1050:
1526:Drivers/LCD_FMC/src/tftLCD.c ****         LCD_WR_DATA(0x06);
 5736              		.loc 1 1526 9 view .LVU1532
 5737 148c F920     		movs	r0, #249
 5738 148e FFF7FEFF 		bl	LCD_WR_REG
 5739              	.LVL1051:
1527:Drivers/LCD_FMC/src/tftLCD.c ****         LCD_WR_DATA(0x10);
 5740              		.loc 1 1527 9 view .LVU1533
 5741 1492 0620     		movs	r0, #6
 5742 1494 FFF7FEFF 		bl	LCD_WR_DATA
 5743              	.LVL1052:
1528:Drivers/LCD_FMC/src/tftLCD.c ****         LCD_WR_DATA(0x29);
 5744              		.loc 1 1528 9 view .LVU1534
ARM GAS  C:\usertemp\ccUDQ5mr.s 			page 159


 5745 1498 1020     		movs	r0, #16
 5746 149a FFF7FEFF 		bl	LCD_WR_DATA
 5747              	.LVL1053:
1529:Drivers/LCD_FMC/src/tftLCD.c ****         LCD_WR_DATA(0x00);
 5748              		.loc 1 1529 9 view .LVU1535
 5749 149e 2920     		movs	r0, #41
 5750 14a0 FFF7FEFF 		bl	LCD_WR_DATA
 5751              	.LVL1054:
1530:Drivers/LCD_FMC/src/tftLCD.c **** 
 5752              		.loc 1 1530 9 view .LVU1536
 5753 14a4 0020     		movs	r0, #0
 5754 14a6 FFF7FEFF 		bl	LCD_WR_DATA
 5755              	.LVL1055:
1532:Drivers/LCD_FMC/src/tftLCD.c ****         LCD_WR_DATA(0x55);	//66
 5756              		.loc 1 1532 9 view .LVU1537
 5757 14aa 3A20     		movs	r0, #58
 5758 14ac FFF7FEFF 		bl	LCD_WR_REG
 5759              	.LVL1056:
1533:Drivers/LCD_FMC/src/tftLCD.c **** 
 5760              		.loc 1 1533 9 view .LVU1538
 5761 14b0 5520     		movs	r0, #85
 5762 14b2 FFF7FEFF 		bl	LCD_WR_DATA
 5763              	.LVL1057:
1535:Drivers/LCD_FMC/src/tftLCD.c ****         HAL_Delay(100);
 5764              		.loc 1 1535 9 view .LVU1539
 5765 14b6 1120     		movs	r0, #17
 5766 14b8 FFF7FEFF 		bl	LCD_WR_REG
 5767              	.LVL1058:
1536:Drivers/LCD_FMC/src/tftLCD.c ****         LCD_WR_REG(0x29);
 5768              		.loc 1 1536 9 view .LVU1540
 5769 14bc 6420     		movs	r0, #100
 5770 14be FFF7FEFF 		bl	HAL_Delay
 5771              	.LVL1059:
1537:Drivers/LCD_FMC/src/tftLCD.c ****         LCD_WR_REG(0x35);
 5772              		.loc 1 1537 9 view .LVU1541
 5773 14c2 2920     		movs	r0, #41
 5774 14c4 FFF7FEFF 		bl	LCD_WR_REG
 5775              	.LVL1060:
1538:Drivers/LCD_FMC/src/tftLCD.c ****         LCD_WR_DATA(0x00);
 5776              		.loc 1 1538 9 view .LVU1542
 5777 14c8 3520     		movs	r0, #53
 5778 14ca FFF7FEFF 		bl	LCD_WR_REG
 5779              	.LVL1061:
1539:Drivers/LCD_FMC/src/tftLCD.c **** 
 5780              		.loc 1 1539 9 view .LVU1543
 5781 14ce 0020     		movs	r0, #0
 5782 14d0 FFF7FEFF 		bl	LCD_WR_DATA
 5783              	.LVL1062:
1541:Drivers/LCD_FMC/src/tftLCD.c ****         LCD_WR_DATA(0xFF);
 5784              		.loc 1 1541 9 view .LVU1544
 5785 14d4 5120     		movs	r0, #81
 5786 14d6 FFF7FEFF 		bl	LCD_WR_REG
 5787              	.LVL1063:
1542:Drivers/LCD_FMC/src/tftLCD.c ****         LCD_WR_REG(0x53);
 5788              		.loc 1 1542 9 view .LVU1545
 5789 14da FF20     		movs	r0, #255
 5790 14dc FFF7FEFF 		bl	LCD_WR_DATA
ARM GAS  C:\usertemp\ccUDQ5mr.s 			page 160


 5791              	.LVL1064:
1543:Drivers/LCD_FMC/src/tftLCD.c ****         LCD_WR_DATA(0x2C);
 5792              		.loc 1 1543 9 view .LVU1546
 5793 14e0 5320     		movs	r0, #83
 5794 14e2 FFF7FEFF 		bl	LCD_WR_REG
 5795              	.LVL1065:
1544:Drivers/LCD_FMC/src/tftLCD.c ****         LCD_WR_REG(0x55);
 5796              		.loc 1 1544 9 view .LVU1547
 5797 14e6 2C20     		movs	r0, #44
 5798 14e8 FFF7FEFF 		bl	LCD_WR_DATA
 5799              	.LVL1066:
1545:Drivers/LCD_FMC/src/tftLCD.c ****         LCD_WR_DATA(0x82);
 5800              		.loc 1 1545 9 view .LVU1548
 5801 14ec 5520     		movs	r0, #85
 5802 14ee FFF7FEFF 		bl	LCD_WR_REG
 5803              	.LVL1067:
1546:Drivers/LCD_FMC/src/tftLCD.c ****         LCD_WR_REG(0x2c);
 5804              		.loc 1 1546 9 view .LVU1549
 5805 14f2 8220     		movs	r0, #130
 5806 14f4 FFF7FEFF 		bl	LCD_WR_DATA
 5807              	.LVL1068:
1547:Drivers/LCD_FMC/src/tftLCD.c ****     }
 5808              		.loc 1 1547 9 view .LVU1550
 5809 14f8 2C20     		movs	r0, #44
 5810 14fa FFF7FEFF 		bl	LCD_WR_REG
 5811              	.LVL1069:
 5812 14fe FEF7B4BD 		b	.L148
 5813              	.L159:
1551:Drivers/LCD_FMC/src/tftLCD.c ****         LCD_WriteReg(0xF001,0xAA);
 5814              		.loc 1 1551 9 view .LVU1551
 5815 1502 5521     		movs	r1, #85
 5816 1504 4FF47040 		mov	r0, #61440
 5817 1508 FFF7FEFF 		bl	LCD_WriteReg
 5818              	.LVL1070:
1552:Drivers/LCD_FMC/src/tftLCD.c ****         LCD_WriteReg(0xF002,0x52);
 5819              		.loc 1 1552 9 view .LVU1552
 5820 150c AA21     		movs	r1, #170
 5821 150e 4FF20100 		movw	r0, #61441
 5822 1512 FFF7FEFF 		bl	LCD_WriteReg
 5823              	.LVL1071:
1553:Drivers/LCD_FMC/src/tftLCD.c ****         LCD_WriteReg(0xF003,0x08);
 5824              		.loc 1 1553 9 view .LVU1553
 5825 1516 5221     		movs	r1, #82
 5826 1518 4FF20200 		movw	r0, #61442
 5827 151c FFF7FEFF 		bl	LCD_WriteReg
 5828              	.LVL1072:
1554:Drivers/LCD_FMC/src/tftLCD.c ****         LCD_WriteReg(0xF004,0x01);
 5829              		.loc 1 1554 9 view .LVU1554
 5830 1520 0821     		movs	r1, #8
 5831 1522 4FF20300 		movw	r0, #61443
 5832 1526 FFF7FEFF 		bl	LCD_WriteReg
 5833              	.LVL1073:
1555:Drivers/LCD_FMC/src/tftLCD.c ****         //AVDD Set AVDD 5.2V
 5834              		.loc 1 1555 9 view .LVU1555
 5835 152a 0121     		movs	r1, #1
 5836 152c 4FF20400 		movw	r0, #61444
 5837 1530 FFF7FEFF 		bl	LCD_WriteReg
ARM GAS  C:\usertemp\ccUDQ5mr.s 			page 161


 5838              	.LVL1074:
1557:Drivers/LCD_FMC/src/tftLCD.c ****         LCD_WriteReg(0xB001,0x0D);
 5839              		.loc 1 1557 9 view .LVU1556
 5840 1534 0D21     		movs	r1, #13
 5841 1536 4FF43040 		mov	r0, #45056
 5842 153a FFF7FEFF 		bl	LCD_WriteReg
 5843              	.LVL1075:
1558:Drivers/LCD_FMC/src/tftLCD.c ****         LCD_WriteReg(0xB002,0x0D);
 5844              		.loc 1 1558 9 view .LVU1557
 5845 153e 0D21     		movs	r1, #13
 5846 1540 4BF20100 		movw	r0, #45057
 5847 1544 FFF7FEFF 		bl	LCD_WriteReg
 5848              	.LVL1076:
1559:Drivers/LCD_FMC/src/tftLCD.c ****         //AVDD ratio
 5849              		.loc 1 1559 9 view .LVU1558
 5850 1548 0D21     		movs	r1, #13
 5851 154a 4BF20200 		movw	r0, #45058
 5852 154e FFF7FEFF 		bl	LCD_WriteReg
 5853              	.LVL1077:
1561:Drivers/LCD_FMC/src/tftLCD.c ****         LCD_WriteReg(0xB601,0x34);
 5854              		.loc 1 1561 9 view .LVU1559
 5855 1552 3421     		movs	r1, #52
 5856 1554 4FF43640 		mov	r0, #46592
 5857 1558 FFF7FEFF 		bl	LCD_WriteReg
 5858              	.LVL1078:
1562:Drivers/LCD_FMC/src/tftLCD.c ****         LCD_WriteReg(0xB602,0x34);
 5859              		.loc 1 1562 9 view .LVU1560
 5860 155c 3421     		movs	r1, #52
 5861 155e 4BF20160 		movw	r0, #46593
 5862 1562 FFF7FEFF 		bl	LCD_WriteReg
 5863              	.LVL1079:
1563:Drivers/LCD_FMC/src/tftLCD.c ****         //AVEE -5.2V
 5864              		.loc 1 1563 9 view .LVU1561
 5865 1566 3421     		movs	r1, #52
 5866 1568 4BF20260 		movw	r0, #46594
 5867 156c FFF7FEFF 		bl	LCD_WriteReg
 5868              	.LVL1080:
1565:Drivers/LCD_FMC/src/tftLCD.c ****         LCD_WriteReg(0xB101,0x0D);
 5869              		.loc 1 1565 9 view .LVU1562
 5870 1570 0D21     		movs	r1, #13
 5871 1572 4FF43140 		mov	r0, #45312
 5872 1576 FFF7FEFF 		bl	LCD_WriteReg
 5873              	.LVL1081:
1566:Drivers/LCD_FMC/src/tftLCD.c ****         LCD_WriteReg(0xB102,0x0D);
 5874              		.loc 1 1566 9 view .LVU1563
 5875 157a 0D21     		movs	r1, #13
 5876 157c 4BF20110 		movw	r0, #45313
 5877 1580 FFF7FEFF 		bl	LCD_WriteReg
 5878              	.LVL1082:
1567:Drivers/LCD_FMC/src/tftLCD.c ****         //AVEE ratio
 5879              		.loc 1 1567 9 view .LVU1564
 5880 1584 0D21     		movs	r1, #13
 5881 1586 4BF20210 		movw	r0, #45314
 5882 158a FFF7FEFF 		bl	LCD_WriteReg
 5883              	.LVL1083:
1569:Drivers/LCD_FMC/src/tftLCD.c ****         LCD_WriteReg(0xB701,0x34);
 5884              		.loc 1 1569 9 view .LVU1565
ARM GAS  C:\usertemp\ccUDQ5mr.s 			page 162


 5885 158e 3421     		movs	r1, #52
 5886 1590 4FF43740 		mov	r0, #46848
 5887 1594 FFF7FEFF 		bl	LCD_WriteReg
 5888              	.LVL1084:
1570:Drivers/LCD_FMC/src/tftLCD.c ****         LCD_WriteReg(0xB702,0x34);
 5889              		.loc 1 1570 9 view .LVU1566
 5890 1598 3421     		movs	r1, #52
 5891 159a 4BF20170 		movw	r0, #46849
 5892 159e FFF7FEFF 		bl	LCD_WriteReg
 5893              	.LVL1085:
1571:Drivers/LCD_FMC/src/tftLCD.c ****         //VCL -2.5V
 5894              		.loc 1 1571 9 view .LVU1567
 5895 15a2 3421     		movs	r1, #52
 5896 15a4 4BF20270 		movw	r0, #46850
 5897 15a8 FFF7FEFF 		bl	LCD_WriteReg
 5898              	.LVL1086:
1573:Drivers/LCD_FMC/src/tftLCD.c ****         LCD_WriteReg(0xB201,0x00);
 5899              		.loc 1 1573 9 view .LVU1568
 5900 15ac 0021     		movs	r1, #0
 5901 15ae 4FF43240 		mov	r0, #45568
 5902 15b2 FFF7FEFF 		bl	LCD_WriteReg
 5903              	.LVL1087:
1574:Drivers/LCD_FMC/src/tftLCD.c ****         LCD_WriteReg(0xB202,0x00);
 5904              		.loc 1 1574 9 view .LVU1569
 5905 15b6 0021     		movs	r1, #0
 5906 15b8 4BF20120 		movw	r0, #45569
 5907 15bc FFF7FEFF 		bl	LCD_WriteReg
 5908              	.LVL1088:
1575:Drivers/LCD_FMC/src/tftLCD.c ****         //VCL ratio
 5909              		.loc 1 1575 9 view .LVU1570
 5910 15c0 0021     		movs	r1, #0
 5911 15c2 4BF20220 		movw	r0, #45570
 5912 15c6 FFF7FEFF 		bl	LCD_WriteReg
 5913              	.LVL1089:
1577:Drivers/LCD_FMC/src/tftLCD.c ****         LCD_WriteReg(0xB801,0x24);
 5914              		.loc 1 1577 9 view .LVU1571
 5915 15ca 2421     		movs	r1, #36
 5916 15cc 4FF43840 		mov	r0, #47104
 5917 15d0 FFF7FEFF 		bl	LCD_WriteReg
 5918              	.LVL1090:
1578:Drivers/LCD_FMC/src/tftLCD.c ****         LCD_WriteReg(0xB802,0x24);
 5919              		.loc 1 1578 9 view .LVU1572
 5920 15d4 2421     		movs	r1, #36
 5921 15d6 4BF60100 		movw	r0, #47105
 5922 15da FFF7FEFF 		bl	LCD_WriteReg
 5923              	.LVL1091:
1579:Drivers/LCD_FMC/src/tftLCD.c ****         //VGH 15V (Free pump)
 5924              		.loc 1 1579 9 view .LVU1573
 5925 15de 2421     		movs	r1, #36
 5926 15e0 4BF60200 		movw	r0, #47106
 5927 15e4 FFF7FEFF 		bl	LCD_WriteReg
 5928              	.LVL1092:
1581:Drivers/LCD_FMC/src/tftLCD.c ****         LCD_WriteReg(0xB300,0x0F);
 5929              		.loc 1 1581 9 view .LVU1574
 5930 15e8 0121     		movs	r1, #1
 5931 15ea 4FF43F40 		mov	r0, #48896
 5932 15ee FFF7FEFF 		bl	LCD_WriteReg
ARM GAS  C:\usertemp\ccUDQ5mr.s 			page 163


 5933              	.LVL1093:
1582:Drivers/LCD_FMC/src/tftLCD.c ****         LCD_WriteReg(0xB301,0x0F);
 5934              		.loc 1 1582 9 view .LVU1575
 5935 15f2 0F21     		movs	r1, #15
 5936 15f4 4FF43340 		mov	r0, #45824
 5937 15f8 FFF7FEFF 		bl	LCD_WriteReg
 5938              	.LVL1094:
1583:Drivers/LCD_FMC/src/tftLCD.c ****         LCD_WriteReg(0xB302,0x0F);
 5939              		.loc 1 1583 9 view .LVU1576
 5940 15fc 0F21     		movs	r1, #15
 5941 15fe 4BF20130 		movw	r0, #45825
 5942 1602 FFF7FEFF 		bl	LCD_WriteReg
 5943              	.LVL1095:
1584:Drivers/LCD_FMC/src/tftLCD.c ****         //VGH ratio
 5944              		.loc 1 1584 9 view .LVU1577
 5945 1606 0F21     		movs	r1, #15
 5946 1608 4BF20230 		movw	r0, #45826
 5947 160c FFF7FEFF 		bl	LCD_WriteReg
 5948              	.LVL1096:
1586:Drivers/LCD_FMC/src/tftLCD.c ****         LCD_WriteReg(0xB901,0x34);
 5949              		.loc 1 1586 9 view .LVU1578
 5950 1610 3421     		movs	r1, #52
 5951 1612 4FF43940 		mov	r0, #47360
 5952 1616 FFF7FEFF 		bl	LCD_WriteReg
 5953              	.LVL1097:
1587:Drivers/LCD_FMC/src/tftLCD.c ****         LCD_WriteReg(0xB902,0x34);
 5954              		.loc 1 1587 9 view .LVU1579
 5955 161a 3421     		movs	r1, #52
 5956 161c 4BF60110 		movw	r0, #47361
 5957 1620 FFF7FEFF 		bl	LCD_WriteReg
 5958              	.LVL1098:
1588:Drivers/LCD_FMC/src/tftLCD.c ****         //VGL_REG -10V
 5959              		.loc 1 1588 9 view .LVU1580
 5960 1624 3421     		movs	r1, #52
 5961 1626 4BF60210 		movw	r0, #47362
 5962 162a FFF7FEFF 		bl	LCD_WriteReg
 5963              	.LVL1099:
1590:Drivers/LCD_FMC/src/tftLCD.c ****         LCD_WriteReg(0xB501,0x08);
 5964              		.loc 1 1590 9 view .LVU1581
 5965 162e 0821     		movs	r1, #8
 5966 1630 4FF43540 		mov	r0, #46336
 5967 1634 FFF7FEFF 		bl	LCD_WriteReg
 5968              	.LVL1100:
1591:Drivers/LCD_FMC/src/tftLCD.c ****         LCD_WriteReg(0xB502,0x08);
 5969              		.loc 1 1591 9 view .LVU1582
 5970 1638 0821     		movs	r1, #8
 5971 163a 4BF20150 		movw	r0, #46337
 5972 163e FFF7FEFF 		bl	LCD_WriteReg
 5973              	.LVL1101:
1592:Drivers/LCD_FMC/src/tftLCD.c ****         LCD_WriteReg(0xC200,0x03);
 5974              		.loc 1 1592 9 view .LVU1583
 5975 1642 0821     		movs	r1, #8
 5976 1644 4BF20250 		movw	r0, #46338
 5977 1648 FFF7FEFF 		bl	LCD_WriteReg
 5978              	.LVL1102:
1593:Drivers/LCD_FMC/src/tftLCD.c ****         //VGLX ratio
 5979              		.loc 1 1593 9 view .LVU1584
ARM GAS  C:\usertemp\ccUDQ5mr.s 			page 164


 5980 164c 0321     		movs	r1, #3
 5981 164e 4FF44240 		mov	r0, #49664
 5982 1652 FFF7FEFF 		bl	LCD_WriteReg
 5983              	.LVL1103:
1595:Drivers/LCD_FMC/src/tftLCD.c ****         LCD_WriteReg(0xBA01,0x24);
 5984              		.loc 1 1595 9 view .LVU1585
 5985 1656 2421     		movs	r1, #36
 5986 1658 4FF43A40 		mov	r0, #47616
 5987 165c FFF7FEFF 		bl	LCD_WriteReg
 5988              	.LVL1104:
1596:Drivers/LCD_FMC/src/tftLCD.c ****         LCD_WriteReg(0xBA02,0x24);
 5989              		.loc 1 1596 9 view .LVU1586
 5990 1660 2421     		movs	r1, #36
 5991 1662 4BF60120 		movw	r0, #47617
 5992 1666 FFF7FEFF 		bl	LCD_WriteReg
 5993              	.LVL1105:
1597:Drivers/LCD_FMC/src/tftLCD.c ****         //VGMP/VGSP 4.5V/0V
 5994              		.loc 1 1597 9 view .LVU1587
 5995 166a 2421     		movs	r1, #36
 5996 166c 4BF60220 		movw	r0, #47618
 5997 1670 FFF7FEFF 		bl	LCD_WriteReg
 5998              	.LVL1106:
1599:Drivers/LCD_FMC/src/tftLCD.c ****         LCD_WriteReg(0xBC01,0x78);
 5999              		.loc 1 1599 9 view .LVU1588
 6000 1674 0021     		movs	r1, #0
 6001 1676 4FF43C40 		mov	r0, #48128
 6002 167a FFF7FEFF 		bl	LCD_WriteReg
 6003              	.LVL1107:
1600:Drivers/LCD_FMC/src/tftLCD.c ****         LCD_WriteReg(0xBC02,0x00);
 6004              		.loc 1 1600 9 view .LVU1589
 6005 167e 7821     		movs	r1, #120
 6006 1680 4BF60140 		movw	r0, #48129
 6007 1684 FFF7FEFF 		bl	LCD_WriteReg
 6008              	.LVL1108:
1601:Drivers/LCD_FMC/src/tftLCD.c ****         //VGMN/VGSN -4.5V/0V
 6009              		.loc 1 1601 9 view .LVU1590
 6010 1688 0021     		movs	r1, #0
 6011 168a 4BF60240 		movw	r0, #48130
 6012 168e FFF7FEFF 		bl	LCD_WriteReg
 6013              	.LVL1109:
1603:Drivers/LCD_FMC/src/tftLCD.c ****         LCD_WriteReg(0xBD01,0x78);
 6014              		.loc 1 1603 9 view .LVU1591
 6015 1692 0021     		movs	r1, #0
 6016 1694 4FF43D40 		mov	r0, #48384
 6017 1698 FFF7FEFF 		bl	LCD_WriteReg
 6018              	.LVL1110:
1604:Drivers/LCD_FMC/src/tftLCD.c ****         LCD_WriteReg(0xBD02,0x00);
 6019              		.loc 1 1604 9 view .LVU1592
 6020 169c 7821     		movs	r1, #120
 6021 169e 4BF60150 		movw	r0, #48385
 6022 16a2 FFF7FEFF 		bl	LCD_WriteReg
 6023              	.LVL1111:
1605:Drivers/LCD_FMC/src/tftLCD.c ****         //VCOM
 6024              		.loc 1 1605 9 view .LVU1593
 6025 16a6 0021     		movs	r1, #0
 6026 16a8 4BF60250 		movw	r0, #48386
 6027 16ac FFF7FEFF 		bl	LCD_WriteReg
ARM GAS  C:\usertemp\ccUDQ5mr.s 			page 165


 6028              	.LVL1112:
1607:Drivers/LCD_FMC/src/tftLCD.c ****         LCD_WriteReg(0xBE01,0x64);
 6029              		.loc 1 1607 9 view .LVU1594
 6030 16b0 0021     		movs	r1, #0
 6031 16b2 4FF43E40 		mov	r0, #48640
 6032 16b6 FFF7FEFF 		bl	LCD_WriteReg
 6033              	.LVL1113:
1608:Drivers/LCD_FMC/src/tftLCD.c ****         //Gamma Setting
 6034              		.loc 1 1608 9 view .LVU1595
 6035 16ba 6421     		movs	r1, #100
 6036 16bc 4BF60160 		movw	r0, #48641
 6037 16c0 FFF7FEFF 		bl	LCD_WriteReg
 6038              	.LVL1114:
1610:Drivers/LCD_FMC/src/tftLCD.c ****         LCD_WriteReg(0xD101,0x33);
 6039              		.loc 1 1610 9 view .LVU1596
 6040 16c4 0021     		movs	r1, #0
 6041 16c6 4FF45140 		mov	r0, #53504
 6042 16ca FFF7FEFF 		bl	LCD_WriteReg
 6043              	.LVL1115:
1611:Drivers/LCD_FMC/src/tftLCD.c ****         LCD_WriteReg(0xD102,0x00);
 6044              		.loc 1 1611 9 view .LVU1597
 6045 16ce 3321     		movs	r1, #51
 6046 16d0 4DF20110 		movw	r0, #53505
 6047 16d4 FFF7FEFF 		bl	LCD_WriteReg
 6048              	.LVL1116:
1612:Drivers/LCD_FMC/src/tftLCD.c ****         LCD_WriteReg(0xD103,0x34);
 6049              		.loc 1 1612 9 view .LVU1598
 6050 16d8 0021     		movs	r1, #0
 6051 16da 4DF20210 		movw	r0, #53506
 6052 16de FFF7FEFF 		bl	LCD_WriteReg
 6053              	.LVL1117:
1613:Drivers/LCD_FMC/src/tftLCD.c ****         LCD_WriteReg(0xD104,0x00);
 6054              		.loc 1 1613 9 view .LVU1599
 6055 16e2 3421     		movs	r1, #52
 6056 16e4 4DF20310 		movw	r0, #53507
 6057 16e8 FFF7FEFF 		bl	LCD_WriteReg
 6058              	.LVL1118:
1614:Drivers/LCD_FMC/src/tftLCD.c ****         LCD_WriteReg(0xD105,0x3A);
 6059              		.loc 1 1614 9 view .LVU1600
 6060 16ec 0021     		movs	r1, #0
 6061 16ee 4DF20410 		movw	r0, #53508
 6062 16f2 FFF7FEFF 		bl	LCD_WriteReg
 6063              	.LVL1119:
1615:Drivers/LCD_FMC/src/tftLCD.c ****         LCD_WriteReg(0xD106,0x00);
 6064              		.loc 1 1615 9 view .LVU1601
 6065 16f6 3A21     		movs	r1, #58
 6066 16f8 4DF20510 		movw	r0, #53509
 6067 16fc FFF7FEFF 		bl	LCD_WriteReg
 6068              	.LVL1120:
1616:Drivers/LCD_FMC/src/tftLCD.c ****         LCD_WriteReg(0xD107,0x4A);
 6069              		.loc 1 1616 9 view .LVU1602
 6070 1700 0021     		movs	r1, #0
 6071 1702 4DF20610 		movw	r0, #53510
 6072 1706 FFF7FEFF 		bl	LCD_WriteReg
 6073              	.LVL1121:
1617:Drivers/LCD_FMC/src/tftLCD.c ****         LCD_WriteReg(0xD108,0x00);
 6074              		.loc 1 1617 9 view .LVU1603
ARM GAS  C:\usertemp\ccUDQ5mr.s 			page 166


 6075 170a 4A21     		movs	r1, #74
 6076 170c 4DF20710 		movw	r0, #53511
 6077 1710 FFF7FEFF 		bl	LCD_WriteReg
 6078              	.LVL1122:
1618:Drivers/LCD_FMC/src/tftLCD.c ****         LCD_WriteReg(0xD109,0x5C);
 6079              		.loc 1 1618 9 view .LVU1604
 6080 1714 0021     		movs	r1, #0
 6081 1716 4DF20810 		movw	r0, #53512
 6082 171a FFF7FEFF 		bl	LCD_WriteReg
 6083              	.LVL1123:
1619:Drivers/LCD_FMC/src/tftLCD.c ****         LCD_WriteReg(0xD10A,0x00);
 6084              		.loc 1 1619 9 view .LVU1605
 6085 171e 5C21     		movs	r1, #92
 6086 1720 4DF20910 		movw	r0, #53513
 6087 1724 FFF7FEFF 		bl	LCD_WriteReg
 6088              	.LVL1124:
1620:Drivers/LCD_FMC/src/tftLCD.c ****         LCD_WriteReg(0xD10B,0x81);
 6089              		.loc 1 1620 9 view .LVU1606
 6090 1728 0021     		movs	r1, #0
 6091 172a 4DF20A10 		movw	r0, #53514
 6092 172e FFF7FEFF 		bl	LCD_WriteReg
 6093              	.LVL1125:
1621:Drivers/LCD_FMC/src/tftLCD.c ****         LCD_WriteReg(0xD10C,0x00);
 6094              		.loc 1 1621 9 view .LVU1607
 6095 1732 8121     		movs	r1, #129
 6096 1734 4DF20B10 		movw	r0, #53515
 6097 1738 FFF7FEFF 		bl	LCD_WriteReg
 6098              	.LVL1126:
1622:Drivers/LCD_FMC/src/tftLCD.c ****         LCD_WriteReg(0xD10D,0xA6);
 6099              		.loc 1 1622 9 view .LVU1608
 6100 173c 0021     		movs	r1, #0
 6101 173e 4DF20C10 		movw	r0, #53516
 6102 1742 FFF7FEFF 		bl	LCD_WriteReg
 6103              	.LVL1127:
1623:Drivers/LCD_FMC/src/tftLCD.c ****         LCD_WriteReg(0xD10E,0x00);
 6104              		.loc 1 1623 9 view .LVU1609
 6105 1746 A621     		movs	r1, #166
 6106 1748 4DF20D10 		movw	r0, #53517
 6107 174c FFF7FEFF 		bl	LCD_WriteReg
 6108              	.LVL1128:
1624:Drivers/LCD_FMC/src/tftLCD.c ****         LCD_WriteReg(0xD10F,0xE5);
 6109              		.loc 1 1624 9 view .LVU1610
 6110 1750 0021     		movs	r1, #0
 6111 1752 4DF20E10 		movw	r0, #53518
 6112 1756 FFF7FEFF 		bl	LCD_WriteReg
 6113              	.LVL1129:
1625:Drivers/LCD_FMC/src/tftLCD.c ****         LCD_WriteReg(0xD110,0x01);
 6114              		.loc 1 1625 9 view .LVU1611
 6115 175a E521     		movs	r1, #229
 6116 175c 4DF20F10 		movw	r0, #53519
 6117 1760 FFF7FEFF 		bl	LCD_WriteReg
 6118              	.LVL1130:
1626:Drivers/LCD_FMC/src/tftLCD.c ****         LCD_WriteReg(0xD111,0x13);
 6119              		.loc 1 1626 9 view .LVU1612
 6120 1764 0121     		movs	r1, #1
 6121 1766 4DF21010 		movw	r0, #53520
 6122 176a FFF7FEFF 		bl	LCD_WriteReg
ARM GAS  C:\usertemp\ccUDQ5mr.s 			page 167


 6123              	.LVL1131:
1627:Drivers/LCD_FMC/src/tftLCD.c ****         LCD_WriteReg(0xD112,0x01);
 6124              		.loc 1 1627 9 view .LVU1613
 6125 176e 1321     		movs	r1, #19
 6126 1770 4DF21110 		movw	r0, #53521
 6127 1774 FFF7FEFF 		bl	LCD_WriteReg
 6128              	.LVL1132:
1628:Drivers/LCD_FMC/src/tftLCD.c ****         LCD_WriteReg(0xD113,0x54);
 6129              		.loc 1 1628 9 view .LVU1614
 6130 1778 0121     		movs	r1, #1
 6131 177a 4DF21210 		movw	r0, #53522
 6132 177e FFF7FEFF 		bl	LCD_WriteReg
 6133              	.LVL1133:
1629:Drivers/LCD_FMC/src/tftLCD.c ****         LCD_WriteReg(0xD114,0x01);
 6134              		.loc 1 1629 9 view .LVU1615
 6135 1782 5421     		movs	r1, #84
 6136 1784 4DF21310 		movw	r0, #53523
 6137 1788 FFF7FEFF 		bl	LCD_WriteReg
 6138              	.LVL1134:
1630:Drivers/LCD_FMC/src/tftLCD.c ****         LCD_WriteReg(0xD115,0x82);
 6139              		.loc 1 1630 9 view .LVU1616
 6140 178c 0121     		movs	r1, #1
 6141 178e 4DF21410 		movw	r0, #53524
 6142 1792 FFF7FEFF 		bl	LCD_WriteReg
 6143              	.LVL1135:
1631:Drivers/LCD_FMC/src/tftLCD.c ****         LCD_WriteReg(0xD116,0x01);
 6144              		.loc 1 1631 9 view .LVU1617
 6145 1796 8221     		movs	r1, #130
 6146 1798 4DF21510 		movw	r0, #53525
 6147 179c FFF7FEFF 		bl	LCD_WriteReg
 6148              	.LVL1136:
1632:Drivers/LCD_FMC/src/tftLCD.c ****         LCD_WriteReg(0xD117,0xCA);
 6149              		.loc 1 1632 9 view .LVU1618
 6150 17a0 0121     		movs	r1, #1
 6151 17a2 4DF21610 		movw	r0, #53526
 6152 17a6 FFF7FEFF 		bl	LCD_WriteReg
 6153              	.LVL1137:
1633:Drivers/LCD_FMC/src/tftLCD.c ****         LCD_WriteReg(0xD118,0x02);
 6154              		.loc 1 1633 9 view .LVU1619
 6155 17aa CA21     		movs	r1, #202
 6156 17ac 4DF21710 		movw	r0, #53527
 6157 17b0 FFF7FEFF 		bl	LCD_WriteReg
 6158              	.LVL1138:
1634:Drivers/LCD_FMC/src/tftLCD.c ****         LCD_WriteReg(0xD119,0x00);
 6159              		.loc 1 1634 9 view .LVU1620
 6160 17b4 0221     		movs	r1, #2
 6161 17b6 4DF21810 		movw	r0, #53528
 6162 17ba FFF7FEFF 		bl	LCD_WriteReg
 6163              	.LVL1139:
1635:Drivers/LCD_FMC/src/tftLCD.c ****         LCD_WriteReg(0xD11A,0x02);
 6164              		.loc 1 1635 9 view .LVU1621
 6165 17be 0021     		movs	r1, #0
 6166 17c0 4DF21910 		movw	r0, #53529
 6167 17c4 FFF7FEFF 		bl	LCD_WriteReg
 6168              	.LVL1140:
1636:Drivers/LCD_FMC/src/tftLCD.c ****         LCD_WriteReg(0xD11B,0x01);
 6169              		.loc 1 1636 9 view .LVU1622
ARM GAS  C:\usertemp\ccUDQ5mr.s 			page 168


 6170 17c8 0221     		movs	r1, #2
 6171 17ca 4DF21A10 		movw	r0, #53530
 6172 17ce FFF7FEFF 		bl	LCD_WriteReg
 6173              	.LVL1141:
1637:Drivers/LCD_FMC/src/tftLCD.c ****         LCD_WriteReg(0xD11C,0x02);
 6174              		.loc 1 1637 9 view .LVU1623
 6175 17d2 0121     		movs	r1, #1
 6176 17d4 4DF21B10 		movw	r0, #53531
 6177 17d8 FFF7FEFF 		bl	LCD_WriteReg
 6178              	.LVL1142:
1638:Drivers/LCD_FMC/src/tftLCD.c ****         LCD_WriteReg(0xD11D,0x34);
 6179              		.loc 1 1638 9 view .LVU1624
 6180 17dc 0221     		movs	r1, #2
 6181 17de 4DF21C10 		movw	r0, #53532
 6182 17e2 FFF7FEFF 		bl	LCD_WriteReg
 6183              	.LVL1143:
1639:Drivers/LCD_FMC/src/tftLCD.c ****         LCD_WriteReg(0xD11E,0x02);
 6184              		.loc 1 1639 9 view .LVU1625
 6185 17e6 3421     		movs	r1, #52
 6186 17e8 4DF21D10 		movw	r0, #53533
 6187 17ec FFF7FEFF 		bl	LCD_WriteReg
 6188              	.LVL1144:
1640:Drivers/LCD_FMC/src/tftLCD.c ****         LCD_WriteReg(0xD11F,0x67);
 6189              		.loc 1 1640 9 view .LVU1626
 6190 17f0 0221     		movs	r1, #2
 6191 17f2 4DF21E10 		movw	r0, #53534
 6192 17f6 FFF7FEFF 		bl	LCD_WriteReg
 6193              	.LVL1145:
1641:Drivers/LCD_FMC/src/tftLCD.c ****         LCD_WriteReg(0xD120,0x02);
 6194              		.loc 1 1641 9 view .LVU1627
 6195 17fa 6721     		movs	r1, #103
 6196 17fc 4DF21F10 		movw	r0, #53535
 6197 1800 FFF7FEFF 		bl	LCD_WriteReg
 6198              	.LVL1146:
1642:Drivers/LCD_FMC/src/tftLCD.c ****         LCD_WriteReg(0xD121,0x84);
 6199              		.loc 1 1642 9 view .LVU1628
 6200 1804 0221     		movs	r1, #2
 6201 1806 4DF22010 		movw	r0, #53536
 6202 180a FFF7FEFF 		bl	LCD_WriteReg
 6203              	.LVL1147:
1643:Drivers/LCD_FMC/src/tftLCD.c ****         LCD_WriteReg(0xD122,0x02);
 6204              		.loc 1 1643 9 view .LVU1629
 6205 180e 8421     		movs	r1, #132
 6206 1810 4DF22110 		movw	r0, #53537
 6207 1814 FFF7FEFF 		bl	LCD_WriteReg
 6208              	.LVL1148:
1644:Drivers/LCD_FMC/src/tftLCD.c ****         LCD_WriteReg(0xD123,0xA4);
 6209              		.loc 1 1644 9 view .LVU1630
 6210 1818 0221     		movs	r1, #2
 6211 181a 4DF22210 		movw	r0, #53538
 6212 181e FFF7FEFF 		bl	LCD_WriteReg
 6213              	.LVL1149:
1645:Drivers/LCD_FMC/src/tftLCD.c ****         LCD_WriteReg(0xD124,0x02);
 6214              		.loc 1 1645 9 view .LVU1631
 6215 1822 A421     		movs	r1, #164
 6216 1824 4DF22310 		movw	r0, #53539
 6217 1828 FFF7FEFF 		bl	LCD_WriteReg
ARM GAS  C:\usertemp\ccUDQ5mr.s 			page 169


 6218              	.LVL1150:
1646:Drivers/LCD_FMC/src/tftLCD.c ****         LCD_WriteReg(0xD125,0xB7);
 6219              		.loc 1 1646 9 view .LVU1632
 6220 182c 0221     		movs	r1, #2
 6221 182e 4DF22410 		movw	r0, #53540
 6222 1832 FFF7FEFF 		bl	LCD_WriteReg
 6223              	.LVL1151:
1647:Drivers/LCD_FMC/src/tftLCD.c ****         LCD_WriteReg(0xD126,0x02);
 6224              		.loc 1 1647 9 view .LVU1633
 6225 1836 B721     		movs	r1, #183
 6226 1838 4DF22510 		movw	r0, #53541
 6227 183c FFF7FEFF 		bl	LCD_WriteReg
 6228              	.LVL1152:
1648:Drivers/LCD_FMC/src/tftLCD.c ****         LCD_WriteReg(0xD127,0xCF);
 6229              		.loc 1 1648 9 view .LVU1634
 6230 1840 0221     		movs	r1, #2
 6231 1842 4DF22610 		movw	r0, #53542
 6232 1846 FFF7FEFF 		bl	LCD_WriteReg
 6233              	.LVL1153:
1649:Drivers/LCD_FMC/src/tftLCD.c ****         LCD_WriteReg(0xD128,0x02);
 6234              		.loc 1 1649 9 view .LVU1635
 6235 184a CF21     		movs	r1, #207
 6236 184c 4DF22710 		movw	r0, #53543
 6237 1850 FFF7FEFF 		bl	LCD_WriteReg
 6238              	.LVL1154:
1650:Drivers/LCD_FMC/src/tftLCD.c ****         LCD_WriteReg(0xD129,0xDE);
 6239              		.loc 1 1650 9 view .LVU1636
 6240 1854 0221     		movs	r1, #2
 6241 1856 4DF22810 		movw	r0, #53544
 6242 185a FFF7FEFF 		bl	LCD_WriteReg
 6243              	.LVL1155:
1651:Drivers/LCD_FMC/src/tftLCD.c ****         LCD_WriteReg(0xD12A,0x02);
 6244              		.loc 1 1651 9 view .LVU1637
 6245 185e DE21     		movs	r1, #222
 6246 1860 4DF22910 		movw	r0, #53545
 6247 1864 FFF7FEFF 		bl	LCD_WriteReg
 6248              	.LVL1156:
1652:Drivers/LCD_FMC/src/tftLCD.c ****         LCD_WriteReg(0xD12B,0xF2);
 6249              		.loc 1 1652 9 view .LVU1638
 6250 1868 0221     		movs	r1, #2
 6251 186a 4DF22A10 		movw	r0, #53546
 6252 186e FFF7FEFF 		bl	LCD_WriteReg
 6253              	.LVL1157:
1653:Drivers/LCD_FMC/src/tftLCD.c ****         LCD_WriteReg(0xD12C,0x02);
 6254              		.loc 1 1653 9 view .LVU1639
 6255 1872 F221     		movs	r1, #242
 6256 1874 4DF22B10 		movw	r0, #53547
 6257 1878 FFF7FEFF 		bl	LCD_WriteReg
 6258              	.LVL1158:
1654:Drivers/LCD_FMC/src/tftLCD.c ****         LCD_WriteReg(0xD12D,0xFE);
 6259              		.loc 1 1654 9 view .LVU1640
 6260 187c 0221     		movs	r1, #2
 6261 187e 4DF22C10 		movw	r0, #53548
 6262 1882 FFF7FEFF 		bl	LCD_WriteReg
 6263              	.LVL1159:
1655:Drivers/LCD_FMC/src/tftLCD.c ****         LCD_WriteReg(0xD12E,0x03);
 6264              		.loc 1 1655 9 view .LVU1641
ARM GAS  C:\usertemp\ccUDQ5mr.s 			page 170


 6265 1886 FE21     		movs	r1, #254
 6266 1888 4DF22D10 		movw	r0, #53549
 6267 188c FFF7FEFF 		bl	LCD_WriteReg
 6268              	.LVL1160:
1656:Drivers/LCD_FMC/src/tftLCD.c ****         LCD_WriteReg(0xD12F,0x10);
 6269              		.loc 1 1656 9 view .LVU1642
 6270 1890 0321     		movs	r1, #3
 6271 1892 4DF22E10 		movw	r0, #53550
 6272 1896 FFF7FEFF 		bl	LCD_WriteReg
 6273              	.LVL1161:
1657:Drivers/LCD_FMC/src/tftLCD.c ****         LCD_WriteReg(0xD130,0x03);
 6274              		.loc 1 1657 9 view .LVU1643
 6275 189a 1021     		movs	r1, #16
 6276 189c 4DF22F10 		movw	r0, #53551
 6277 18a0 FFF7FEFF 		bl	LCD_WriteReg
 6278              	.LVL1162:
1658:Drivers/LCD_FMC/src/tftLCD.c ****         LCD_WriteReg(0xD131,0x33);
 6279              		.loc 1 1658 9 view .LVU1644
 6280 18a4 0321     		movs	r1, #3
 6281 18a6 4DF23010 		movw	r0, #53552
 6282 18aa FFF7FEFF 		bl	LCD_WriteReg
 6283              	.LVL1163:
1659:Drivers/LCD_FMC/src/tftLCD.c ****         LCD_WriteReg(0xD132,0x03);
 6284              		.loc 1 1659 9 view .LVU1645
 6285 18ae 3321     		movs	r1, #51
 6286 18b0 4DF23110 		movw	r0, #53553
 6287 18b4 FFF7FEFF 		bl	LCD_WriteReg
 6288              	.LVL1164:
1660:Drivers/LCD_FMC/src/tftLCD.c ****         LCD_WriteReg(0xD133,0x6D);
 6289              		.loc 1 1660 9 view .LVU1646
 6290 18b8 0321     		movs	r1, #3
 6291 18ba 4DF23210 		movw	r0, #53554
 6292 18be FFF7FEFF 		bl	LCD_WriteReg
 6293              	.LVL1165:
1661:Drivers/LCD_FMC/src/tftLCD.c ****         LCD_WriteReg(0xD200,0x00);
 6294              		.loc 1 1661 9 view .LVU1647
 6295 18c2 6D21     		movs	r1, #109
 6296 18c4 4DF23310 		movw	r0, #53555
 6297 18c8 FFF7FEFF 		bl	LCD_WriteReg
 6298              	.LVL1166:
1662:Drivers/LCD_FMC/src/tftLCD.c ****         LCD_WriteReg(0xD201,0x33);
 6299              		.loc 1 1662 9 view .LVU1648
 6300 18cc 0021     		movs	r1, #0
 6301 18ce 4FF45240 		mov	r0, #53760
 6302 18d2 FFF7FEFF 		bl	LCD_WriteReg
 6303              	.LVL1167:
1663:Drivers/LCD_FMC/src/tftLCD.c ****         LCD_WriteReg(0xD202,0x00);
 6304              		.loc 1 1663 9 view .LVU1649
 6305 18d6 3321     		movs	r1, #51
 6306 18d8 4DF20120 		movw	r0, #53761
 6307 18dc FFF7FEFF 		bl	LCD_WriteReg
 6308              	.LVL1168:
1664:Drivers/LCD_FMC/src/tftLCD.c ****         LCD_WriteReg(0xD203,0x34);
 6309              		.loc 1 1664 9 view .LVU1650
 6310 18e0 0021     		movs	r1, #0
 6311 18e2 4DF20220 		movw	r0, #53762
 6312 18e6 FFF7FEFF 		bl	LCD_WriteReg
ARM GAS  C:\usertemp\ccUDQ5mr.s 			page 171


 6313              	.LVL1169:
1665:Drivers/LCD_FMC/src/tftLCD.c ****         LCD_WriteReg(0xD204,0x00);
 6314              		.loc 1 1665 9 view .LVU1651
 6315 18ea 3421     		movs	r1, #52
 6316 18ec 4DF20320 		movw	r0, #53763
 6317 18f0 FFF7FEFF 		bl	LCD_WriteReg
 6318              	.LVL1170:
1666:Drivers/LCD_FMC/src/tftLCD.c ****         LCD_WriteReg(0xD205,0x3A);
 6319              		.loc 1 1666 9 view .LVU1652
 6320 18f4 0021     		movs	r1, #0
 6321 18f6 4DF20420 		movw	r0, #53764
 6322 18fa FFF7FEFF 		bl	LCD_WriteReg
 6323              	.LVL1171:
1667:Drivers/LCD_FMC/src/tftLCD.c ****         LCD_WriteReg(0xD206,0x00);
 6324              		.loc 1 1667 9 view .LVU1653
 6325 18fe 3A21     		movs	r1, #58
 6326 1900 4DF20520 		movw	r0, #53765
 6327 1904 FFF7FEFF 		bl	LCD_WriteReg
 6328              	.LVL1172:
1668:Drivers/LCD_FMC/src/tftLCD.c ****         LCD_WriteReg(0xD207,0x4A);
 6329              		.loc 1 1668 9 view .LVU1654
 6330 1908 0021     		movs	r1, #0
 6331 190a 4DF20620 		movw	r0, #53766
 6332 190e FFF7FEFF 		bl	LCD_WriteReg
 6333              	.LVL1173:
1669:Drivers/LCD_FMC/src/tftLCD.c ****         LCD_WriteReg(0xD208,0x00);
 6334              		.loc 1 1669 9 view .LVU1655
 6335 1912 4A21     		movs	r1, #74
 6336 1914 4DF20720 		movw	r0, #53767
 6337 1918 FFF7FEFF 		bl	LCD_WriteReg
 6338              	.LVL1174:
1670:Drivers/LCD_FMC/src/tftLCD.c ****         LCD_WriteReg(0xD209,0x5C);
 6339              		.loc 1 1670 9 view .LVU1656
 6340 191c 0021     		movs	r1, #0
 6341 191e 4DF20820 		movw	r0, #53768
 6342 1922 FFF7FEFF 		bl	LCD_WriteReg
 6343              	.LVL1175:
1671:Drivers/LCD_FMC/src/tftLCD.c ****         LCD_WriteReg(0xD20A,0x00);
 6344              		.loc 1 1671 9 view .LVU1657
 6345 1926 5C21     		movs	r1, #92
 6346 1928 4DF20920 		movw	r0, #53769
 6347 192c FFF7FEFF 		bl	LCD_WriteReg
 6348              	.LVL1176:
1672:Drivers/LCD_FMC/src/tftLCD.c **** 
 6349              		.loc 1 1672 9 view .LVU1658
 6350 1930 0021     		movs	r1, #0
 6351 1932 4DF20A20 		movw	r0, #53770
 6352 1936 FFF7FEFF 		bl	LCD_WriteReg
 6353              	.LVL1177:
1674:Drivers/LCD_FMC/src/tftLCD.c ****         LCD_WriteReg(0xD20C,0x00);
 6354              		.loc 1 1674 9 view .LVU1659
 6355 193a 8121     		movs	r1, #129
 6356 193c 4DF20B20 		movw	r0, #53771
 6357 1940 FFF7FEFF 		bl	LCD_WriteReg
 6358              	.LVL1178:
1675:Drivers/LCD_FMC/src/tftLCD.c ****         LCD_WriteReg(0xD20D,0xA6);
 6359              		.loc 1 1675 9 view .LVU1660
ARM GAS  C:\usertemp\ccUDQ5mr.s 			page 172


 6360 1944 0021     		movs	r1, #0
 6361 1946 4DF20C20 		movw	r0, #53772
 6362 194a FFF7FEFF 		bl	LCD_WriteReg
 6363              	.LVL1179:
1676:Drivers/LCD_FMC/src/tftLCD.c ****         LCD_WriteReg(0xD20E,0x00);
 6364              		.loc 1 1676 9 view .LVU1661
 6365 194e A621     		movs	r1, #166
 6366 1950 4DF20D20 		movw	r0, #53773
 6367 1954 FFF7FEFF 		bl	LCD_WriteReg
 6368              	.LVL1180:
1677:Drivers/LCD_FMC/src/tftLCD.c ****         LCD_WriteReg(0xD20F,0xE5);
 6369              		.loc 1 1677 9 view .LVU1662
 6370 1958 0021     		movs	r1, #0
 6371 195a 4DF20E20 		movw	r0, #53774
 6372 195e FFF7FEFF 		bl	LCD_WriteReg
 6373              	.LVL1181:
1678:Drivers/LCD_FMC/src/tftLCD.c ****         LCD_WriteReg(0xD210,0x01);
 6374              		.loc 1 1678 9 view .LVU1663
 6375 1962 E521     		movs	r1, #229
 6376 1964 4DF20F20 		movw	r0, #53775
 6377 1968 FFF7FEFF 		bl	LCD_WriteReg
 6378              	.LVL1182:
1679:Drivers/LCD_FMC/src/tftLCD.c ****         LCD_WriteReg(0xD211,0x13);
 6379              		.loc 1 1679 9 view .LVU1664
 6380 196c 0121     		movs	r1, #1
 6381 196e 4DF21020 		movw	r0, #53776
 6382 1972 FFF7FEFF 		bl	LCD_WriteReg
 6383              	.LVL1183:
1680:Drivers/LCD_FMC/src/tftLCD.c ****         LCD_WriteReg(0xD212,0x01);
 6384              		.loc 1 1680 9 view .LVU1665
 6385 1976 1321     		movs	r1, #19
 6386 1978 4DF21120 		movw	r0, #53777
 6387 197c FFF7FEFF 		bl	LCD_WriteReg
 6388              	.LVL1184:
1681:Drivers/LCD_FMC/src/tftLCD.c ****         LCD_WriteReg(0xD213,0x54);
 6389              		.loc 1 1681 9 view .LVU1666
 6390 1980 0121     		movs	r1, #1
 6391 1982 4DF21220 		movw	r0, #53778
 6392 1986 FFF7FEFF 		bl	LCD_WriteReg
 6393              	.LVL1185:
1682:Drivers/LCD_FMC/src/tftLCD.c ****         LCD_WriteReg(0xD214,0x01);
 6394              		.loc 1 1682 9 view .LVU1667
 6395 198a 5421     		movs	r1, #84
 6396 198c 4DF21320 		movw	r0, #53779
 6397 1990 FFF7FEFF 		bl	LCD_WriteReg
 6398              	.LVL1186:
1683:Drivers/LCD_FMC/src/tftLCD.c ****         LCD_WriteReg(0xD215,0x82);
 6399              		.loc 1 1683 9 view .LVU1668
 6400 1994 0121     		movs	r1, #1
 6401 1996 4DF21420 		movw	r0, #53780
 6402 199a FFF7FEFF 		bl	LCD_WriteReg
 6403              	.LVL1187:
1684:Drivers/LCD_FMC/src/tftLCD.c ****         LCD_WriteReg(0xD216,0x01);
 6404              		.loc 1 1684 9 view .LVU1669
 6405 199e 8221     		movs	r1, #130
 6406 19a0 4DF21520 		movw	r0, #53781
 6407 19a4 FFF7FEFF 		bl	LCD_WriteReg
ARM GAS  C:\usertemp\ccUDQ5mr.s 			page 173


 6408              	.LVL1188:
1685:Drivers/LCD_FMC/src/tftLCD.c ****         LCD_WriteReg(0xD217,0xCA);
 6409              		.loc 1 1685 9 view .LVU1670
 6410 19a8 0121     		movs	r1, #1
 6411 19aa 4DF21620 		movw	r0, #53782
 6412 19ae FFF7FEFF 		bl	LCD_WriteReg
 6413              	.LVL1189:
1686:Drivers/LCD_FMC/src/tftLCD.c ****         LCD_WriteReg(0xD218,0x02);
 6414              		.loc 1 1686 9 view .LVU1671
 6415 19b2 CA21     		movs	r1, #202
 6416 19b4 4DF21720 		movw	r0, #53783
 6417 19b8 FFF7FEFF 		bl	LCD_WriteReg
 6418              	.LVL1190:
1687:Drivers/LCD_FMC/src/tftLCD.c ****         LCD_WriteReg(0xD219,0x00);
 6419              		.loc 1 1687 9 view .LVU1672
 6420 19bc 0221     		movs	r1, #2
 6421 19be 4DF21820 		movw	r0, #53784
 6422 19c2 FFF7FEFF 		bl	LCD_WriteReg
 6423              	.LVL1191:
1688:Drivers/LCD_FMC/src/tftLCD.c ****         LCD_WriteReg(0xD21A,0x02);
 6424              		.loc 1 1688 9 view .LVU1673
 6425 19c6 0021     		movs	r1, #0
 6426 19c8 4DF21920 		movw	r0, #53785
 6427 19cc FFF7FEFF 		bl	LCD_WriteReg
 6428              	.LVL1192:
1689:Drivers/LCD_FMC/src/tftLCD.c ****         LCD_WriteReg(0xD21B,0x01);
 6429              		.loc 1 1689 9 view .LVU1674
 6430 19d0 0221     		movs	r1, #2
 6431 19d2 4DF21A20 		movw	r0, #53786
 6432 19d6 FFF7FEFF 		bl	LCD_WriteReg
 6433              	.LVL1193:
1690:Drivers/LCD_FMC/src/tftLCD.c ****         LCD_WriteReg(0xD21C,0x02);
 6434              		.loc 1 1690 9 view .LVU1675
 6435 19da 0121     		movs	r1, #1
 6436 19dc 4DF21B20 		movw	r0, #53787
 6437 19e0 FFF7FEFF 		bl	LCD_WriteReg
 6438              	.LVL1194:
1691:Drivers/LCD_FMC/src/tftLCD.c ****         LCD_WriteReg(0xD21D,0x34);
 6439              		.loc 1 1691 9 view .LVU1676
 6440 19e4 0221     		movs	r1, #2
 6441 19e6 4DF21C20 		movw	r0, #53788
 6442 19ea FFF7FEFF 		bl	LCD_WriteReg
 6443              	.LVL1195:
1692:Drivers/LCD_FMC/src/tftLCD.c ****         LCD_WriteReg(0xD21E,0x02);
 6444              		.loc 1 1692 9 view .LVU1677
 6445 19ee 3421     		movs	r1, #52
 6446 19f0 4DF21D20 		movw	r0, #53789
 6447 19f4 FFF7FEFF 		bl	LCD_WriteReg
 6448              	.LVL1196:
1693:Drivers/LCD_FMC/src/tftLCD.c ****         LCD_WriteReg(0xD21F,0x67);
 6449              		.loc 1 1693 9 view .LVU1678
 6450 19f8 0221     		movs	r1, #2
 6451 19fa 4DF21E20 		movw	r0, #53790
 6452 19fe FFF7FEFF 		bl	LCD_WriteReg
 6453              	.LVL1197:
1694:Drivers/LCD_FMC/src/tftLCD.c ****         LCD_WriteReg(0xD220,0x02);
 6454              		.loc 1 1694 9 view .LVU1679
ARM GAS  C:\usertemp\ccUDQ5mr.s 			page 174


 6455 1a02 6721     		movs	r1, #103
 6456 1a04 4DF21F20 		movw	r0, #53791
 6457 1a08 FFF7FEFF 		bl	LCD_WriteReg
 6458              	.LVL1198:
1695:Drivers/LCD_FMC/src/tftLCD.c ****         LCD_WriteReg(0xD221,0x84);
 6459              		.loc 1 1695 9 view .LVU1680
 6460 1a0c 0221     		movs	r1, #2
 6461 1a0e 4DF22020 		movw	r0, #53792
 6462 1a12 FFF7FEFF 		bl	LCD_WriteReg
 6463              	.LVL1199:
1696:Drivers/LCD_FMC/src/tftLCD.c ****         LCD_WriteReg(0xD222,0x02);
 6464              		.loc 1 1696 9 view .LVU1681
 6465 1a16 8421     		movs	r1, #132
 6466 1a18 4DF22120 		movw	r0, #53793
 6467 1a1c FFF7FEFF 		bl	LCD_WriteReg
 6468              	.LVL1200:
1697:Drivers/LCD_FMC/src/tftLCD.c ****         LCD_WriteReg(0xD223,0xA4);
 6469              		.loc 1 1697 9 view .LVU1682
 6470 1a20 0221     		movs	r1, #2
 6471 1a22 4DF22220 		movw	r0, #53794
 6472 1a26 FFF7FEFF 		bl	LCD_WriteReg
 6473              	.LVL1201:
1698:Drivers/LCD_FMC/src/tftLCD.c ****         LCD_WriteReg(0xD224,0x02);
 6474              		.loc 1 1698 9 view .LVU1683
 6475 1a2a A421     		movs	r1, #164
 6476 1a2c 4DF22320 		movw	r0, #53795
 6477 1a30 FFF7FEFF 		bl	LCD_WriteReg
 6478              	.LVL1202:
1699:Drivers/LCD_FMC/src/tftLCD.c ****         LCD_WriteReg(0xD225,0xB7);
 6479              		.loc 1 1699 9 view .LVU1684
 6480 1a34 0221     		movs	r1, #2
 6481 1a36 4DF22420 		movw	r0, #53796
 6482 1a3a FFF7FEFF 		bl	LCD_WriteReg
 6483              	.LVL1203:
1700:Drivers/LCD_FMC/src/tftLCD.c ****         LCD_WriteReg(0xD226,0x02);
 6484              		.loc 1 1700 9 view .LVU1685
 6485 1a3e B721     		movs	r1, #183
 6486 1a40 4DF22520 		movw	r0, #53797
 6487 1a44 FFF7FEFF 		bl	LCD_WriteReg
 6488              	.LVL1204:
1701:Drivers/LCD_FMC/src/tftLCD.c ****         LCD_WriteReg(0xD227,0xCF);
 6489              		.loc 1 1701 9 view .LVU1686
 6490 1a48 0221     		movs	r1, #2
 6491 1a4a 4DF22620 		movw	r0, #53798
 6492 1a4e FFF7FEFF 		bl	LCD_WriteReg
 6493              	.LVL1205:
1702:Drivers/LCD_FMC/src/tftLCD.c ****         LCD_WriteReg(0xD228,0x02);
 6494              		.loc 1 1702 9 view .LVU1687
 6495 1a52 CF21     		movs	r1, #207
 6496 1a54 4DF22720 		movw	r0, #53799
 6497 1a58 FFF7FEFF 		bl	LCD_WriteReg
 6498              	.LVL1206:
1703:Drivers/LCD_FMC/src/tftLCD.c ****         LCD_WriteReg(0xD229,0xDE);
 6499              		.loc 1 1703 9 view .LVU1688
 6500 1a5c 0221     		movs	r1, #2
 6501 1a5e 4DF22820 		movw	r0, #53800
 6502 1a62 FFF7FEFF 		bl	LCD_WriteReg
ARM GAS  C:\usertemp\ccUDQ5mr.s 			page 175


 6503              	.LVL1207:
1704:Drivers/LCD_FMC/src/tftLCD.c ****         LCD_WriteReg(0xD22A,0x02);
 6504              		.loc 1 1704 9 view .LVU1689
 6505 1a66 DE21     		movs	r1, #222
 6506 1a68 4DF22920 		movw	r0, #53801
 6507 1a6c FFF7FEFF 		bl	LCD_WriteReg
 6508              	.LVL1208:
1705:Drivers/LCD_FMC/src/tftLCD.c ****         LCD_WriteReg(0xD22B,0xF2);
 6509              		.loc 1 1705 9 view .LVU1690
 6510 1a70 0221     		movs	r1, #2
 6511 1a72 4DF22A20 		movw	r0, #53802
 6512 1a76 FFF7FEFF 		bl	LCD_WriteReg
 6513              	.LVL1209:
1706:Drivers/LCD_FMC/src/tftLCD.c ****         LCD_WriteReg(0xD22C,0x02);
 6514              		.loc 1 1706 9 view .LVU1691
 6515 1a7a F221     		movs	r1, #242
 6516 1a7c 4DF22B20 		movw	r0, #53803
 6517 1a80 FFF7FEFF 		bl	LCD_WriteReg
 6518              	.LVL1210:
1707:Drivers/LCD_FMC/src/tftLCD.c ****         LCD_WriteReg(0xD22D,0xFE);
 6519              		.loc 1 1707 9 view .LVU1692
 6520 1a84 0221     		movs	r1, #2
 6521 1a86 4DF22C20 		movw	r0, #53804
 6522 1a8a FFF7FEFF 		bl	LCD_WriteReg
 6523              	.LVL1211:
1708:Drivers/LCD_FMC/src/tftLCD.c ****         LCD_WriteReg(0xD22E,0x03);
 6524              		.loc 1 1708 9 view .LVU1693
 6525 1a8e FE21     		movs	r1, #254
 6526 1a90 4DF22D20 		movw	r0, #53805
 6527 1a94 FFF7FEFF 		bl	LCD_WriteReg
 6528              	.LVL1212:
1709:Drivers/LCD_FMC/src/tftLCD.c ****         LCD_WriteReg(0xD22F,0x10);
 6529              		.loc 1 1709 9 view .LVU1694
 6530 1a98 0321     		movs	r1, #3
 6531 1a9a 4DF22E20 		movw	r0, #53806
 6532 1a9e FFF7FEFF 		bl	LCD_WriteReg
 6533              	.LVL1213:
1710:Drivers/LCD_FMC/src/tftLCD.c ****         LCD_WriteReg(0xD230,0x03);
 6534              		.loc 1 1710 9 view .LVU1695
 6535 1aa2 1021     		movs	r1, #16
 6536 1aa4 4DF22F20 		movw	r0, #53807
 6537 1aa8 FFF7FEFF 		bl	LCD_WriteReg
 6538              	.LVL1214:
1711:Drivers/LCD_FMC/src/tftLCD.c ****         LCD_WriteReg(0xD231,0x33);
 6539              		.loc 1 1711 9 view .LVU1696
 6540 1aac 0321     		movs	r1, #3
 6541 1aae 4DF23020 		movw	r0, #53808
 6542 1ab2 FFF7FEFF 		bl	LCD_WriteReg
 6543              	.LVL1215:
1712:Drivers/LCD_FMC/src/tftLCD.c ****         LCD_WriteReg(0xD232,0x03);
 6544              		.loc 1 1712 9 view .LVU1697
 6545 1ab6 3321     		movs	r1, #51
 6546 1ab8 4DF23120 		movw	r0, #53809
 6547 1abc FFF7FEFF 		bl	LCD_WriteReg
 6548              	.LVL1216:
1713:Drivers/LCD_FMC/src/tftLCD.c ****         LCD_WriteReg(0xD233,0x6D);
 6549              		.loc 1 1713 9 view .LVU1698
ARM GAS  C:\usertemp\ccUDQ5mr.s 			page 176


 6550 1ac0 0321     		movs	r1, #3
 6551 1ac2 4DF23220 		movw	r0, #53810
 6552 1ac6 FFF7FEFF 		bl	LCD_WriteReg
 6553              	.LVL1217:
1714:Drivers/LCD_FMC/src/tftLCD.c ****         LCD_WriteReg(0xD300,0x00);
 6554              		.loc 1 1714 9 view .LVU1699
 6555 1aca 6D21     		movs	r1, #109
 6556 1acc 4DF23320 		movw	r0, #53811
 6557 1ad0 FFF7FEFF 		bl	LCD_WriteReg
 6558              	.LVL1218:
1715:Drivers/LCD_FMC/src/tftLCD.c ****         LCD_WriteReg(0xD301,0x33);
 6559              		.loc 1 1715 9 view .LVU1700
 6560 1ad4 0021     		movs	r1, #0
 6561 1ad6 4FF45340 		mov	r0, #54016
 6562 1ada FFF7FEFF 		bl	LCD_WriteReg
 6563              	.LVL1219:
1716:Drivers/LCD_FMC/src/tftLCD.c ****         LCD_WriteReg(0xD302,0x00);
 6564              		.loc 1 1716 9 view .LVU1701
 6565 1ade 3321     		movs	r1, #51
 6566 1ae0 4DF20130 		movw	r0, #54017
 6567 1ae4 FFF7FEFF 		bl	LCD_WriteReg
 6568              	.LVL1220:
1717:Drivers/LCD_FMC/src/tftLCD.c ****         LCD_WriteReg(0xD303,0x34);
 6569              		.loc 1 1717 9 view .LVU1702
 6570 1ae8 0021     		movs	r1, #0
 6571 1aea 4DF20230 		movw	r0, #54018
 6572 1aee FFF7FEFF 		bl	LCD_WriteReg
 6573              	.LVL1221:
1718:Drivers/LCD_FMC/src/tftLCD.c ****         LCD_WriteReg(0xD304,0x00);
 6574              		.loc 1 1718 9 view .LVU1703
 6575 1af2 3421     		movs	r1, #52
 6576 1af4 4DF20330 		movw	r0, #54019
 6577 1af8 FFF7FEFF 		bl	LCD_WriteReg
 6578              	.LVL1222:
1719:Drivers/LCD_FMC/src/tftLCD.c ****         LCD_WriteReg(0xD305,0x3A);
 6579              		.loc 1 1719 9 view .LVU1704
 6580 1afc 0021     		movs	r1, #0
 6581 1afe 4DF20430 		movw	r0, #54020
 6582 1b02 FFF7FEFF 		bl	LCD_WriteReg
 6583              	.LVL1223:
1720:Drivers/LCD_FMC/src/tftLCD.c ****         LCD_WriteReg(0xD306,0x00);
 6584              		.loc 1 1720 9 view .LVU1705
 6585 1b06 3A21     		movs	r1, #58
 6586 1b08 4DF20530 		movw	r0, #54021
 6587 1b0c FFF7FEFF 		bl	LCD_WriteReg
 6588              	.LVL1224:
1721:Drivers/LCD_FMC/src/tftLCD.c ****         LCD_WriteReg(0xD307,0x4A);
 6589              		.loc 1 1721 9 view .LVU1706
 6590 1b10 0021     		movs	r1, #0
 6591 1b12 4DF20630 		movw	r0, #54022
 6592 1b16 FFF7FEFF 		bl	LCD_WriteReg
 6593              	.LVL1225:
1722:Drivers/LCD_FMC/src/tftLCD.c ****         LCD_WriteReg(0xD308,0x00);
 6594              		.loc 1 1722 9 view .LVU1707
 6595 1b1a 4A21     		movs	r1, #74
 6596 1b1c 4DF20730 		movw	r0, #54023
 6597 1b20 FFF7FEFF 		bl	LCD_WriteReg
ARM GAS  C:\usertemp\ccUDQ5mr.s 			page 177


 6598              	.LVL1226:
1723:Drivers/LCD_FMC/src/tftLCD.c ****         LCD_WriteReg(0xD309,0x5C);
 6599              		.loc 1 1723 9 view .LVU1708
 6600 1b24 0021     		movs	r1, #0
 6601 1b26 4DF20830 		movw	r0, #54024
 6602 1b2a FFF7FEFF 		bl	LCD_WriteReg
 6603              	.LVL1227:
1724:Drivers/LCD_FMC/src/tftLCD.c ****         LCD_WriteReg(0xD30A,0x00);
 6604              		.loc 1 1724 9 view .LVU1709
 6605 1b2e 5C21     		movs	r1, #92
 6606 1b30 4DF20930 		movw	r0, #54025
 6607 1b34 FFF7FEFF 		bl	LCD_WriteReg
 6608              	.LVL1228:
1725:Drivers/LCD_FMC/src/tftLCD.c **** 
 6609              		.loc 1 1725 9 view .LVU1710
 6610 1b38 0021     		movs	r1, #0
 6611 1b3a 4DF20A30 		movw	r0, #54026
 6612 1b3e FFF7FEFF 		bl	LCD_WriteReg
 6613              	.LVL1229:
1727:Drivers/LCD_FMC/src/tftLCD.c ****         LCD_WriteReg(0xD30C,0x00);
 6614              		.loc 1 1727 9 view .LVU1711
 6615 1b42 8121     		movs	r1, #129
 6616 1b44 4DF20B30 		movw	r0, #54027
 6617 1b48 FFF7FEFF 		bl	LCD_WriteReg
 6618              	.LVL1230:
1728:Drivers/LCD_FMC/src/tftLCD.c ****         LCD_WriteReg(0xD30D,0xA6);
 6619              		.loc 1 1728 9 view .LVU1712
 6620 1b4c 0021     		movs	r1, #0
 6621 1b4e 4DF20C30 		movw	r0, #54028
 6622 1b52 FFF7FEFF 		bl	LCD_WriteReg
 6623              	.LVL1231:
1729:Drivers/LCD_FMC/src/tftLCD.c ****         LCD_WriteReg(0xD30E,0x00);
 6624              		.loc 1 1729 9 view .LVU1713
 6625 1b56 A621     		movs	r1, #166
 6626 1b58 4DF20D30 		movw	r0, #54029
 6627 1b5c FFF7FEFF 		bl	LCD_WriteReg
 6628              	.LVL1232:
1730:Drivers/LCD_FMC/src/tftLCD.c ****         LCD_WriteReg(0xD30F,0xE5);
 6629              		.loc 1 1730 9 view .LVU1714
 6630 1b60 0021     		movs	r1, #0
 6631 1b62 4DF20E30 		movw	r0, #54030
 6632 1b66 FFF7FEFF 		bl	LCD_WriteReg
 6633              	.LVL1233:
1731:Drivers/LCD_FMC/src/tftLCD.c ****         LCD_WriteReg(0xD310,0x01);
 6634              		.loc 1 1731 9 view .LVU1715
 6635 1b6a E521     		movs	r1, #229
 6636 1b6c 4DF20F30 		movw	r0, #54031
 6637 1b70 FFF7FEFF 		bl	LCD_WriteReg
 6638              	.LVL1234:
1732:Drivers/LCD_FMC/src/tftLCD.c ****         LCD_WriteReg(0xD311,0x13);
 6639              		.loc 1 1732 9 view .LVU1716
 6640 1b74 0121     		movs	r1, #1
 6641 1b76 4DF21030 		movw	r0, #54032
 6642 1b7a FFF7FEFF 		bl	LCD_WriteReg
 6643              	.LVL1235:
1733:Drivers/LCD_FMC/src/tftLCD.c ****         LCD_WriteReg(0xD312,0x01);
 6644              		.loc 1 1733 9 view .LVU1717
ARM GAS  C:\usertemp\ccUDQ5mr.s 			page 178


 6645 1b7e 1321     		movs	r1, #19
 6646 1b80 4DF21130 		movw	r0, #54033
 6647 1b84 FFF7FEFF 		bl	LCD_WriteReg
 6648              	.LVL1236:
1734:Drivers/LCD_FMC/src/tftLCD.c ****         LCD_WriteReg(0xD313,0x54);
 6649              		.loc 1 1734 9 view .LVU1718
 6650 1b88 0121     		movs	r1, #1
 6651 1b8a 4DF21230 		movw	r0, #54034
 6652 1b8e FFF7FEFF 		bl	LCD_WriteReg
 6653              	.LVL1237:
1735:Drivers/LCD_FMC/src/tftLCD.c ****         LCD_WriteReg(0xD314,0x01);
 6654              		.loc 1 1735 9 view .LVU1719
 6655 1b92 5421     		movs	r1, #84
 6656 1b94 4DF21330 		movw	r0, #54035
 6657 1b98 FFF7FEFF 		bl	LCD_WriteReg
 6658              	.LVL1238:
1736:Drivers/LCD_FMC/src/tftLCD.c ****         LCD_WriteReg(0xD315,0x82);
 6659              		.loc 1 1736 9 view .LVU1720
 6660 1b9c 0121     		movs	r1, #1
 6661 1b9e 4DF21430 		movw	r0, #54036
 6662 1ba2 FFF7FEFF 		bl	LCD_WriteReg
 6663              	.LVL1239:
1737:Drivers/LCD_FMC/src/tftLCD.c ****         LCD_WriteReg(0xD316,0x01);
 6664              		.loc 1 1737 9 view .LVU1721
 6665 1ba6 8221     		movs	r1, #130
 6666 1ba8 4DF21530 		movw	r0, #54037
 6667 1bac FFF7FEFF 		bl	LCD_WriteReg
 6668              	.LVL1240:
1738:Drivers/LCD_FMC/src/tftLCD.c ****         LCD_WriteReg(0xD317,0xCA);
 6669              		.loc 1 1738 9 view .LVU1722
 6670 1bb0 0121     		movs	r1, #1
 6671 1bb2 4DF21630 		movw	r0, #54038
 6672 1bb6 FFF7FEFF 		bl	LCD_WriteReg
 6673              	.LVL1241:
1739:Drivers/LCD_FMC/src/tftLCD.c ****         LCD_WriteReg(0xD318,0x02);
 6674              		.loc 1 1739 9 view .LVU1723
 6675 1bba CA21     		movs	r1, #202
 6676 1bbc 4DF21730 		movw	r0, #54039
 6677 1bc0 FFF7FEFF 		bl	LCD_WriteReg
 6678              	.LVL1242:
1740:Drivers/LCD_FMC/src/tftLCD.c ****         LCD_WriteReg(0xD319,0x00);
 6679              		.loc 1 1740 9 view .LVU1724
 6680 1bc4 0221     		movs	r1, #2
 6681 1bc6 4DF21830 		movw	r0, #54040
 6682 1bca FFF7FEFF 		bl	LCD_WriteReg
 6683              	.LVL1243:
1741:Drivers/LCD_FMC/src/tftLCD.c ****         LCD_WriteReg(0xD31A,0x02);
 6684              		.loc 1 1741 9 view .LVU1725
 6685 1bce 0021     		movs	r1, #0
 6686 1bd0 4DF21930 		movw	r0, #54041
 6687 1bd4 FFF7FEFF 		bl	LCD_WriteReg
 6688              	.LVL1244:
1742:Drivers/LCD_FMC/src/tftLCD.c ****         LCD_WriteReg(0xD31B,0x01);
 6689              		.loc 1 1742 9 view .LVU1726
 6690 1bd8 0221     		movs	r1, #2
 6691 1bda 4DF21A30 		movw	r0, #54042
 6692 1bde FFF7FEFF 		bl	LCD_WriteReg
ARM GAS  C:\usertemp\ccUDQ5mr.s 			page 179


 6693              	.LVL1245:
1743:Drivers/LCD_FMC/src/tftLCD.c ****         LCD_WriteReg(0xD31C,0x02);
 6694              		.loc 1 1743 9 view .LVU1727
 6695 1be2 0121     		movs	r1, #1
 6696 1be4 4DF21B30 		movw	r0, #54043
 6697 1be8 FFF7FEFF 		bl	LCD_WriteReg
 6698              	.LVL1246:
1744:Drivers/LCD_FMC/src/tftLCD.c ****         LCD_WriteReg(0xD31D,0x34);
 6699              		.loc 1 1744 9 view .LVU1728
 6700 1bec 0221     		movs	r1, #2
 6701 1bee 4DF21C30 		movw	r0, #54044
 6702 1bf2 FFF7FEFF 		bl	LCD_WriteReg
 6703              	.LVL1247:
1745:Drivers/LCD_FMC/src/tftLCD.c ****         LCD_WriteReg(0xD31E,0x02);
 6704              		.loc 1 1745 9 view .LVU1729
 6705 1bf6 3421     		movs	r1, #52
 6706 1bf8 4DF21D30 		movw	r0, #54045
 6707 1bfc FFF7FEFF 		bl	LCD_WriteReg
 6708              	.LVL1248:
1746:Drivers/LCD_FMC/src/tftLCD.c ****         LCD_WriteReg(0xD31F,0x67);
 6709              		.loc 1 1746 9 view .LVU1730
 6710 1c00 0221     		movs	r1, #2
 6711 1c02 4DF21E30 		movw	r0, #54046
 6712 1c06 FFF7FEFF 		bl	LCD_WriteReg
 6713              	.LVL1249:
1747:Drivers/LCD_FMC/src/tftLCD.c ****         LCD_WriteReg(0xD320,0x02);
 6714              		.loc 1 1747 9 view .LVU1731
 6715 1c0a 6721     		movs	r1, #103
 6716 1c0c 4DF21F30 		movw	r0, #54047
 6717 1c10 FFF7FEFF 		bl	LCD_WriteReg
 6718              	.LVL1250:
1748:Drivers/LCD_FMC/src/tftLCD.c ****         LCD_WriteReg(0xD321,0x84);
 6719              		.loc 1 1748 9 view .LVU1732
 6720 1c14 0221     		movs	r1, #2
 6721 1c16 4DF22030 		movw	r0, #54048
 6722 1c1a FFF7FEFF 		bl	LCD_WriteReg
 6723              	.LVL1251:
1749:Drivers/LCD_FMC/src/tftLCD.c ****         LCD_WriteReg(0xD322,0x02);
 6724              		.loc 1 1749 9 view .LVU1733
 6725 1c1e 8421     		movs	r1, #132
 6726 1c20 4DF22130 		movw	r0, #54049
 6727 1c24 FFF7FEFF 		bl	LCD_WriteReg
 6728              	.LVL1252:
1750:Drivers/LCD_FMC/src/tftLCD.c ****         LCD_WriteReg(0xD323,0xA4);
 6729              		.loc 1 1750 9 view .LVU1734
 6730 1c28 0221     		movs	r1, #2
 6731 1c2a 4DF22230 		movw	r0, #54050
 6732 1c2e FFF7FEFF 		bl	LCD_WriteReg
 6733              	.LVL1253:
1751:Drivers/LCD_FMC/src/tftLCD.c ****         LCD_WriteReg(0xD324,0x02);
 6734              		.loc 1 1751 9 view .LVU1735
 6735 1c32 A421     		movs	r1, #164
 6736 1c34 4DF22330 		movw	r0, #54051
 6737 1c38 FFF7FEFF 		bl	LCD_WriteReg
 6738              	.LVL1254:
1752:Drivers/LCD_FMC/src/tftLCD.c ****         LCD_WriteReg(0xD325,0xB7);
 6739              		.loc 1 1752 9 view .LVU1736
ARM GAS  C:\usertemp\ccUDQ5mr.s 			page 180


 6740 1c3c 0221     		movs	r1, #2
 6741 1c3e 4DF22430 		movw	r0, #54052
 6742 1c42 FFF7FEFF 		bl	LCD_WriteReg
 6743              	.LVL1255:
1753:Drivers/LCD_FMC/src/tftLCD.c ****         LCD_WriteReg(0xD326,0x02);
 6744              		.loc 1 1753 9 view .LVU1737
 6745 1c46 B721     		movs	r1, #183
 6746 1c48 4DF22530 		movw	r0, #54053
 6747 1c4c FFF7FEFF 		bl	LCD_WriteReg
 6748              	.LVL1256:
1754:Drivers/LCD_FMC/src/tftLCD.c ****         LCD_WriteReg(0xD327,0xCF);
 6749              		.loc 1 1754 9 view .LVU1738
 6750 1c50 0221     		movs	r1, #2
 6751 1c52 4DF22630 		movw	r0, #54054
 6752 1c56 FFF7FEFF 		bl	LCD_WriteReg
 6753              	.LVL1257:
1755:Drivers/LCD_FMC/src/tftLCD.c ****         LCD_WriteReg(0xD328,0x02);
 6754              		.loc 1 1755 9 view .LVU1739
 6755 1c5a CF21     		movs	r1, #207
 6756 1c5c 4DF22730 		movw	r0, #54055
 6757 1c60 FFF7FEFF 		bl	LCD_WriteReg
 6758              	.LVL1258:
1756:Drivers/LCD_FMC/src/tftLCD.c ****         LCD_WriteReg(0xD329,0xDE);
 6759              		.loc 1 1756 9 view .LVU1740
 6760 1c64 0221     		movs	r1, #2
 6761 1c66 4DF22830 		movw	r0, #54056
 6762 1c6a FFF7FEFF 		bl	LCD_WriteReg
 6763              	.LVL1259:
1757:Drivers/LCD_FMC/src/tftLCD.c ****         LCD_WriteReg(0xD32A,0x02);
 6764              		.loc 1 1757 9 view .LVU1741
 6765 1c6e DE21     		movs	r1, #222
 6766 1c70 4DF22930 		movw	r0, #54057
 6767 1c74 FFF7FEFF 		bl	LCD_WriteReg
 6768              	.LVL1260:
1758:Drivers/LCD_FMC/src/tftLCD.c ****         LCD_WriteReg(0xD32B,0xF2);
 6769              		.loc 1 1758 9 view .LVU1742
 6770 1c78 0221     		movs	r1, #2
 6771 1c7a 4DF22A30 		movw	r0, #54058
 6772 1c7e FFF7FEFF 		bl	LCD_WriteReg
 6773              	.LVL1261:
1759:Drivers/LCD_FMC/src/tftLCD.c ****         LCD_WriteReg(0xD32C,0x02);
 6774              		.loc 1 1759 9 view .LVU1743
 6775 1c82 F221     		movs	r1, #242
 6776 1c84 4DF22B30 		movw	r0, #54059
 6777 1c88 FFF7FEFF 		bl	LCD_WriteReg
 6778              	.LVL1262:
1760:Drivers/LCD_FMC/src/tftLCD.c ****         LCD_WriteReg(0xD32D,0xFE);
 6779              		.loc 1 1760 9 view .LVU1744
 6780 1c8c 0221     		movs	r1, #2
 6781 1c8e 4DF22C30 		movw	r0, #54060
 6782 1c92 FFF7FEFF 		bl	LCD_WriteReg
 6783              	.LVL1263:
1761:Drivers/LCD_FMC/src/tftLCD.c ****         LCD_WriteReg(0xD32E,0x03);
 6784              		.loc 1 1761 9 view .LVU1745
 6785 1c96 FE21     		movs	r1, #254
 6786 1c98 4DF22D30 		movw	r0, #54061
 6787 1c9c FFF7FEFF 		bl	LCD_WriteReg
ARM GAS  C:\usertemp\ccUDQ5mr.s 			page 181


 6788              	.LVL1264:
1762:Drivers/LCD_FMC/src/tftLCD.c ****         LCD_WriteReg(0xD32F,0x10);
 6789              		.loc 1 1762 9 view .LVU1746
 6790 1ca0 0321     		movs	r1, #3
 6791 1ca2 4DF22E30 		movw	r0, #54062
 6792 1ca6 FFF7FEFF 		bl	LCD_WriteReg
 6793              	.LVL1265:
1763:Drivers/LCD_FMC/src/tftLCD.c ****         LCD_WriteReg(0xD330,0x03);
 6794              		.loc 1 1763 9 view .LVU1747
 6795 1caa 1021     		movs	r1, #16
 6796 1cac 4DF22F30 		movw	r0, #54063
 6797 1cb0 FFF7FEFF 		bl	LCD_WriteReg
 6798              	.LVL1266:
1764:Drivers/LCD_FMC/src/tftLCD.c ****         LCD_WriteReg(0xD331,0x33);
 6799              		.loc 1 1764 9 view .LVU1748
 6800 1cb4 0321     		movs	r1, #3
 6801 1cb6 4DF23030 		movw	r0, #54064
 6802 1cba FFF7FEFF 		bl	LCD_WriteReg
 6803              	.LVL1267:
1765:Drivers/LCD_FMC/src/tftLCD.c ****         LCD_WriteReg(0xD332,0x03);
 6804              		.loc 1 1765 9 view .LVU1749
 6805 1cbe 3321     		movs	r1, #51
 6806 1cc0 4DF23130 		movw	r0, #54065
 6807 1cc4 FFF7FEFF 		bl	LCD_WriteReg
 6808              	.LVL1268:
1766:Drivers/LCD_FMC/src/tftLCD.c ****         LCD_WriteReg(0xD333,0x6D);
 6809              		.loc 1 1766 9 view .LVU1750
 6810 1cc8 0321     		movs	r1, #3
 6811 1cca 4DF23230 		movw	r0, #54066
 6812 1cce FFF7FEFF 		bl	LCD_WriteReg
 6813              	.LVL1269:
1767:Drivers/LCD_FMC/src/tftLCD.c ****         LCD_WriteReg(0xD400,0x00);
 6814              		.loc 1 1767 9 view .LVU1751
 6815 1cd2 6D21     		movs	r1, #109
 6816 1cd4 4DF23330 		movw	r0, #54067
 6817 1cd8 FFF7FEFF 		bl	LCD_WriteReg
 6818              	.LVL1270:
1768:Drivers/LCD_FMC/src/tftLCD.c ****         LCD_WriteReg(0xD401,0x33);
 6819              		.loc 1 1768 9 view .LVU1752
 6820 1cdc 0021     		movs	r1, #0
 6821 1cde 4FF45440 		mov	r0, #54272
 6822 1ce2 FFF7FEFF 		bl	LCD_WriteReg
 6823              	.LVL1271:
1769:Drivers/LCD_FMC/src/tftLCD.c ****         LCD_WriteReg(0xD402,0x00);
 6824              		.loc 1 1769 9 view .LVU1753
 6825 1ce6 3321     		movs	r1, #51
 6826 1ce8 4DF20140 		movw	r0, #54273
 6827 1cec FFF7FEFF 		bl	LCD_WriteReg
 6828              	.LVL1272:
1770:Drivers/LCD_FMC/src/tftLCD.c ****         LCD_WriteReg(0xD403,0x34);
 6829              		.loc 1 1770 9 view .LVU1754
 6830 1cf0 0021     		movs	r1, #0
 6831 1cf2 4DF20240 		movw	r0, #54274
 6832 1cf6 FFF7FEFF 		bl	LCD_WriteReg
 6833              	.LVL1273:
1771:Drivers/LCD_FMC/src/tftLCD.c ****         LCD_WriteReg(0xD404,0x00);
 6834              		.loc 1 1771 9 view .LVU1755
ARM GAS  C:\usertemp\ccUDQ5mr.s 			page 182


 6835 1cfa 3421     		movs	r1, #52
 6836 1cfc 4DF20340 		movw	r0, #54275
 6837 1d00 FFF7FEFF 		bl	LCD_WriteReg
 6838              	.LVL1274:
1772:Drivers/LCD_FMC/src/tftLCD.c ****         LCD_WriteReg(0xD405,0x3A);
 6839              		.loc 1 1772 9 view .LVU1756
 6840 1d04 0021     		movs	r1, #0
 6841 1d06 4DF20440 		movw	r0, #54276
 6842 1d0a FFF7FEFF 		bl	LCD_WriteReg
 6843              	.LVL1275:
1773:Drivers/LCD_FMC/src/tftLCD.c ****         LCD_WriteReg(0xD406,0x00);
 6844              		.loc 1 1773 9 view .LVU1757
 6845 1d0e 3A21     		movs	r1, #58
 6846 1d10 4DF20540 		movw	r0, #54277
 6847 1d14 FFF7FEFF 		bl	LCD_WriteReg
 6848              	.LVL1276:
1774:Drivers/LCD_FMC/src/tftLCD.c ****         LCD_WriteReg(0xD407,0x4A);
 6849              		.loc 1 1774 9 view .LVU1758
 6850 1d18 0021     		movs	r1, #0
 6851 1d1a 4DF20640 		movw	r0, #54278
 6852 1d1e FFF7FEFF 		bl	LCD_WriteReg
 6853              	.LVL1277:
1775:Drivers/LCD_FMC/src/tftLCD.c ****         LCD_WriteReg(0xD408,0x00);
 6854              		.loc 1 1775 9 view .LVU1759
 6855 1d22 4A21     		movs	r1, #74
 6856 1d24 4DF20740 		movw	r0, #54279
 6857 1d28 FFF7FEFF 		bl	LCD_WriteReg
 6858              	.LVL1278:
1776:Drivers/LCD_FMC/src/tftLCD.c ****         LCD_WriteReg(0xD409,0x5C);
 6859              		.loc 1 1776 9 view .LVU1760
 6860 1d2c 0021     		movs	r1, #0
 6861 1d2e 4DF20840 		movw	r0, #54280
 6862 1d32 FFF7FEFF 		bl	LCD_WriteReg
 6863              	.LVL1279:
1777:Drivers/LCD_FMC/src/tftLCD.c ****         LCD_WriteReg(0xD40A,0x00);
 6864              		.loc 1 1777 9 view .LVU1761
 6865 1d36 5C21     		movs	r1, #92
 6866 1d38 4DF20940 		movw	r0, #54281
 6867 1d3c FFF7FEFF 		bl	LCD_WriteReg
 6868              	.LVL1280:
1778:Drivers/LCD_FMC/src/tftLCD.c ****         LCD_WriteReg(0xD40B,0x81);
 6869              		.loc 1 1778 9 view .LVU1762
 6870 1d40 0021     		movs	r1, #0
 6871 1d42 4DF20A40 		movw	r0, #54282
 6872 1d46 FFF7FEFF 		bl	LCD_WriteReg
 6873              	.LVL1281:
1779:Drivers/LCD_FMC/src/tftLCD.c **** 
 6874              		.loc 1 1779 9 view .LVU1763
 6875 1d4a 8121     		movs	r1, #129
 6876 1d4c 4DF20B40 		movw	r0, #54283
 6877 1d50 FFF7FEFF 		bl	LCD_WriteReg
 6878              	.LVL1282:
1781:Drivers/LCD_FMC/src/tftLCD.c ****         LCD_WriteReg(0xD40D,0xA6);
 6879              		.loc 1 1781 9 view .LVU1764
 6880 1d54 0021     		movs	r1, #0
 6881 1d56 4DF20C40 		movw	r0, #54284
 6882 1d5a FFF7FEFF 		bl	LCD_WriteReg
ARM GAS  C:\usertemp\ccUDQ5mr.s 			page 183


 6883              	.LVL1283:
1782:Drivers/LCD_FMC/src/tftLCD.c ****         LCD_WriteReg(0xD40E,0x00);
 6884              		.loc 1 1782 9 view .LVU1765
 6885 1d5e A621     		movs	r1, #166
 6886 1d60 4DF20D40 		movw	r0, #54285
 6887 1d64 FFF7FEFF 		bl	LCD_WriteReg
 6888              	.LVL1284:
1783:Drivers/LCD_FMC/src/tftLCD.c ****         LCD_WriteReg(0xD40F,0xE5);
 6889              		.loc 1 1783 9 view .LVU1766
 6890 1d68 0021     		movs	r1, #0
 6891 1d6a 4DF20E40 		movw	r0, #54286
 6892 1d6e FFF7FEFF 		bl	LCD_WriteReg
 6893              	.LVL1285:
1784:Drivers/LCD_FMC/src/tftLCD.c ****         LCD_WriteReg(0xD410,0x01);
 6894              		.loc 1 1784 9 view .LVU1767
 6895 1d72 E521     		movs	r1, #229
 6896 1d74 4DF20F40 		movw	r0, #54287
 6897 1d78 FFF7FEFF 		bl	LCD_WriteReg
 6898              	.LVL1286:
1785:Drivers/LCD_FMC/src/tftLCD.c ****         LCD_WriteReg(0xD411,0x13);
 6899              		.loc 1 1785 9 view .LVU1768
 6900 1d7c 0121     		movs	r1, #1
 6901 1d7e 4DF21040 		movw	r0, #54288
 6902 1d82 FFF7FEFF 		bl	LCD_WriteReg
 6903              	.LVL1287:
1786:Drivers/LCD_FMC/src/tftLCD.c ****         LCD_WriteReg(0xD412,0x01);
 6904              		.loc 1 1786 9 view .LVU1769
 6905 1d86 1321     		movs	r1, #19
 6906 1d88 4DF21140 		movw	r0, #54289
 6907 1d8c FFF7FEFF 		bl	LCD_WriteReg
 6908              	.LVL1288:
1787:Drivers/LCD_FMC/src/tftLCD.c ****         LCD_WriteReg(0xD413,0x54);
 6909              		.loc 1 1787 9 view .LVU1770
 6910 1d90 0121     		movs	r1, #1
 6911 1d92 4DF21240 		movw	r0, #54290
 6912 1d96 FFF7FEFF 		bl	LCD_WriteReg
 6913              	.LVL1289:
1788:Drivers/LCD_FMC/src/tftLCD.c ****         LCD_WriteReg(0xD414,0x01);
 6914              		.loc 1 1788 9 view .LVU1771
 6915 1d9a 5421     		movs	r1, #84
 6916 1d9c 4DF21340 		movw	r0, #54291
 6917 1da0 FFF7FEFF 		bl	LCD_WriteReg
 6918              	.LVL1290:
1789:Drivers/LCD_FMC/src/tftLCD.c ****         LCD_WriteReg(0xD415,0x82);
 6919              		.loc 1 1789 9 view .LVU1772
 6920 1da4 0121     		movs	r1, #1
 6921 1da6 4DF21440 		movw	r0, #54292
 6922 1daa FFF7FEFF 		bl	LCD_WriteReg
 6923              	.LVL1291:
1790:Drivers/LCD_FMC/src/tftLCD.c ****         LCD_WriteReg(0xD416,0x01);
 6924              		.loc 1 1790 9 view .LVU1773
 6925 1dae 8221     		movs	r1, #130
 6926 1db0 4DF21540 		movw	r0, #54293
 6927 1db4 FFF7FEFF 		bl	LCD_WriteReg
 6928              	.LVL1292:
1791:Drivers/LCD_FMC/src/tftLCD.c ****         LCD_WriteReg(0xD417,0xCA);
 6929              		.loc 1 1791 9 view .LVU1774
ARM GAS  C:\usertemp\ccUDQ5mr.s 			page 184


 6930 1db8 0121     		movs	r1, #1
 6931 1dba 4DF21640 		movw	r0, #54294
 6932 1dbe FFF7FEFF 		bl	LCD_WriteReg
 6933              	.LVL1293:
1792:Drivers/LCD_FMC/src/tftLCD.c ****         LCD_WriteReg(0xD418,0x02);
 6934              		.loc 1 1792 9 view .LVU1775
 6935 1dc2 CA21     		movs	r1, #202
 6936 1dc4 4DF21740 		movw	r0, #54295
 6937 1dc8 FFF7FEFF 		bl	LCD_WriteReg
 6938              	.LVL1294:
1793:Drivers/LCD_FMC/src/tftLCD.c ****         LCD_WriteReg(0xD419,0x00);
 6939              		.loc 1 1793 9 view .LVU1776
 6940 1dcc 0221     		movs	r1, #2
 6941 1dce 4DF21840 		movw	r0, #54296
 6942 1dd2 FFF7FEFF 		bl	LCD_WriteReg
 6943              	.LVL1295:
1794:Drivers/LCD_FMC/src/tftLCD.c ****         LCD_WriteReg(0xD41A,0x02);
 6944              		.loc 1 1794 9 view .LVU1777
 6945 1dd6 0021     		movs	r1, #0
 6946 1dd8 4DF21940 		movw	r0, #54297
 6947 1ddc FFF7FEFF 		bl	LCD_WriteReg
 6948              	.LVL1296:
1795:Drivers/LCD_FMC/src/tftLCD.c ****         LCD_WriteReg(0xD41B,0x01);
 6949              		.loc 1 1795 9 view .LVU1778
 6950 1de0 0221     		movs	r1, #2
 6951 1de2 4DF21A40 		movw	r0, #54298
 6952 1de6 FFF7FEFF 		bl	LCD_WriteReg
 6953              	.LVL1297:
1796:Drivers/LCD_FMC/src/tftLCD.c ****         LCD_WriteReg(0xD41C,0x02);
 6954              		.loc 1 1796 9 view .LVU1779
 6955 1dea 0121     		movs	r1, #1
 6956 1dec 4DF21B40 		movw	r0, #54299
 6957 1df0 FFF7FEFF 		bl	LCD_WriteReg
 6958              	.LVL1298:
1797:Drivers/LCD_FMC/src/tftLCD.c ****         LCD_WriteReg(0xD41D,0x34);
 6959              		.loc 1 1797 9 view .LVU1780
 6960 1df4 0221     		movs	r1, #2
 6961 1df6 4DF21C40 		movw	r0, #54300
 6962 1dfa FFF7FEFF 		bl	LCD_WriteReg
 6963              	.LVL1299:
1798:Drivers/LCD_FMC/src/tftLCD.c ****         LCD_WriteReg(0xD41E,0x02);
 6964              		.loc 1 1798 9 view .LVU1781
 6965 1dfe 3421     		movs	r1, #52
 6966 1e00 4DF21D40 		movw	r0, #54301
 6967 1e04 FFF7FEFF 		bl	LCD_WriteReg
 6968              	.LVL1300:
1799:Drivers/LCD_FMC/src/tftLCD.c ****         LCD_WriteReg(0xD41F,0x67);
 6969              		.loc 1 1799 9 view .LVU1782
 6970 1e08 0221     		movs	r1, #2
 6971 1e0a 4DF21E40 		movw	r0, #54302
 6972 1e0e FFF7FEFF 		bl	LCD_WriteReg
 6973              	.LVL1301:
1800:Drivers/LCD_FMC/src/tftLCD.c ****         LCD_WriteReg(0xD420,0x02);
 6974              		.loc 1 1800 9 view .LVU1783
 6975 1e12 6721     		movs	r1, #103
 6976 1e14 4DF21F40 		movw	r0, #54303
 6977 1e18 FFF7FEFF 		bl	LCD_WriteReg
ARM GAS  C:\usertemp\ccUDQ5mr.s 			page 185


 6978              	.LVL1302:
1801:Drivers/LCD_FMC/src/tftLCD.c ****         LCD_WriteReg(0xD421,0x84);
 6979              		.loc 1 1801 9 view .LVU1784
 6980 1e1c 0221     		movs	r1, #2
 6981 1e1e 4DF22040 		movw	r0, #54304
 6982 1e22 FFF7FEFF 		bl	LCD_WriteReg
 6983              	.LVL1303:
1802:Drivers/LCD_FMC/src/tftLCD.c ****         LCD_WriteReg(0xD422,0x02);
 6984              		.loc 1 1802 9 view .LVU1785
 6985 1e26 8421     		movs	r1, #132
 6986 1e28 4DF22140 		movw	r0, #54305
 6987 1e2c FFF7FEFF 		bl	LCD_WriteReg
 6988              	.LVL1304:
1803:Drivers/LCD_FMC/src/tftLCD.c ****         LCD_WriteReg(0xD423,0xA4);
 6989              		.loc 1 1803 9 view .LVU1786
 6990 1e30 0221     		movs	r1, #2
 6991 1e32 4DF22240 		movw	r0, #54306
 6992 1e36 FFF7FEFF 		bl	LCD_WriteReg
 6993              	.LVL1305:
1804:Drivers/LCD_FMC/src/tftLCD.c ****         LCD_WriteReg(0xD424,0x02);
 6994              		.loc 1 1804 9 view .LVU1787
 6995 1e3a A421     		movs	r1, #164
 6996 1e3c 4DF22340 		movw	r0, #54307
 6997 1e40 FFF7FEFF 		bl	LCD_WriteReg
 6998              	.LVL1306:
1805:Drivers/LCD_FMC/src/tftLCD.c ****         LCD_WriteReg(0xD425,0xB7);
 6999              		.loc 1 1805 9 view .LVU1788
 7000 1e44 0221     		movs	r1, #2
 7001 1e46 4DF22440 		movw	r0, #54308
 7002 1e4a FFF7FEFF 		bl	LCD_WriteReg
 7003              	.LVL1307:
1806:Drivers/LCD_FMC/src/tftLCD.c ****         LCD_WriteReg(0xD426,0x02);
 7004              		.loc 1 1806 9 view .LVU1789
 7005 1e4e B721     		movs	r1, #183
 7006 1e50 4DF22540 		movw	r0, #54309
 7007 1e54 FFF7FEFF 		bl	LCD_WriteReg
 7008              	.LVL1308:
1807:Drivers/LCD_FMC/src/tftLCD.c ****         LCD_WriteReg(0xD427,0xCF);
 7009              		.loc 1 1807 9 view .LVU1790
 7010 1e58 0221     		movs	r1, #2
 7011 1e5a 4DF22640 		movw	r0, #54310
 7012 1e5e FFF7FEFF 		bl	LCD_WriteReg
 7013              	.LVL1309:
1808:Drivers/LCD_FMC/src/tftLCD.c ****         LCD_WriteReg(0xD428,0x02);
 7014              		.loc 1 1808 9 view .LVU1791
 7015 1e62 CF21     		movs	r1, #207
 7016 1e64 4DF22740 		movw	r0, #54311
 7017 1e68 FFF7FEFF 		bl	LCD_WriteReg
 7018              	.LVL1310:
1809:Drivers/LCD_FMC/src/tftLCD.c ****         LCD_WriteReg(0xD429,0xDE);
 7019              		.loc 1 1809 9 view .LVU1792
 7020 1e6c 0221     		movs	r1, #2
 7021 1e6e 4DF22840 		movw	r0, #54312
 7022 1e72 FFF7FEFF 		bl	LCD_WriteReg
 7023              	.LVL1311:
1810:Drivers/LCD_FMC/src/tftLCD.c ****         LCD_WriteReg(0xD42A,0x02);
 7024              		.loc 1 1810 9 view .LVU1793
ARM GAS  C:\usertemp\ccUDQ5mr.s 			page 186


 7025 1e76 DE21     		movs	r1, #222
 7026 1e78 4DF22940 		movw	r0, #54313
 7027 1e7c FFF7FEFF 		bl	LCD_WriteReg
 7028              	.LVL1312:
1811:Drivers/LCD_FMC/src/tftLCD.c ****         LCD_WriteReg(0xD42B,0xF2);
 7029              		.loc 1 1811 9 view .LVU1794
 7030 1e80 0221     		movs	r1, #2
 7031 1e82 4DF22A40 		movw	r0, #54314
 7032 1e86 FFF7FEFF 		bl	LCD_WriteReg
 7033              	.LVL1313:
1812:Drivers/LCD_FMC/src/tftLCD.c ****         LCD_WriteReg(0xD42C,0x02);
 7034              		.loc 1 1812 9 view .LVU1795
 7035 1e8a F221     		movs	r1, #242
 7036 1e8c 4DF22B40 		movw	r0, #54315
 7037 1e90 FFF7FEFF 		bl	LCD_WriteReg
 7038              	.LVL1314:
1813:Drivers/LCD_FMC/src/tftLCD.c ****         LCD_WriteReg(0xD42D,0xFE);
 7039              		.loc 1 1813 9 view .LVU1796
 7040 1e94 0221     		movs	r1, #2
 7041 1e96 4DF22C40 		movw	r0, #54316
 7042 1e9a FFF7FEFF 		bl	LCD_WriteReg
 7043              	.LVL1315:
1814:Drivers/LCD_FMC/src/tftLCD.c ****         LCD_WriteReg(0xD42E,0x03);
 7044              		.loc 1 1814 9 view .LVU1797
 7045 1e9e FE21     		movs	r1, #254
 7046 1ea0 4DF22D40 		movw	r0, #54317
 7047 1ea4 FFF7FEFF 		bl	LCD_WriteReg
 7048              	.LVL1316:
1815:Drivers/LCD_FMC/src/tftLCD.c ****         LCD_WriteReg(0xD42F,0x10);
 7049              		.loc 1 1815 9 view .LVU1798
 7050 1ea8 0321     		movs	r1, #3
 7051 1eaa 4DF22E40 		movw	r0, #54318
 7052 1eae FFF7FEFF 		bl	LCD_WriteReg
 7053              	.LVL1317:
1816:Drivers/LCD_FMC/src/tftLCD.c ****         LCD_WriteReg(0xD430,0x03);
 7054              		.loc 1 1816 9 view .LVU1799
 7055 1eb2 1021     		movs	r1, #16
 7056 1eb4 4DF22F40 		movw	r0, #54319
 7057 1eb8 FFF7FEFF 		bl	LCD_WriteReg
 7058              	.LVL1318:
1817:Drivers/LCD_FMC/src/tftLCD.c ****         LCD_WriteReg(0xD431,0x33);
 7059              		.loc 1 1817 9 view .LVU1800
 7060 1ebc 0321     		movs	r1, #3
 7061 1ebe 4DF23040 		movw	r0, #54320
 7062 1ec2 FFF7FEFF 		bl	LCD_WriteReg
 7063              	.LVL1319:
1818:Drivers/LCD_FMC/src/tftLCD.c ****         LCD_WriteReg(0xD432,0x03);
 7064              		.loc 1 1818 9 view .LVU1801
 7065 1ec6 3321     		movs	r1, #51
 7066 1ec8 4DF23140 		movw	r0, #54321
 7067 1ecc FFF7FEFF 		bl	LCD_WriteReg
 7068              	.LVL1320:
1819:Drivers/LCD_FMC/src/tftLCD.c ****         LCD_WriteReg(0xD433,0x6D);
 7069              		.loc 1 1819 9 view .LVU1802
 7070 1ed0 0321     		movs	r1, #3
 7071 1ed2 4DF23240 		movw	r0, #54322
 7072 1ed6 FFF7FEFF 		bl	LCD_WriteReg
ARM GAS  C:\usertemp\ccUDQ5mr.s 			page 187


 7073              	.LVL1321:
1820:Drivers/LCD_FMC/src/tftLCD.c ****         LCD_WriteReg(0xD500,0x00);
 7074              		.loc 1 1820 9 view .LVU1803
 7075 1eda 6D21     		movs	r1, #109
 7076 1edc 4DF23340 		movw	r0, #54323
 7077 1ee0 FFF7FEFF 		bl	LCD_WriteReg
 7078              	.LVL1322:
1821:Drivers/LCD_FMC/src/tftLCD.c ****         LCD_WriteReg(0xD501,0x33);
 7079              		.loc 1 1821 9 view .LVU1804
 7080 1ee4 0021     		movs	r1, #0
 7081 1ee6 4FF45540 		mov	r0, #54528
 7082 1eea FFF7FEFF 		bl	LCD_WriteReg
 7083              	.LVL1323:
1822:Drivers/LCD_FMC/src/tftLCD.c ****         LCD_WriteReg(0xD502,0x00);
 7084              		.loc 1 1822 9 view .LVU1805
 7085 1eee 3321     		movs	r1, #51
 7086 1ef0 4DF20150 		movw	r0, #54529
 7087 1ef4 FFF7FEFF 		bl	LCD_WriteReg
 7088              	.LVL1324:
1823:Drivers/LCD_FMC/src/tftLCD.c ****         LCD_WriteReg(0xD503,0x34);
 7089              		.loc 1 1823 9 view .LVU1806
 7090 1ef8 0021     		movs	r1, #0
 7091 1efa 4DF20250 		movw	r0, #54530
 7092 1efe FFF7FEFF 		bl	LCD_WriteReg
 7093              	.LVL1325:
1824:Drivers/LCD_FMC/src/tftLCD.c ****         LCD_WriteReg(0xD504,0x00);
 7094              		.loc 1 1824 9 view .LVU1807
 7095 1f02 3421     		movs	r1, #52
 7096 1f04 4DF20350 		movw	r0, #54531
 7097 1f08 FFF7FEFF 		bl	LCD_WriteReg
 7098              	.LVL1326:
1825:Drivers/LCD_FMC/src/tftLCD.c ****         LCD_WriteReg(0xD505,0x3A);
 7099              		.loc 1 1825 9 view .LVU1808
 7100 1f0c 0021     		movs	r1, #0
 7101 1f0e 4DF20450 		movw	r0, #54532
 7102 1f12 FFF7FEFF 		bl	LCD_WriteReg
 7103              	.LVL1327:
1826:Drivers/LCD_FMC/src/tftLCD.c ****         LCD_WriteReg(0xD506,0x00);
 7104              		.loc 1 1826 9 view .LVU1809
 7105 1f16 3A21     		movs	r1, #58
 7106 1f18 4DF20550 		movw	r0, #54533
 7107 1f1c FFF7FEFF 		bl	LCD_WriteReg
 7108              	.LVL1328:
1827:Drivers/LCD_FMC/src/tftLCD.c ****         LCD_WriteReg(0xD507,0x4A);
 7109              		.loc 1 1827 9 view .LVU1810
 7110 1f20 0021     		movs	r1, #0
 7111 1f22 4DF20650 		movw	r0, #54534
 7112 1f26 FFF7FEFF 		bl	LCD_WriteReg
 7113              	.LVL1329:
1828:Drivers/LCD_FMC/src/tftLCD.c ****         LCD_WriteReg(0xD508,0x00);
 7114              		.loc 1 1828 9 view .LVU1811
 7115 1f2a 4A21     		movs	r1, #74
 7116 1f2c 4DF20750 		movw	r0, #54535
 7117 1f30 FFF7FEFF 		bl	LCD_WriteReg
 7118              	.LVL1330:
1829:Drivers/LCD_FMC/src/tftLCD.c ****         LCD_WriteReg(0xD509,0x5C);
 7119              		.loc 1 1829 9 view .LVU1812
ARM GAS  C:\usertemp\ccUDQ5mr.s 			page 188


 7120 1f34 0021     		movs	r1, #0
 7121 1f36 4DF20850 		movw	r0, #54536
 7122 1f3a FFF7FEFF 		bl	LCD_WriteReg
 7123              	.LVL1331:
1830:Drivers/LCD_FMC/src/tftLCD.c ****         LCD_WriteReg(0xD50A,0x00);
 7124              		.loc 1 1830 9 view .LVU1813
 7125 1f3e 5C21     		movs	r1, #92
 7126 1f40 4DF20950 		movw	r0, #54537
 7127 1f44 FFF7FEFF 		bl	LCD_WriteReg
 7128              	.LVL1332:
1831:Drivers/LCD_FMC/src/tftLCD.c ****         LCD_WriteReg(0xD50B,0x81);
 7129              		.loc 1 1831 9 view .LVU1814
 7130 1f48 0021     		movs	r1, #0
 7131 1f4a 4DF20A50 		movw	r0, #54538
 7132 1f4e FFF7FEFF 		bl	LCD_WriteReg
 7133              	.LVL1333:
1832:Drivers/LCD_FMC/src/tftLCD.c **** 
 7134              		.loc 1 1832 9 view .LVU1815
 7135 1f52 8121     		movs	r1, #129
 7136 1f54 4DF20B50 		movw	r0, #54539
 7137 1f58 FFF7FEFF 		bl	LCD_WriteReg
 7138              	.LVL1334:
1834:Drivers/LCD_FMC/src/tftLCD.c ****         LCD_WriteReg(0xD50D,0xA6);
 7139              		.loc 1 1834 9 view .LVU1816
 7140 1f5c 0021     		movs	r1, #0
 7141 1f5e 4DF20C50 		movw	r0, #54540
 7142 1f62 FFF7FEFF 		bl	LCD_WriteReg
 7143              	.LVL1335:
1835:Drivers/LCD_FMC/src/tftLCD.c ****         LCD_WriteReg(0xD50E,0x00);
 7144              		.loc 1 1835 9 view .LVU1817
 7145 1f66 A621     		movs	r1, #166
 7146 1f68 4DF20D50 		movw	r0, #54541
 7147 1f6c FFF7FEFF 		bl	LCD_WriteReg
 7148              	.LVL1336:
1836:Drivers/LCD_FMC/src/tftLCD.c ****         LCD_WriteReg(0xD50F,0xE5);
 7149              		.loc 1 1836 9 view .LVU1818
 7150 1f70 0021     		movs	r1, #0
 7151 1f72 4DF20E50 		movw	r0, #54542
 7152 1f76 FFF7FEFF 		bl	LCD_WriteReg
 7153              	.LVL1337:
1837:Drivers/LCD_FMC/src/tftLCD.c ****         LCD_WriteReg(0xD510,0x01);
 7154              		.loc 1 1837 9 view .LVU1819
 7155 1f7a E521     		movs	r1, #229
 7156 1f7c 4DF20F50 		movw	r0, #54543
 7157 1f80 FFF7FEFF 		bl	LCD_WriteReg
 7158              	.LVL1338:
1838:Drivers/LCD_FMC/src/tftLCD.c ****         LCD_WriteReg(0xD511,0x13);
 7159              		.loc 1 1838 9 view .LVU1820
 7160 1f84 0121     		movs	r1, #1
 7161 1f86 4DF21050 		movw	r0, #54544
 7162 1f8a FFF7FEFF 		bl	LCD_WriteReg
 7163              	.LVL1339:
1839:Drivers/LCD_FMC/src/tftLCD.c ****         LCD_WriteReg(0xD512,0x01);
 7164              		.loc 1 1839 9 view .LVU1821
 7165 1f8e 1321     		movs	r1, #19
 7166 1f90 4DF21150 		movw	r0, #54545
 7167 1f94 FFF7FEFF 		bl	LCD_WriteReg
ARM GAS  C:\usertemp\ccUDQ5mr.s 			page 189


 7168              	.LVL1340:
1840:Drivers/LCD_FMC/src/tftLCD.c ****         LCD_WriteReg(0xD513,0x54);
 7169              		.loc 1 1840 9 view .LVU1822
 7170 1f98 0121     		movs	r1, #1
 7171 1f9a 4DF21250 		movw	r0, #54546
 7172 1f9e FFF7FEFF 		bl	LCD_WriteReg
 7173              	.LVL1341:
1841:Drivers/LCD_FMC/src/tftLCD.c ****         LCD_WriteReg(0xD514,0x01);
 7174              		.loc 1 1841 9 view .LVU1823
 7175 1fa2 5421     		movs	r1, #84
 7176 1fa4 4DF21350 		movw	r0, #54547
 7177 1fa8 FFF7FEFF 		bl	LCD_WriteReg
 7178              	.LVL1342:
1842:Drivers/LCD_FMC/src/tftLCD.c ****         LCD_WriteReg(0xD515,0x82);
 7179              		.loc 1 1842 9 view .LVU1824
 7180 1fac 0121     		movs	r1, #1
 7181 1fae 4DF21450 		movw	r0, #54548
 7182 1fb2 FFF7FEFF 		bl	LCD_WriteReg
 7183              	.LVL1343:
1843:Drivers/LCD_FMC/src/tftLCD.c ****         LCD_WriteReg(0xD516,0x01);
 7184              		.loc 1 1843 9 view .LVU1825
 7185 1fb6 8221     		movs	r1, #130
 7186 1fb8 4DF21550 		movw	r0, #54549
 7187 1fbc FFF7FEFF 		bl	LCD_WriteReg
 7188              	.LVL1344:
1844:Drivers/LCD_FMC/src/tftLCD.c ****         LCD_WriteReg(0xD517,0xCA);
 7189              		.loc 1 1844 9 view .LVU1826
 7190 1fc0 0121     		movs	r1, #1
 7191 1fc2 4DF21650 		movw	r0, #54550
 7192 1fc6 FFF7FEFF 		bl	LCD_WriteReg
 7193              	.LVL1345:
1845:Drivers/LCD_FMC/src/tftLCD.c ****         LCD_WriteReg(0xD518,0x02);
 7194              		.loc 1 1845 9 view .LVU1827
 7195 1fca CA21     		movs	r1, #202
 7196 1fcc 4DF21750 		movw	r0, #54551
 7197 1fd0 FFF7FEFF 		bl	LCD_WriteReg
 7198              	.LVL1346:
1846:Drivers/LCD_FMC/src/tftLCD.c ****         LCD_WriteReg(0xD519,0x00);
 7199              		.loc 1 1846 9 view .LVU1828
 7200 1fd4 0221     		movs	r1, #2
 7201 1fd6 4DF21850 		movw	r0, #54552
 7202 1fda FFF7FEFF 		bl	LCD_WriteReg
 7203              	.LVL1347:
1847:Drivers/LCD_FMC/src/tftLCD.c ****         LCD_WriteReg(0xD51A,0x02);
 7204              		.loc 1 1847 9 view .LVU1829
 7205 1fde 0021     		movs	r1, #0
 7206 1fe0 4DF21950 		movw	r0, #54553
 7207 1fe4 FFF7FEFF 		bl	LCD_WriteReg
 7208              	.LVL1348:
1848:Drivers/LCD_FMC/src/tftLCD.c ****         LCD_WriteReg(0xD51B,0x01);
 7209              		.loc 1 1848 9 view .LVU1830
 7210 1fe8 0221     		movs	r1, #2
 7211 1fea 4DF21A50 		movw	r0, #54554
 7212 1fee FFF7FEFF 		bl	LCD_WriteReg
 7213              	.LVL1349:
1849:Drivers/LCD_FMC/src/tftLCD.c ****         LCD_WriteReg(0xD51C,0x02);
 7214              		.loc 1 1849 9 view .LVU1831
ARM GAS  C:\usertemp\ccUDQ5mr.s 			page 190


 7215 1ff2 0121     		movs	r1, #1
 7216 1ff4 4DF21B50 		movw	r0, #54555
 7217 1ff8 FFF7FEFF 		bl	LCD_WriteReg
 7218              	.LVL1350:
1850:Drivers/LCD_FMC/src/tftLCD.c ****         LCD_WriteReg(0xD51D,0x34);
 7219              		.loc 1 1850 9 view .LVU1832
 7220 1ffc 0221     		movs	r1, #2
 7221 1ffe 4DF21C50 		movw	r0, #54556
 7222 2002 FFF7FEFF 		bl	LCD_WriteReg
 7223              	.LVL1351:
1851:Drivers/LCD_FMC/src/tftLCD.c ****         LCD_WriteReg(0xD51E,0x02);
 7224              		.loc 1 1851 9 view .LVU1833
 7225 2006 3421     		movs	r1, #52
 7226 2008 4DF21D50 		movw	r0, #54557
 7227 200c FFF7FEFF 		bl	LCD_WriteReg
 7228              	.LVL1352:
1852:Drivers/LCD_FMC/src/tftLCD.c ****         LCD_WriteReg(0xD51F,0x67);
 7229              		.loc 1 1852 9 view .LVU1834
 7230 2010 0221     		movs	r1, #2
 7231 2012 4DF21E50 		movw	r0, #54558
 7232 2016 FFF7FEFF 		bl	LCD_WriteReg
 7233              	.LVL1353:
1853:Drivers/LCD_FMC/src/tftLCD.c ****         LCD_WriteReg(0xD520,0x02);
 7234              		.loc 1 1853 9 view .LVU1835
 7235 201a 6721     		movs	r1, #103
 7236 201c 4DF21F50 		movw	r0, #54559
 7237 2020 FFF7FEFF 		bl	LCD_WriteReg
 7238              	.LVL1354:
1854:Drivers/LCD_FMC/src/tftLCD.c ****         LCD_WriteReg(0xD521,0x84);
 7239              		.loc 1 1854 9 view .LVU1836
 7240 2024 0221     		movs	r1, #2
 7241 2026 4DF22050 		movw	r0, #54560
 7242 202a FFF7FEFF 		bl	LCD_WriteReg
 7243              	.LVL1355:
1855:Drivers/LCD_FMC/src/tftLCD.c ****         LCD_WriteReg(0xD522,0x02);
 7244              		.loc 1 1855 9 view .LVU1837
 7245 202e 8421     		movs	r1, #132
 7246 2030 4DF22150 		movw	r0, #54561
 7247 2034 FFF7FEFF 		bl	LCD_WriteReg
 7248              	.LVL1356:
1856:Drivers/LCD_FMC/src/tftLCD.c ****         LCD_WriteReg(0xD523,0xA4);
 7249              		.loc 1 1856 9 view .LVU1838
 7250 2038 0221     		movs	r1, #2
 7251 203a 4DF22250 		movw	r0, #54562
 7252 203e FFF7FEFF 		bl	LCD_WriteReg
 7253              	.LVL1357:
1857:Drivers/LCD_FMC/src/tftLCD.c ****         LCD_WriteReg(0xD524,0x02);
 7254              		.loc 1 1857 9 view .LVU1839
 7255 2042 A421     		movs	r1, #164
 7256 2044 4DF22350 		movw	r0, #54563
 7257 2048 FFF7FEFF 		bl	LCD_WriteReg
 7258              	.LVL1358:
1858:Drivers/LCD_FMC/src/tftLCD.c ****         LCD_WriteReg(0xD525,0xB7);
 7259              		.loc 1 1858 9 view .LVU1840
 7260 204c 0221     		movs	r1, #2
 7261 204e 4DF22450 		movw	r0, #54564
 7262 2052 FFF7FEFF 		bl	LCD_WriteReg
ARM GAS  C:\usertemp\ccUDQ5mr.s 			page 191


 7263              	.LVL1359:
1859:Drivers/LCD_FMC/src/tftLCD.c ****         LCD_WriteReg(0xD526,0x02);
 7264              		.loc 1 1859 9 view .LVU1841
 7265 2056 B721     		movs	r1, #183
 7266 2058 4DF22550 		movw	r0, #54565
 7267 205c FFF7FEFF 		bl	LCD_WriteReg
 7268              	.LVL1360:
1860:Drivers/LCD_FMC/src/tftLCD.c ****         LCD_WriteReg(0xD527,0xCF);
 7269              		.loc 1 1860 9 view .LVU1842
 7270 2060 0221     		movs	r1, #2
 7271 2062 4DF22650 		movw	r0, #54566
 7272 2066 FFF7FEFF 		bl	LCD_WriteReg
 7273              	.LVL1361:
1861:Drivers/LCD_FMC/src/tftLCD.c ****         LCD_WriteReg(0xD528,0x02);
 7274              		.loc 1 1861 9 view .LVU1843
 7275 206a CF21     		movs	r1, #207
 7276 206c 4DF22750 		movw	r0, #54567
 7277 2070 FFF7FEFF 		bl	LCD_WriteReg
 7278              	.LVL1362:
1862:Drivers/LCD_FMC/src/tftLCD.c ****         LCD_WriteReg(0xD529,0xDE);
 7279              		.loc 1 1862 9 view .LVU1844
 7280 2074 0221     		movs	r1, #2
 7281 2076 4DF22850 		movw	r0, #54568
 7282 207a FFF7FEFF 		bl	LCD_WriteReg
 7283              	.LVL1363:
1863:Drivers/LCD_FMC/src/tftLCD.c ****         LCD_WriteReg(0xD52A,0x02);
 7284              		.loc 1 1863 9 view .LVU1845
 7285 207e DE21     		movs	r1, #222
 7286 2080 4DF22950 		movw	r0, #54569
 7287 2084 FFF7FEFF 		bl	LCD_WriteReg
 7288              	.LVL1364:
1864:Drivers/LCD_FMC/src/tftLCD.c ****         LCD_WriteReg(0xD52B,0xF2);
 7289              		.loc 1 1864 9 view .LVU1846
 7290 2088 0221     		movs	r1, #2
 7291 208a 4DF22A50 		movw	r0, #54570
 7292 208e FFF7FEFF 		bl	LCD_WriteReg
 7293              	.LVL1365:
1865:Drivers/LCD_FMC/src/tftLCD.c ****         LCD_WriteReg(0xD52C,0x02);
 7294              		.loc 1 1865 9 view .LVU1847
 7295 2092 F221     		movs	r1, #242
 7296 2094 4DF22B50 		movw	r0, #54571
 7297 2098 FFF7FEFF 		bl	LCD_WriteReg
 7298              	.LVL1366:
1866:Drivers/LCD_FMC/src/tftLCD.c ****         LCD_WriteReg(0xD52D,0xFE);
 7299              		.loc 1 1866 9 view .LVU1848
 7300 209c 0221     		movs	r1, #2
 7301 209e 4DF22C50 		movw	r0, #54572
 7302 20a2 FFF7FEFF 		bl	LCD_WriteReg
 7303              	.LVL1367:
1867:Drivers/LCD_FMC/src/tftLCD.c ****         LCD_WriteReg(0xD52E,0x03);
 7304              		.loc 1 1867 9 view .LVU1849
 7305 20a6 FE21     		movs	r1, #254
 7306 20a8 4DF22D50 		movw	r0, #54573
 7307 20ac FFF7FEFF 		bl	LCD_WriteReg
 7308              	.LVL1368:
1868:Drivers/LCD_FMC/src/tftLCD.c ****         LCD_WriteReg(0xD52F,0x10);
 7309              		.loc 1 1868 9 view .LVU1850
ARM GAS  C:\usertemp\ccUDQ5mr.s 			page 192


 7310 20b0 0321     		movs	r1, #3
 7311 20b2 4DF22E50 		movw	r0, #54574
 7312 20b6 FFF7FEFF 		bl	LCD_WriteReg
 7313              	.LVL1369:
1869:Drivers/LCD_FMC/src/tftLCD.c ****         LCD_WriteReg(0xD530,0x03);
 7314              		.loc 1 1869 9 view .LVU1851
 7315 20ba 1021     		movs	r1, #16
 7316 20bc 4DF22F50 		movw	r0, #54575
 7317 20c0 FFF7FEFF 		bl	LCD_WriteReg
 7318              	.LVL1370:
1870:Drivers/LCD_FMC/src/tftLCD.c ****         LCD_WriteReg(0xD531,0x33);
 7319              		.loc 1 1870 9 view .LVU1852
 7320 20c4 0321     		movs	r1, #3
 7321 20c6 4DF23050 		movw	r0, #54576
 7322 20ca FFF7FEFF 		bl	LCD_WriteReg
 7323              	.LVL1371:
1871:Drivers/LCD_FMC/src/tftLCD.c ****         LCD_WriteReg(0xD532,0x03);
 7324              		.loc 1 1871 9 view .LVU1853
 7325 20ce 3321     		movs	r1, #51
 7326 20d0 4DF23150 		movw	r0, #54577
 7327 20d4 FFF7FEFF 		bl	LCD_WriteReg
 7328              	.LVL1372:
1872:Drivers/LCD_FMC/src/tftLCD.c ****         LCD_WriteReg(0xD533,0x6D);
 7329              		.loc 1 1872 9 view .LVU1854
 7330 20d8 0321     		movs	r1, #3
 7331 20da 4DF23250 		movw	r0, #54578
 7332 20de FFF7FEFF 		bl	LCD_WriteReg
 7333              	.LVL1373:
1873:Drivers/LCD_FMC/src/tftLCD.c ****         LCD_WriteReg(0xD600,0x00);
 7334              		.loc 1 1873 9 view .LVU1855
 7335 20e2 6D21     		movs	r1, #109
 7336 20e4 4DF23350 		movw	r0, #54579
 7337 20e8 FFF7FEFF 		bl	LCD_WriteReg
 7338              	.LVL1374:
1874:Drivers/LCD_FMC/src/tftLCD.c ****         LCD_WriteReg(0xD601,0x33);
 7339              		.loc 1 1874 9 view .LVU1856
 7340 20ec 0021     		movs	r1, #0
 7341 20ee 4FF45640 		mov	r0, #54784
 7342 20f2 FFF7FEFF 		bl	LCD_WriteReg
 7343              	.LVL1375:
1875:Drivers/LCD_FMC/src/tftLCD.c ****         LCD_WriteReg(0xD602,0x00);
 7344              		.loc 1 1875 9 view .LVU1857
 7345 20f6 3321     		movs	r1, #51
 7346 20f8 4DF20160 		movw	r0, #54785
 7347 20fc FFF7FEFF 		bl	LCD_WriteReg
 7348              	.LVL1376:
1876:Drivers/LCD_FMC/src/tftLCD.c ****         LCD_WriteReg(0xD603,0x34);
 7349              		.loc 1 1876 9 view .LVU1858
 7350 2100 0021     		movs	r1, #0
 7351 2102 4DF20260 		movw	r0, #54786
 7352 2106 FFF7FEFF 		bl	LCD_WriteReg
 7353              	.LVL1377:
1877:Drivers/LCD_FMC/src/tftLCD.c ****         LCD_WriteReg(0xD604,0x00);
 7354              		.loc 1 1877 9 view .LVU1859
 7355 210a 3421     		movs	r1, #52
 7356 210c 4DF20360 		movw	r0, #54787
 7357 2110 FFF7FEFF 		bl	LCD_WriteReg
ARM GAS  C:\usertemp\ccUDQ5mr.s 			page 193


 7358              	.LVL1378:
1878:Drivers/LCD_FMC/src/tftLCD.c ****         LCD_WriteReg(0xD605,0x3A);
 7359              		.loc 1 1878 9 view .LVU1860
 7360 2114 0021     		movs	r1, #0
 7361 2116 4DF20460 		movw	r0, #54788
 7362 211a FFF7FEFF 		bl	LCD_WriteReg
 7363              	.LVL1379:
1879:Drivers/LCD_FMC/src/tftLCD.c ****         LCD_WriteReg(0xD606,0x00);
 7364              		.loc 1 1879 9 view .LVU1861
 7365 211e 3A21     		movs	r1, #58
 7366 2120 4DF20560 		movw	r0, #54789
 7367 2124 FFF7FEFF 		bl	LCD_WriteReg
 7368              	.LVL1380:
1880:Drivers/LCD_FMC/src/tftLCD.c ****         LCD_WriteReg(0xD607,0x4A);
 7369              		.loc 1 1880 9 view .LVU1862
 7370 2128 0021     		movs	r1, #0
 7371 212a 4DF20660 		movw	r0, #54790
 7372 212e FFF7FEFF 		bl	LCD_WriteReg
 7373              	.LVL1381:
1881:Drivers/LCD_FMC/src/tftLCD.c ****         LCD_WriteReg(0xD608,0x00);
 7374              		.loc 1 1881 9 view .LVU1863
 7375 2132 4A21     		movs	r1, #74
 7376 2134 4DF20760 		movw	r0, #54791
 7377 2138 FFF7FEFF 		bl	LCD_WriteReg
 7378              	.LVL1382:
1882:Drivers/LCD_FMC/src/tftLCD.c ****         LCD_WriteReg(0xD609,0x5C);
 7379              		.loc 1 1882 9 view .LVU1864
 7380 213c 0021     		movs	r1, #0
 7381 213e 4DF20860 		movw	r0, #54792
 7382 2142 FFF7FEFF 		bl	LCD_WriteReg
 7383              	.LVL1383:
1883:Drivers/LCD_FMC/src/tftLCD.c ****         LCD_WriteReg(0xD60A,0x00);
 7384              		.loc 1 1883 9 view .LVU1865
 7385 2146 5C21     		movs	r1, #92
 7386 2148 4DF20960 		movw	r0, #54793
 7387 214c FFF7FEFF 		bl	LCD_WriteReg
 7388              	.LVL1384:
1884:Drivers/LCD_FMC/src/tftLCD.c ****         LCD_WriteReg(0xD60B,0x81);
 7389              		.loc 1 1884 9 view .LVU1866
 7390 2150 0021     		movs	r1, #0
 7391 2152 4DF20A60 		movw	r0, #54794
 7392 2156 FFF7FEFF 		bl	LCD_WriteReg
 7393              	.LVL1385:
1885:Drivers/LCD_FMC/src/tftLCD.c **** 
 7394              		.loc 1 1885 9 view .LVU1867
 7395 215a 8121     		movs	r1, #129
 7396 215c 4DF20B60 		movw	r0, #54795
 7397 2160 FFF7FEFF 		bl	LCD_WriteReg
 7398              	.LVL1386:
1887:Drivers/LCD_FMC/src/tftLCD.c ****         LCD_WriteReg(0xD60D,0xA6);
 7399              		.loc 1 1887 9 view .LVU1868
 7400 2164 0021     		movs	r1, #0
 7401 2166 4DF20C60 		movw	r0, #54796
 7402 216a FFF7FEFF 		bl	LCD_WriteReg
 7403              	.LVL1387:
1888:Drivers/LCD_FMC/src/tftLCD.c ****         LCD_WriteReg(0xD60E,0x00);
 7404              		.loc 1 1888 9 view .LVU1869
ARM GAS  C:\usertemp\ccUDQ5mr.s 			page 194


 7405 216e A621     		movs	r1, #166
 7406 2170 4DF20D60 		movw	r0, #54797
 7407 2174 FFF7FEFF 		bl	LCD_WriteReg
 7408              	.LVL1388:
1889:Drivers/LCD_FMC/src/tftLCD.c ****         LCD_WriteReg(0xD60F,0xE5);
 7409              		.loc 1 1889 9 view .LVU1870
 7410 2178 0021     		movs	r1, #0
 7411 217a 4DF20E60 		movw	r0, #54798
 7412 217e FFF7FEFF 		bl	LCD_WriteReg
 7413              	.LVL1389:
1890:Drivers/LCD_FMC/src/tftLCD.c ****         LCD_WriteReg(0xD610,0x01);
 7414              		.loc 1 1890 9 view .LVU1871
 7415 2182 E521     		movs	r1, #229
 7416 2184 4DF20F60 		movw	r0, #54799
 7417 2188 FFF7FEFF 		bl	LCD_WriteReg
 7418              	.LVL1390:
1891:Drivers/LCD_FMC/src/tftLCD.c ****         LCD_WriteReg(0xD611,0x13);
 7419              		.loc 1 1891 9 view .LVU1872
 7420 218c 0121     		movs	r1, #1
 7421 218e 4DF21060 		movw	r0, #54800
 7422 2192 FFF7FEFF 		bl	LCD_WriteReg
 7423              	.LVL1391:
1892:Drivers/LCD_FMC/src/tftLCD.c ****         LCD_WriteReg(0xD612,0x01);
 7424              		.loc 1 1892 9 view .LVU1873
 7425 2196 1321     		movs	r1, #19
 7426 2198 4DF21160 		movw	r0, #54801
 7427 219c FFF7FEFF 		bl	LCD_WriteReg
 7428              	.LVL1392:
1893:Drivers/LCD_FMC/src/tftLCD.c ****         LCD_WriteReg(0xD613,0x54);
 7429              		.loc 1 1893 9 view .LVU1874
 7430 21a0 0121     		movs	r1, #1
 7431 21a2 4DF21260 		movw	r0, #54802
 7432 21a6 FFF7FEFF 		bl	LCD_WriteReg
 7433              	.LVL1393:
1894:Drivers/LCD_FMC/src/tftLCD.c ****         LCD_WriteReg(0xD614,0x01);
 7434              		.loc 1 1894 9 view .LVU1875
 7435 21aa 5421     		movs	r1, #84
 7436 21ac 4DF21360 		movw	r0, #54803
 7437 21b0 FFF7FEFF 		bl	LCD_WriteReg
 7438              	.LVL1394:
1895:Drivers/LCD_FMC/src/tftLCD.c ****         LCD_WriteReg(0xD615,0x82);
 7439              		.loc 1 1895 9 view .LVU1876
 7440 21b4 0121     		movs	r1, #1
 7441 21b6 4DF21460 		movw	r0, #54804
 7442 21ba FFF7FEFF 		bl	LCD_WriteReg
 7443              	.LVL1395:
1896:Drivers/LCD_FMC/src/tftLCD.c ****         LCD_WriteReg(0xD616,0x01);
 7444              		.loc 1 1896 9 view .LVU1877
 7445 21be 8221     		movs	r1, #130
 7446 21c0 4DF21560 		movw	r0, #54805
 7447 21c4 FFF7FEFF 		bl	LCD_WriteReg
 7448              	.LVL1396:
1897:Drivers/LCD_FMC/src/tftLCD.c ****         LCD_WriteReg(0xD617,0xCA);
 7449              		.loc 1 1897 9 view .LVU1878
 7450 21c8 0121     		movs	r1, #1
 7451 21ca 4DF21660 		movw	r0, #54806
 7452 21ce FFF7FEFF 		bl	LCD_WriteReg
ARM GAS  C:\usertemp\ccUDQ5mr.s 			page 195


 7453              	.LVL1397:
1898:Drivers/LCD_FMC/src/tftLCD.c ****         LCD_WriteReg(0xD618,0x02);
 7454              		.loc 1 1898 9 view .LVU1879
 7455 21d2 CA21     		movs	r1, #202
 7456 21d4 4DF21760 		movw	r0, #54807
 7457 21d8 FFF7FEFF 		bl	LCD_WriteReg
 7458              	.LVL1398:
1899:Drivers/LCD_FMC/src/tftLCD.c ****         LCD_WriteReg(0xD619,0x00);
 7459              		.loc 1 1899 9 view .LVU1880
 7460 21dc 0221     		movs	r1, #2
 7461 21de 4DF21860 		movw	r0, #54808
 7462 21e2 FFF7FEFF 		bl	LCD_WriteReg
 7463              	.LVL1399:
1900:Drivers/LCD_FMC/src/tftLCD.c ****         LCD_WriteReg(0xD61A,0x02);
 7464              		.loc 1 1900 9 view .LVU1881
 7465 21e6 0021     		movs	r1, #0
 7466 21e8 4DF21960 		movw	r0, #54809
 7467 21ec FFF7FEFF 		bl	LCD_WriteReg
 7468              	.LVL1400:
1901:Drivers/LCD_FMC/src/tftLCD.c ****         LCD_WriteReg(0xD61B,0x01);
 7469              		.loc 1 1901 9 view .LVU1882
 7470 21f0 0221     		movs	r1, #2
 7471 21f2 4DF21A60 		movw	r0, #54810
 7472 21f6 FFF7FEFF 		bl	LCD_WriteReg
 7473              	.LVL1401:
1902:Drivers/LCD_FMC/src/tftLCD.c ****         LCD_WriteReg(0xD61C,0x02);
 7474              		.loc 1 1902 9 view .LVU1883
 7475 21fa 0121     		movs	r1, #1
 7476 21fc 4DF21B60 		movw	r0, #54811
 7477 2200 FFF7FEFF 		bl	LCD_WriteReg
 7478              	.LVL1402:
1903:Drivers/LCD_FMC/src/tftLCD.c ****         LCD_WriteReg(0xD61D,0x34);
 7479              		.loc 1 1903 9 view .LVU1884
 7480 2204 0221     		movs	r1, #2
 7481 2206 4DF21C60 		movw	r0, #54812
 7482 220a FFF7FEFF 		bl	LCD_WriteReg
 7483              	.LVL1403:
1904:Drivers/LCD_FMC/src/tftLCD.c ****         LCD_WriteReg(0xD61E,0x02);
 7484              		.loc 1 1904 9 view .LVU1885
 7485 220e 3421     		movs	r1, #52
 7486 2210 4DF21D60 		movw	r0, #54813
 7487 2214 FFF7FEFF 		bl	LCD_WriteReg
 7488              	.LVL1404:
1905:Drivers/LCD_FMC/src/tftLCD.c ****         LCD_WriteReg(0xD61F,0x67);
 7489              		.loc 1 1905 9 view .LVU1886
 7490 2218 0221     		movs	r1, #2
 7491 221a 4DF21E60 		movw	r0, #54814
 7492 221e FFF7FEFF 		bl	LCD_WriteReg
 7493              	.LVL1405:
1906:Drivers/LCD_FMC/src/tftLCD.c ****         LCD_WriteReg(0xD620,0x02);
 7494              		.loc 1 1906 9 view .LVU1887
 7495 2222 6721     		movs	r1, #103
 7496 2224 4DF21F60 		movw	r0, #54815
 7497 2228 FFF7FEFF 		bl	LCD_WriteReg
 7498              	.LVL1406:
1907:Drivers/LCD_FMC/src/tftLCD.c ****         LCD_WriteReg(0xD621,0x84);
 7499              		.loc 1 1907 9 view .LVU1888
ARM GAS  C:\usertemp\ccUDQ5mr.s 			page 196


 7500 222c 0221     		movs	r1, #2
 7501 222e 4DF22060 		movw	r0, #54816
 7502 2232 FFF7FEFF 		bl	LCD_WriteReg
 7503              	.LVL1407:
1908:Drivers/LCD_FMC/src/tftLCD.c ****         LCD_WriteReg(0xD622,0x02);
 7504              		.loc 1 1908 9 view .LVU1889
 7505 2236 8421     		movs	r1, #132
 7506 2238 4DF22160 		movw	r0, #54817
 7507 223c FFF7FEFF 		bl	LCD_WriteReg
 7508              	.LVL1408:
1909:Drivers/LCD_FMC/src/tftLCD.c ****         LCD_WriteReg(0xD623,0xA4);
 7509              		.loc 1 1909 9 view .LVU1890
 7510 2240 0221     		movs	r1, #2
 7511 2242 4DF22260 		movw	r0, #54818
 7512 2246 FFF7FEFF 		bl	LCD_WriteReg
 7513              	.LVL1409:
1910:Drivers/LCD_FMC/src/tftLCD.c ****         LCD_WriteReg(0xD624,0x02);
 7514              		.loc 1 1910 9 view .LVU1891
 7515 224a A421     		movs	r1, #164
 7516 224c 4DF22360 		movw	r0, #54819
 7517 2250 FFF7FEFF 		bl	LCD_WriteReg
 7518              	.LVL1410:
1911:Drivers/LCD_FMC/src/tftLCD.c ****         LCD_WriteReg(0xD625,0xB7);
 7519              		.loc 1 1911 9 view .LVU1892
 7520 2254 0221     		movs	r1, #2
 7521 2256 4DF22460 		movw	r0, #54820
 7522 225a FFF7FEFF 		bl	LCD_WriteReg
 7523              	.LVL1411:
1912:Drivers/LCD_FMC/src/tftLCD.c ****         LCD_WriteReg(0xD626,0x02);
 7524              		.loc 1 1912 9 view .LVU1893
 7525 225e B721     		movs	r1, #183
 7526 2260 4DF22560 		movw	r0, #54821
 7527 2264 FFF7FEFF 		bl	LCD_WriteReg
 7528              	.LVL1412:
1913:Drivers/LCD_FMC/src/tftLCD.c ****         LCD_WriteReg(0xD627,0xCF);
 7529              		.loc 1 1913 9 view .LVU1894
 7530 2268 0221     		movs	r1, #2
 7531 226a 4DF22660 		movw	r0, #54822
 7532 226e FFF7FEFF 		bl	LCD_WriteReg
 7533              	.LVL1413:
1914:Drivers/LCD_FMC/src/tftLCD.c ****         LCD_WriteReg(0xD628,0x02);
 7534              		.loc 1 1914 9 view .LVU1895
 7535 2272 CF21     		movs	r1, #207
 7536 2274 4DF22760 		movw	r0, #54823
 7537 2278 FFF7FEFF 		bl	LCD_WriteReg
 7538              	.LVL1414:
1915:Drivers/LCD_FMC/src/tftLCD.c ****         LCD_WriteReg(0xD629,0xDE);
 7539              		.loc 1 1915 9 view .LVU1896
 7540 227c 0221     		movs	r1, #2
 7541 227e 4DF22860 		movw	r0, #54824
 7542 2282 FFF7FEFF 		bl	LCD_WriteReg
 7543              	.LVL1415:
1916:Drivers/LCD_FMC/src/tftLCD.c ****         LCD_WriteReg(0xD62A,0x02);
 7544              		.loc 1 1916 9 view .LVU1897
 7545 2286 DE21     		movs	r1, #222
 7546 2288 4DF22960 		movw	r0, #54825
 7547 228c FFF7FEFF 		bl	LCD_WriteReg
ARM GAS  C:\usertemp\ccUDQ5mr.s 			page 197


 7548              	.LVL1416:
1917:Drivers/LCD_FMC/src/tftLCD.c ****         LCD_WriteReg(0xD62B,0xF2);
 7549              		.loc 1 1917 9 view .LVU1898
 7550 2290 0221     		movs	r1, #2
 7551 2292 4DF22A60 		movw	r0, #54826
 7552 2296 FFF7FEFF 		bl	LCD_WriteReg
 7553              	.LVL1417:
1918:Drivers/LCD_FMC/src/tftLCD.c ****         LCD_WriteReg(0xD62C,0x02);
 7554              		.loc 1 1918 9 view .LVU1899
 7555 229a F221     		movs	r1, #242
 7556 229c 4DF22B60 		movw	r0, #54827
 7557 22a0 FFF7FEFF 		bl	LCD_WriteReg
 7558              	.LVL1418:
1919:Drivers/LCD_FMC/src/tftLCD.c ****         LCD_WriteReg(0xD62D,0xFE);
 7559              		.loc 1 1919 9 view .LVU1900
 7560 22a4 0221     		movs	r1, #2
 7561 22a6 4DF22C60 		movw	r0, #54828
 7562 22aa FFF7FEFF 		bl	LCD_WriteReg
 7563              	.LVL1419:
1920:Drivers/LCD_FMC/src/tftLCD.c ****         LCD_WriteReg(0xD62E,0x03);
 7564              		.loc 1 1920 9 view .LVU1901
 7565 22ae FE21     		movs	r1, #254
 7566 22b0 4DF22D60 		movw	r0, #54829
 7567 22b4 FFF7FEFF 		bl	LCD_WriteReg
 7568              	.LVL1420:
1921:Drivers/LCD_FMC/src/tftLCD.c ****         LCD_WriteReg(0xD62F,0x10);
 7569              		.loc 1 1921 9 view .LVU1902
 7570 22b8 0321     		movs	r1, #3
 7571 22ba 4DF22E60 		movw	r0, #54830
 7572 22be FFF7FEFF 		bl	LCD_WriteReg
 7573              	.LVL1421:
1922:Drivers/LCD_FMC/src/tftLCD.c ****         LCD_WriteReg(0xD630,0x03);
 7574              		.loc 1 1922 9 view .LVU1903
 7575 22c2 1021     		movs	r1, #16
 7576 22c4 4DF22F60 		movw	r0, #54831
 7577 22c8 FFF7FEFF 		bl	LCD_WriteReg
 7578              	.LVL1422:
1923:Drivers/LCD_FMC/src/tftLCD.c ****         LCD_WriteReg(0xD631,0x33);
 7579              		.loc 1 1923 9 view .LVU1904
 7580 22cc 0321     		movs	r1, #3
 7581 22ce 4DF23060 		movw	r0, #54832
 7582 22d2 FFF7FEFF 		bl	LCD_WriteReg
 7583              	.LVL1423:
1924:Drivers/LCD_FMC/src/tftLCD.c ****         LCD_WriteReg(0xD632,0x03);
 7584              		.loc 1 1924 9 view .LVU1905
 7585 22d6 3321     		movs	r1, #51
 7586 22d8 4DF23160 		movw	r0, #54833
 7587 22dc FFF7FEFF 		bl	LCD_WriteReg
 7588              	.LVL1424:
1925:Drivers/LCD_FMC/src/tftLCD.c ****         LCD_WriteReg(0xD633,0x6D);
 7589              		.loc 1 1925 9 view .LVU1906
 7590 22e0 0321     		movs	r1, #3
 7591 22e2 4DF23260 		movw	r0, #54834
 7592 22e6 FFF7FEFF 		bl	LCD_WriteReg
 7593              	.LVL1425:
1926:Drivers/LCD_FMC/src/tftLCD.c ****         //LV2 Page 0 enable
 7594              		.loc 1 1926 9 view .LVU1907
ARM GAS  C:\usertemp\ccUDQ5mr.s 			page 198


 7595 22ea 6D21     		movs	r1, #109
 7596 22ec 4DF23360 		movw	r0, #54835
 7597 22f0 FFF7FEFF 		bl	LCD_WriteReg
 7598              	.LVL1426:
1928:Drivers/LCD_FMC/src/tftLCD.c ****         LCD_WriteReg(0xF001,0xAA);
 7599              		.loc 1 1928 9 view .LVU1908
 7600 22f4 5521     		movs	r1, #85
 7601 22f6 4FF47040 		mov	r0, #61440
 7602 22fa FFF7FEFF 		bl	LCD_WriteReg
 7603              	.LVL1427:
1929:Drivers/LCD_FMC/src/tftLCD.c ****         LCD_WriteReg(0xF002,0x52);
 7604              		.loc 1 1929 9 view .LVU1909
 7605 22fe AA21     		movs	r1, #170
 7606 2300 4FF20100 		movw	r0, #61441
 7607 2304 FFF7FEFF 		bl	LCD_WriteReg
 7608              	.LVL1428:
1930:Drivers/LCD_FMC/src/tftLCD.c ****         LCD_WriteReg(0xF003,0x08);
 7609              		.loc 1 1930 9 view .LVU1910
 7610 2308 5221     		movs	r1, #82
 7611 230a 4FF20200 		movw	r0, #61442
 7612 230e FFF7FEFF 		bl	LCD_WriteReg
 7613              	.LVL1429:
1931:Drivers/LCD_FMC/src/tftLCD.c ****         LCD_WriteReg(0xF004,0x00);
 7614              		.loc 1 1931 9 view .LVU1911
 7615 2312 0821     		movs	r1, #8
 7616 2314 4FF20300 		movw	r0, #61443
 7617 2318 FFF7FEFF 		bl	LCD_WriteReg
 7618              	.LVL1430:
1932:Drivers/LCD_FMC/src/tftLCD.c ****         //Display control
 7619              		.loc 1 1932 9 view .LVU1912
 7620 231c 0021     		movs	r1, #0
 7621 231e 4FF20400 		movw	r0, #61444
 7622 2322 FFF7FEFF 		bl	LCD_WriteReg
 7623              	.LVL1431:
1934:Drivers/LCD_FMC/src/tftLCD.c ****         LCD_WriteReg(0xB101, 0x00);
 7624              		.loc 1 1934 9 view .LVU1913
 7625 2326 CC21     		movs	r1, #204
 7626 2328 4FF43140 		mov	r0, #45312
 7627 232c FFF7FEFF 		bl	LCD_WriteReg
 7628              	.LVL1432:
1935:Drivers/LCD_FMC/src/tftLCD.c ****         //Source hold time
 7629              		.loc 1 1935 9 view .LVU1914
 7630 2330 0021     		movs	r1, #0
 7631 2332 4BF20110 		movw	r0, #45313
 7632 2336 FFF7FEFF 		bl	LCD_WriteReg
 7633              	.LVL1433:
1937:Drivers/LCD_FMC/src/tftLCD.c ****         //Gate EQ control
 7634              		.loc 1 1937 9 view .LVU1915
 7635 233a 0521     		movs	r1, #5
 7636 233c 4FF43640 		mov	r0, #46592
 7637 2340 FFF7FEFF 		bl	LCD_WriteReg
 7638              	.LVL1434:
1939:Drivers/LCD_FMC/src/tftLCD.c ****         LCD_WriteReg(0xB701,0x70);
 7639              		.loc 1 1939 9 view .LVU1916
 7640 2344 7021     		movs	r1, #112
 7641 2346 4FF43740 		mov	r0, #46848
 7642 234a FFF7FEFF 		bl	LCD_WriteReg
ARM GAS  C:\usertemp\ccUDQ5mr.s 			page 199


 7643              	.LVL1435:
1940:Drivers/LCD_FMC/src/tftLCD.c ****         //Source EQ control (Mode 2)
 7644              		.loc 1 1940 9 view .LVU1917
 7645 234e 7021     		movs	r1, #112
 7646 2350 4BF20170 		movw	r0, #46849
 7647 2354 FFF7FEFF 		bl	LCD_WriteReg
 7648              	.LVL1436:
1942:Drivers/LCD_FMC/src/tftLCD.c ****         LCD_WriteReg(0xB801,0x03);
 7649              		.loc 1 1942 9 view .LVU1918
 7650 2358 0121     		movs	r1, #1
 7651 235a 4FF43840 		mov	r0, #47104
 7652 235e FFF7FEFF 		bl	LCD_WriteReg
 7653              	.LVL1437:
1943:Drivers/LCD_FMC/src/tftLCD.c ****         LCD_WriteReg(0xB802,0x03);
 7654              		.loc 1 1943 9 view .LVU1919
 7655 2362 0321     		movs	r1, #3
 7656 2364 4BF60100 		movw	r0, #47105
 7657 2368 FFF7FEFF 		bl	LCD_WriteReg
 7658              	.LVL1438:
1944:Drivers/LCD_FMC/src/tftLCD.c ****         LCD_WriteReg(0xB803,0x03);
 7659              		.loc 1 1944 9 view .LVU1920
 7660 236c 0321     		movs	r1, #3
 7661 236e 4BF60200 		movw	r0, #47106
 7662 2372 FFF7FEFF 		bl	LCD_WriteReg
 7663              	.LVL1439:
1945:Drivers/LCD_FMC/src/tftLCD.c ****         //Inversion mode (2-dot)
 7664              		.loc 1 1945 9 view .LVU1921
 7665 2376 0321     		movs	r1, #3
 7666 2378 4BF60300 		movw	r0, #47107
 7667 237c FFF7FEFF 		bl	LCD_WriteReg
 7668              	.LVL1440:
1947:Drivers/LCD_FMC/src/tftLCD.c ****         LCD_WriteReg(0xBC01,0x00);
 7669              		.loc 1 1947 9 view .LVU1922
 7670 2380 0221     		movs	r1, #2
 7671 2382 4FF43C40 		mov	r0, #48128
 7672 2386 FFF7FEFF 		bl	LCD_WriteReg
 7673              	.LVL1441:
1948:Drivers/LCD_FMC/src/tftLCD.c ****         LCD_WriteReg(0xBC02,0x00);
 7674              		.loc 1 1948 9 view .LVU1923
 7675 238a 0021     		movs	r1, #0
 7676 238c 4BF60140 		movw	r0, #48129
 7677 2390 FFF7FEFF 		bl	LCD_WriteReg
 7678              	.LVL1442:
1949:Drivers/LCD_FMC/src/tftLCD.c ****         //Timing control 4H w/ 4-delay
 7679              		.loc 1 1949 9 view .LVU1924
 7680 2394 0021     		movs	r1, #0
 7681 2396 4BF60240 		movw	r0, #48130
 7682 239a FFF7FEFF 		bl	LCD_WriteReg
 7683              	.LVL1443:
1951:Drivers/LCD_FMC/src/tftLCD.c ****         LCD_WriteReg(0xC901,0x02);
 7684              		.loc 1 1951 9 view .LVU1925
 7685 239e D021     		movs	r1, #208
 7686 23a0 4FF44940 		mov	r0, #51456
 7687 23a4 FFF7FEFF 		bl	LCD_WriteReg
 7688              	.LVL1444:
1952:Drivers/LCD_FMC/src/tftLCD.c ****         LCD_WriteReg(0xC902,0x50);
 7689              		.loc 1 1952 9 view .LVU1926
ARM GAS  C:\usertemp\ccUDQ5mr.s 			page 200


 7690 23a8 0221     		movs	r1, #2
 7691 23aa 4CF60110 		movw	r0, #51457
 7692 23ae FFF7FEFF 		bl	LCD_WriteReg
 7693              	.LVL1445:
1953:Drivers/LCD_FMC/src/tftLCD.c ****         LCD_WriteReg(0xC903,0x50);
 7694              		.loc 1 1953 9 view .LVU1927
 7695 23b2 5021     		movs	r1, #80
 7696 23b4 4CF60210 		movw	r0, #51458
 7697 23b8 FFF7FEFF 		bl	LCD_WriteReg
 7698              	.LVL1446:
1954:Drivers/LCD_FMC/src/tftLCD.c ****         LCD_WriteReg(0xC904,0x50);
 7699              		.loc 1 1954 9 view .LVU1928
 7700 23bc 5021     		movs	r1, #80
 7701 23be 4CF60310 		movw	r0, #51459
 7702 23c2 FFF7FEFF 		bl	LCD_WriteReg
 7703              	.LVL1447:
1955:Drivers/LCD_FMC/src/tftLCD.c ****         LCD_WriteReg(0x3500,0x00);
 7704              		.loc 1 1955 9 view .LVU1929
 7705 23c6 5021     		movs	r1, #80
 7706 23c8 4CF60410 		movw	r0, #51460
 7707 23cc FFF7FEFF 		bl	LCD_WriteReg
 7708              	.LVL1448:
1956:Drivers/LCD_FMC/src/tftLCD.c ****         LCD_WriteReg(0x3A00,0x55);  //16-bit/pixel
 7709              		.loc 1 1956 9 view .LVU1930
 7710 23d0 0021     		movs	r1, #0
 7711 23d2 4FF45450 		mov	r0, #13568
 7712 23d6 FFF7FEFF 		bl	LCD_WriteReg
 7713              	.LVL1449:
1957:Drivers/LCD_FMC/src/tftLCD.c ****         LCD_WR_REG(0x1100);
 7714              		.loc 1 1957 9 view .LVU1931
 7715 23da 5521     		movs	r1, #85
 7716 23dc 4FF46850 		mov	r0, #14848
 7717 23e0 FFF7FEFF 		bl	LCD_WriteReg
 7718              	.LVL1450:
1958:Drivers/LCD_FMC/src/tftLCD.c ****         delay_us(120);
 7719              		.loc 1 1958 9 view .LVU1932
 7720 23e4 4FF48850 		mov	r0, #4352
 7721 23e8 FFF7FEFF 		bl	LCD_WR_REG
 7722              	.LVL1451:
1959:Drivers/LCD_FMC/src/tftLCD.c ****         LCD_WR_REG(0x2900);
 7723              		.loc 1 1959 9 view .LVU1933
 7724 23ec 7820     		movs	r0, #120
 7725 23ee FFF7FEFF 		bl	delay_us
 7726              	.LVL1452:
1960:Drivers/LCD_FMC/src/tftLCD.c ****     }
 7727              		.loc 1 1960 9 view .LVU1934
 7728 23f2 4FF42450 		mov	r0, #10496
 7729 23f6 FFF7FEFF 		bl	LCD_WR_REG
 7730              	.LVL1453:
 7731 23fa FDF736BE 		b	.L148
 7732              	.L160:
1964:Drivers/LCD_FMC/src/tftLCD.c ****         LCD_WR_DATA(0x1D);		//参数1
 7733              		.loc 1 1964 9 view .LVU1935
 7734 23fe E220     		movs	r0, #226
 7735 2400 FFF7FEFF 		bl	LCD_WR_REG
 7736              	.LVL1454:
1965:Drivers/LCD_FMC/src/tftLCD.c ****         LCD_WR_DATA(0x02);		//参数2 Divider M = 2, PLL = 300/(M+1) = 100MHz
ARM GAS  C:\usertemp\ccUDQ5mr.s 			page 201


 7737              		.loc 1 1965 9 view .LVU1936
 7738 2404 1D20     		movs	r0, #29
 7739 2406 FFF7FEFF 		bl	LCD_WR_DATA
 7740              	.LVL1455:
1966:Drivers/LCD_FMC/src/tftLCD.c ****         LCD_WR_DATA(0x04);		//参数3 Validate M and N values
 7741              		.loc 1 1966 9 view .LVU1937
 7742 240a 0220     		movs	r0, #2
 7743 240c FFF7FEFF 		bl	LCD_WR_DATA
 7744              	.LVL1456:
1967:Drivers/LCD_FMC/src/tftLCD.c ****         delay_us(100);
 7745              		.loc 1 1967 9 view .LVU1938
 7746 2410 0420     		movs	r0, #4
 7747 2412 FFF7FEFF 		bl	LCD_WR_DATA
 7748              	.LVL1457:
1968:Drivers/LCD_FMC/src/tftLCD.c ****         LCD_WR_REG(0xE0);		// Start PLL command
 7749              		.loc 1 1968 9 view .LVU1939
 7750 2416 6420     		movs	r0, #100
 7751 2418 FFF7FEFF 		bl	delay_us
 7752              	.LVL1458:
1969:Drivers/LCD_FMC/src/tftLCD.c ****         LCD_WR_DATA(0x01);		// enable PLL
 7753              		.loc 1 1969 9 view .LVU1940
 7754 241c E020     		movs	r0, #224
 7755 241e FFF7FEFF 		bl	LCD_WR_REG
 7756              	.LVL1459:
1970:Drivers/LCD_FMC/src/tftLCD.c ****         HAL_Delay(10);
 7757              		.loc 1 1970 9 view .LVU1941
 7758 2422 0120     		movs	r0, #1
 7759 2424 FFF7FEFF 		bl	LCD_WR_DATA
 7760              	.LVL1460:
1971:Drivers/LCD_FMC/src/tftLCD.c ****         LCD_WR_REG(0xE0);		// Start PLL command again
 7761              		.loc 1 1971 9 view .LVU1942
 7762 2428 0A20     		movs	r0, #10
 7763 242a FFF7FEFF 		bl	HAL_Delay
 7764              	.LVL1461:
1972:Drivers/LCD_FMC/src/tftLCD.c ****         LCD_WR_DATA(0x03);		// now, use PLL output as system clock
 7765              		.loc 1 1972 9 view .LVU1943
 7766 242e E020     		movs	r0, #224
 7767 2430 FFF7FEFF 		bl	LCD_WR_REG
 7768              	.LVL1462:
1973:Drivers/LCD_FMC/src/tftLCD.c ****         HAL_Delay(12);
 7769              		.loc 1 1973 9 view .LVU1944
 7770 2434 0320     		movs	r0, #3
 7771 2436 FFF7FEFF 		bl	LCD_WR_DATA
 7772              	.LVL1463:
1974:Drivers/LCD_FMC/src/tftLCD.c ****         LCD_WR_REG(0x01);		//软复位
 7773              		.loc 1 1974 9 view .LVU1945
 7774 243a 0C20     		movs	r0, #12
 7775 243c FFF7FEFF 		bl	HAL_Delay
 7776              	.LVL1464:
1975:Drivers/LCD_FMC/src/tftLCD.c ****         HAL_Delay(10);
 7777              		.loc 1 1975 9 view .LVU1946
 7778 2440 0120     		movs	r0, #1
 7779 2442 FFF7FEFF 		bl	LCD_WR_REG
 7780              	.LVL1465:
1976:Drivers/LCD_FMC/src/tftLCD.c **** 
 7781              		.loc 1 1976 9 view .LVU1947
 7782 2446 0A20     		movs	r0, #10
ARM GAS  C:\usertemp\ccUDQ5mr.s 			page 202


 7783 2448 FFF7FEFF 		bl	HAL_Delay
 7784              	.LVL1466:
1978:Drivers/LCD_FMC/src/tftLCD.c ****         LCD_WR_DATA(0x2F);
 7785              		.loc 1 1978 9 view .LVU1948
 7786 244c E620     		movs	r0, #230
 7787 244e FFF7FEFF 		bl	LCD_WR_REG
 7788              	.LVL1467:
1979:Drivers/LCD_FMC/src/tftLCD.c ****         LCD_WR_DATA(0xFF);
 7789              		.loc 1 1979 9 view .LVU1949
 7790 2452 2F20     		movs	r0, #47
 7791 2454 FFF7FEFF 		bl	LCD_WR_DATA
 7792              	.LVL1468:
1980:Drivers/LCD_FMC/src/tftLCD.c ****         LCD_WR_DATA(0xFF);
 7793              		.loc 1 1980 9 view .LVU1950
 7794 2458 FF20     		movs	r0, #255
 7795 245a FFF7FEFF 		bl	LCD_WR_DATA
 7796              	.LVL1469:
1981:Drivers/LCD_FMC/src/tftLCD.c **** 
 7797              		.loc 1 1981 9 view .LVU1951
 7798 245e FF20     		movs	r0, #255
 7799 2460 FFF7FEFF 		bl	LCD_WR_DATA
 7800              	.LVL1470:
1983:Drivers/LCD_FMC/src/tftLCD.c ****         LCD_WR_DATA(0x20);		//24位模式
 7801              		.loc 1 1983 9 view .LVU1952
 7802 2464 B020     		movs	r0, #176
 7803 2466 FFF7FEFF 		bl	LCD_WR_REG
 7804              	.LVL1471:
1984:Drivers/LCD_FMC/src/tftLCD.c ****         LCD_WR_DATA(0x00);		//TFT 模式
 7805              		.loc 1 1984 9 view .LVU1953
 7806 246a 2020     		movs	r0, #32
 7807 246c FFF7FEFF 		bl	LCD_WR_DATA
 7808              	.LVL1472:
1985:Drivers/LCD_FMC/src/tftLCD.c **** 
 7809              		.loc 1 1985 9 view .LVU1954
 7810 2470 0020     		movs	r0, #0
 7811 2472 FFF7FEFF 		bl	LCD_WR_DATA
 7812              	.LVL1473:
1987:Drivers/LCD_FMC/src/tftLCD.c ****         LCD_WR_DATA(SSD_HOR_RESOLUTION-1);
 7813              		.loc 1 1987 9 view .LVU1955
 7814 2476 0320     		movs	r0, #3
 7815 2478 FFF7FEFF 		bl	LCD_WR_DATA
 7816              	.LVL1474:
1988:Drivers/LCD_FMC/src/tftLCD.c ****         LCD_WR_DATA((SSD_VER_RESOLUTION-1)>>8);//设置LCD垂直像素
 7817              		.loc 1 1988 9 view .LVU1956
 7818 247c 40F21F30 		movw	r0, #799
 7819 2480 FFF7FEFF 		bl	LCD_WR_DATA
 7820              	.LVL1475:
1989:Drivers/LCD_FMC/src/tftLCD.c ****         LCD_WR_DATA(SSD_VER_RESOLUTION-1);
 7821              		.loc 1 1989 9 view .LVU1957
 7822 2484 0120     		movs	r0, #1
 7823 2486 FFF7FEFF 		bl	LCD_WR_DATA
 7824              	.LVL1476:
1990:Drivers/LCD_FMC/src/tftLCD.c ****         LCD_WR_DATA(0x00);		//RGB序列
 7825              		.loc 1 1990 9 view .LVU1958
 7826 248a 40F2DF10 		movw	r0, #479
 7827 248e FFF7FEFF 		bl	LCD_WR_DATA
 7828              	.LVL1477:
ARM GAS  C:\usertemp\ccUDQ5mr.s 			page 203


1991:Drivers/LCD_FMC/src/tftLCD.c **** 
 7829              		.loc 1 1991 9 view .LVU1959
 7830 2492 0020     		movs	r0, #0
 7831 2494 FFF7FEFF 		bl	LCD_WR_DATA
 7832              	.LVL1478:
1993:Drivers/LCD_FMC/src/tftLCD.c ****         LCD_WR_DATA((SSD_HT-1)>>8);
 7833              		.loc 1 1993 9 view .LVU1960
 7834 2498 B420     		movs	r0, #180
 7835 249a FFF7FEFF 		bl	LCD_WR_REG
 7836              	.LVL1479:
1994:Drivers/LCD_FMC/src/tftLCD.c ****         LCD_WR_DATA(SSD_HT-1);
 7837              		.loc 1 1994 9 view .LVU1961
 7838 249e 0420     		movs	r0, #4
 7839 24a0 FFF7FEFF 		bl	LCD_WR_DATA
 7840              	.LVL1480:
1995:Drivers/LCD_FMC/src/tftLCD.c ****         LCD_WR_DATA(SSD_HPS>>8);
 7841              		.loc 1 1995 9 view .LVU1962
 7842 24a4 40F21F40 		movw	r0, #1055
 7843 24a8 FFF7FEFF 		bl	LCD_WR_DATA
 7844              	.LVL1481:
1996:Drivers/LCD_FMC/src/tftLCD.c ****         LCD_WR_DATA(SSD_HPS);
 7845              		.loc 1 1996 9 view .LVU1963
 7846 24ac 0020     		movs	r0, #0
 7847 24ae FFF7FEFF 		bl	LCD_WR_DATA
 7848              	.LVL1482:
1997:Drivers/LCD_FMC/src/tftLCD.c ****         LCD_WR_DATA(SSD_HOR_PULSE_WIDTH-1);
 7849              		.loc 1 1997 9 view .LVU1964
 7850 24b2 2E20     		movs	r0, #46
 7851 24b4 FFF7FEFF 		bl	LCD_WR_DATA
 7852              	.LVL1483:
1998:Drivers/LCD_FMC/src/tftLCD.c ****         LCD_WR_DATA(0x00);
 7853              		.loc 1 1998 9 view .LVU1965
 7854 24b8 0020     		movs	r0, #0
 7855 24ba FFF7FEFF 		bl	LCD_WR_DATA
 7856              	.LVL1484:
1999:Drivers/LCD_FMC/src/tftLCD.c ****         LCD_WR_DATA(0x00);
 7857              		.loc 1 1999 9 view .LVU1966
 7858 24be 0020     		movs	r0, #0
 7859 24c0 FFF7FEFF 		bl	LCD_WR_DATA
 7860              	.LVL1485:
2000:Drivers/LCD_FMC/src/tftLCD.c ****         LCD_WR_DATA(0x00);
 7861              		.loc 1 2000 9 view .LVU1967
 7862 24c4 0020     		movs	r0, #0
 7863 24c6 FFF7FEFF 		bl	LCD_WR_DATA
 7864              	.LVL1486:
2001:Drivers/LCD_FMC/src/tftLCD.c ****         LCD_WR_REG(0xB6);		//Set vertical period
 7865              		.loc 1 2001 9 view .LVU1968
 7866 24ca 0020     		movs	r0, #0
 7867 24cc FFF7FEFF 		bl	LCD_WR_DATA
 7868              	.LVL1487:
2002:Drivers/LCD_FMC/src/tftLCD.c ****         LCD_WR_DATA((SSD_VT-1)>>8);
 7869              		.loc 1 2002 9 view .LVU1969
 7870 24d0 B620     		movs	r0, #182
 7871 24d2 FFF7FEFF 		bl	LCD_WR_REG
 7872              	.LVL1488:
2003:Drivers/LCD_FMC/src/tftLCD.c ****         LCD_WR_DATA(SSD_VT-1);
 7873              		.loc 1 2003 9 view .LVU1970
ARM GAS  C:\usertemp\ccUDQ5mr.s 			page 204


 7874 24d6 0220     		movs	r0, #2
 7875 24d8 FFF7FEFF 		bl	LCD_WR_DATA
 7876              	.LVL1489:
2004:Drivers/LCD_FMC/src/tftLCD.c ****         LCD_WR_DATA(SSD_VPS>>8);
 7877              		.loc 1 2004 9 view .LVU1971
 7878 24dc 4FF40370 		mov	r0, #524
 7879 24e0 FFF7FEFF 		bl	LCD_WR_DATA
 7880              	.LVL1490:
2005:Drivers/LCD_FMC/src/tftLCD.c ****         LCD_WR_DATA(SSD_VPS);
 7881              		.loc 1 2005 9 view .LVU1972
 7882 24e4 0020     		movs	r0, #0
 7883 24e6 FFF7FEFF 		bl	LCD_WR_DATA
 7884              	.LVL1491:
2006:Drivers/LCD_FMC/src/tftLCD.c ****         LCD_WR_DATA(SSD_VER_FRONT_PORCH-1);
 7885              		.loc 1 2006 9 view .LVU1973
 7886 24ea 1720     		movs	r0, #23
 7887 24ec FFF7FEFF 		bl	LCD_WR_DATA
 7888              	.LVL1492:
2007:Drivers/LCD_FMC/src/tftLCD.c ****         LCD_WR_DATA(0x00);
 7889              		.loc 1 2007 9 view .LVU1974
 7890 24f0 1520     		movs	r0, #21
 7891 24f2 FFF7FEFF 		bl	LCD_WR_DATA
 7892              	.LVL1493:
2008:Drivers/LCD_FMC/src/tftLCD.c ****         LCD_WR_DATA(0x00);
 7893              		.loc 1 2008 9 view .LVU1975
 7894 24f6 0020     		movs	r0, #0
 7895 24f8 FFF7FEFF 		bl	LCD_WR_DATA
 7896              	.LVL1494:
2009:Drivers/LCD_FMC/src/tftLCD.c **** 
 7897              		.loc 1 2009 9 view .LVU1976
 7898 24fc 0020     		movs	r0, #0
 7899 24fe FFF7FEFF 		bl	LCD_WR_DATA
 7900              	.LVL1495:
2011:Drivers/LCD_FMC/src/tftLCD.c ****         LCD_WR_DATA(0x03);	//16-bit(565 format) data for 16bpp
 7901              		.loc 1 2011 9 view .LVU1977
 7902 2502 F020     		movs	r0, #240
 7903 2504 FFF7FEFF 		bl	LCD_WR_REG
 7904              	.LVL1496:
2012:Drivers/LCD_FMC/src/tftLCD.c **** 
 7905              		.loc 1 2012 9 view .LVU1978
 7906 2508 0320     		movs	r0, #3
 7907 250a FFF7FEFF 		bl	LCD_WR_DATA
 7908              	.LVL1497:
2014:Drivers/LCD_FMC/src/tftLCD.c ****         //设置PWM输出  背光通过占空比可调
 7909              		.loc 1 2014 9 view .LVU1979
 7910 250e 2920     		movs	r0, #41
 7911 2510 FFF7FEFF 		bl	LCD_WR_REG
 7912              	.LVL1498:
2016:Drivers/LCD_FMC/src/tftLCD.c ****         LCD_WR_DATA(0x00);	//disable
 7913              		.loc 1 2016 9 view .LVU1980
 7914 2514 D020     		movs	r0, #208
 7915 2516 FFF7FEFF 		bl	LCD_WR_REG
 7916              	.LVL1499:
2017:Drivers/LCD_FMC/src/tftLCD.c **** 
 7917              		.loc 1 2017 9 view .LVU1981
 7918 251a 0020     		movs	r0, #0
 7919 251c FFF7FEFF 		bl	LCD_WR_DATA
ARM GAS  C:\usertemp\ccUDQ5mr.s 			page 205


 7920              	.LVL1500:
2019:Drivers/LCD_FMC/src/tftLCD.c ****         LCD_WR_DATA(0x05);	//1设置PWM频率
 7921              		.loc 1 2019 9 view .LVU1982
 7922 2520 BE20     		movs	r0, #190
 7923 2522 FFF7FEFF 		bl	LCD_WR_REG
 7924              	.LVL1501:
2020:Drivers/LCD_FMC/src/tftLCD.c ****         LCD_WR_DATA(0xFE);	//2设置PWM占空比
 7925              		.loc 1 2020 9 view .LVU1983
 7926 2526 0520     		movs	r0, #5
 7927 2528 FFF7FEFF 		bl	LCD_WR_DATA
 7928              	.LVL1502:
2021:Drivers/LCD_FMC/src/tftLCD.c ****         LCD_WR_DATA(0x01);	//3设置C
 7929              		.loc 1 2021 9 view .LVU1984
 7930 252c FE20     		movs	r0, #254
 7931 252e FFF7FEFF 		bl	LCD_WR_DATA
 7932              	.LVL1503:
2022:Drivers/LCD_FMC/src/tftLCD.c ****         LCD_WR_DATA(0x00);	//4设置D
 7933              		.loc 1 2022 9 view .LVU1985
 7934 2532 0120     		movs	r0, #1
 7935 2534 FFF7FEFF 		bl	LCD_WR_DATA
 7936              	.LVL1504:
2023:Drivers/LCD_FMC/src/tftLCD.c ****         LCD_WR_DATA(0x00);	//5设置E
 7937              		.loc 1 2023 9 view .LVU1986
 7938 2538 0020     		movs	r0, #0
 7939 253a FFF7FEFF 		bl	LCD_WR_DATA
 7940              	.LVL1505:
2024:Drivers/LCD_FMC/src/tftLCD.c ****         LCD_WR_DATA(0x00);	//6设置F
 7941              		.loc 1 2024 9 view .LVU1987
 7942 253e 0020     		movs	r0, #0
 7943 2540 FFF7FEFF 		bl	LCD_WR_DATA
 7944              	.LVL1506:
2025:Drivers/LCD_FMC/src/tftLCD.c **** 
 7945              		.loc 1 2025 9 view .LVU1988
 7946 2544 0020     		movs	r0, #0
 7947 2546 FFF7FEFF 		bl	LCD_WR_DATA
 7948              	.LVL1507:
2027:Drivers/LCD_FMC/src/tftLCD.c ****         LCD_WR_DATA(0x03);	//2个IO口设置成输出
 7949              		.loc 1 2027 9 view .LVU1989
 7950 254a B820     		movs	r0, #184
 7951 254c FFF7FEFF 		bl	LCD_WR_REG
 7952              	.LVL1508:
2028:Drivers/LCD_FMC/src/tftLCD.c ****         LCD_WR_DATA(0x01);	//GPIO使用正常的IO功能
 7953              		.loc 1 2028 9 view .LVU1990
 7954 2550 0320     		movs	r0, #3
 7955 2552 FFF7FEFF 		bl	LCD_WR_DATA
 7956              	.LVL1509:
2029:Drivers/LCD_FMC/src/tftLCD.c ****         LCD_WR_REG(0xBA);
 7957              		.loc 1 2029 9 view .LVU1991
 7958 2556 0120     		movs	r0, #1
 7959 2558 FFF7FEFF 		bl	LCD_WR_DATA
 7960              	.LVL1510:
2030:Drivers/LCD_FMC/src/tftLCD.c ****         LCD_WR_DATA(0X01);	//GPIO[1:0]=01,控制LCD方向
 7961              		.loc 1 2030 9 view .LVU1992
 7962 255c BA20     		movs	r0, #186
 7963 255e FFF7FEFF 		bl	LCD_WR_REG
 7964              	.LVL1511:
2031:Drivers/LCD_FMC/src/tftLCD.c **** 
ARM GAS  C:\usertemp\ccUDQ5mr.s 			page 206


 7965              		.loc 1 2031 9 view .LVU1993
 7966 2562 0120     		movs	r0, #1
 7967 2564 FFF7FEFF 		bl	LCD_WR_DATA
 7968              	.LVL1512:
2033:Drivers/LCD_FMC/src/tftLCD.c ****     }
 7969              		.loc 1 2033 9 view .LVU1994
 7970 2568 6420     		movs	r0, #100
 7971 256a FFF7FEFF 		bl	LCD_SSD_BackLightSet
 7972              	.LVL1513:
 7973 256e FDF77CBD 		b	.L148
 7974              		.cfi_endproc
 7975              	.LFE353:
 7977 2572 00BF     		.section	.text.LCD_Fill,"ax",%progbits
 7978              		.align	1
 7979              		.global	LCD_Fill
 7980              		.syntax unified
 7981              		.thumb
 7982              		.thumb_func
 7984              	LCD_Fill:
 7985              	.LVL1514:
 7986              	.LFB355:
2062:Drivers/LCD_FMC/src/tftLCD.c **** 
2063:Drivers/LCD_FMC/src/tftLCD.c **** //在指定区域内填充单个颜色
2064:Drivers/LCD_FMC/src/tftLCD.c **** //(sx,sy),(ex,ey):填充矩形对角坐标,区域大小为:(ex-sx+1)*(ey-sy+1)
2065:Drivers/LCD_FMC/src/tftLCD.c **** //color:要填充的颜色
2066:Drivers/LCD_FMC/src/tftLCD.c **** void LCD_Fill(uint16_t sx,uint16_t sy,uint16_t ex,uint16_t ey,uint32_t color)
2067:Drivers/LCD_FMC/src/tftLCD.c **** {
 7987              		.loc 1 2067 1 view -0
 7988              		.cfi_startproc
 7989              		@ args = 4, pretend = 0, frame = 0
 7990              		@ frame_needed = 0, uses_anonymous_args = 0
 7991              		.loc 1 2067 1 is_stmt 0 view .LVU1996
 7992 0000 2DE9F041 		push	{r4, r5, r6, r7, r8, lr}
 7993              	.LCFI22:
 7994              		.cfi_def_cfa_offset 24
 7995              		.cfi_offset 4, -24
 7996              		.cfi_offset 5, -20
 7997              		.cfi_offset 6, -16
 7998              		.cfi_offset 7, -12
 7999              		.cfi_offset 8, -8
 8000              		.cfi_offset 14, -4
 8001 0004 0746     		mov	r7, r0
 8002 0006 0E46     		mov	r6, r1
 8003 0008 9846     		mov	r8, r3
 8004 000a 069D     		ldr	r5, [sp, #24]
2068:Drivers/LCD_FMC/src/tftLCD.c ****     uint16_t i,j;
 8005              		.loc 1 2068 5 is_stmt 1 view .LVU1997
2069:Drivers/LCD_FMC/src/tftLCD.c ****     uint16_t xlen=0;
 8006              		.loc 1 2069 5 view .LVU1998
 8007              	.LVL1515:
2070:Drivers/LCD_FMC/src/tftLCD.c ****     xlen=ex-sx+1;
 8008              		.loc 1 2070 5 view .LVU1999
 8009              		.loc 1 2070 12 is_stmt 0 view .LVU2000
 8010 000c 141A     		subs	r4, r2, r0
 8011 000e A4B2     		uxth	r4, r4
 8012              		.loc 1 2070 9 view .LVU2001
 8013 0010 0134     		adds	r4, r4, #1
ARM GAS  C:\usertemp\ccUDQ5mr.s 			page 207


 8014 0012 A4B2     		uxth	r4, r4
 8015              	.LVL1516:
2071:Drivers/LCD_FMC/src/tftLCD.c ****     for(i=sy; i<=ey; i++)
 8016              		.loc 1 2071 5 is_stmt 1 view .LVU2002
 8017              		.loc 1 2071 5 is_stmt 0 view .LVU2003
 8018 0014 0AE0     		b	.L165
 8019              	.LVL1517:
 8020              	.L167:
2072:Drivers/LCD_FMC/src/tftLCD.c ****     {
2073:Drivers/LCD_FMC/src/tftLCD.c ****         LCD_SetCursor(sx,i);      				//设置光标位置
2074:Drivers/LCD_FMC/src/tftLCD.c ****         LCD_WriteRAM_Prepare();     			//开始写入GRAM
2075:Drivers/LCD_FMC/src/tftLCD.c ****         for (j = 0; j < xlen; j++)
2076:Drivers/LCD_FMC/src/tftLCD.c ****         {
2077:Drivers/LCD_FMC/src/tftLCD.c ****             LCD->LCD_RAM=color;     //设置光标位置
 8021              		.loc 1 2077 13 is_stmt 1 view .LVU2004
 8022              		.loc 1 2077 25 is_stmt 0 view .LVU2005
 8023 0016 ABB2     		uxth	r3, r5
 8024 0018 4FF0C84C 		mov	ip, #1677721600
 8025 001c ACF88030 		strh	r3, [ip, #128]	@ movhi
2075:Drivers/LCD_FMC/src/tftLCD.c ****         {
 8026              		.loc 1 2075 32 is_stmt 1 discriminator 3 view .LVU2006
 8027 0020 0132     		adds	r2, r2, #1
 8028              	.LVL1518:
2075:Drivers/LCD_FMC/src/tftLCD.c ****         {
 8029              		.loc 1 2075 32 is_stmt 0 discriminator 3 view .LVU2007
 8030 0022 92B2     		uxth	r2, r2
 8031              	.LVL1519:
 8032              	.L166:
2075:Drivers/LCD_FMC/src/tftLCD.c ****         {
 8033              		.loc 1 2075 23 is_stmt 1 discriminator 1 view .LVU2008
 8034 0024 A242     		cmp	r2, r4
 8035 0026 F6D3     		bcc	.L167
2071:Drivers/LCD_FMC/src/tftLCD.c ****     for(i=sy; i<=ey; i++)
 8036              		.loc 1 2071 23 discriminator 2 view .LVU2009
 8037 0028 0136     		adds	r6, r6, #1
 8038              	.LVL1520:
2071:Drivers/LCD_FMC/src/tftLCD.c ****     for(i=sy; i<=ey; i++)
 8039              		.loc 1 2071 23 is_stmt 0 discriminator 2 view .LVU2010
 8040 002a B6B2     		uxth	r6, r6
 8041              	.LVL1521:
 8042              	.L165:
2071:Drivers/LCD_FMC/src/tftLCD.c ****     for(i=sy; i<=ey; i++)
 8043              		.loc 1 2071 16 is_stmt 1 discriminator 1 view .LVU2011
 8044 002c 4645     		cmp	r6, r8
 8045 002e 07D8     		bhi	.L170
2073:Drivers/LCD_FMC/src/tftLCD.c ****         LCD_WriteRAM_Prepare();     			//开始写入GRAM
 8046              		.loc 1 2073 9 view .LVU2012
 8047 0030 3146     		mov	r1, r6
 8048 0032 3846     		mov	r0, r7
 8049 0034 FFF7FEFF 		bl	LCD_SetCursor
 8050              	.LVL1522:
2074:Drivers/LCD_FMC/src/tftLCD.c ****         for (j = 0; j < xlen; j++)
 8051              		.loc 1 2074 9 view .LVU2013
 8052 0038 FFF7FEFF 		bl	LCD_WriteRAM_Prepare
 8053              	.LVL1523:
2075:Drivers/LCD_FMC/src/tftLCD.c ****         {
 8054              		.loc 1 2075 9 view .LVU2014
ARM GAS  C:\usertemp\ccUDQ5mr.s 			page 208


2075:Drivers/LCD_FMC/src/tftLCD.c ****         {
 8055              		.loc 1 2075 16 is_stmt 0 view .LVU2015
 8056 003c 0022     		movs	r2, #0
2075:Drivers/LCD_FMC/src/tftLCD.c ****         {
 8057              		.loc 1 2075 9 view .LVU2016
 8058 003e F1E7     		b	.L166
 8059              	.LVL1524:
 8060              	.L170:
2078:Drivers/LCD_FMC/src/tftLCD.c ****         }
2079:Drivers/LCD_FMC/src/tftLCD.c ****     }
2080:Drivers/LCD_FMC/src/tftLCD.c **** }
 8061              		.loc 1 2080 1 view .LVU2017
 8062 0040 BDE8F081 		pop	{r4, r5, r6, r7, r8, pc}
 8063              		.loc 1 2080 1 view .LVU2018
 8064              		.cfi_endproc
 8065              	.LFE355:
 8067              		.section	.text.LCD_Color_Fill,"ax",%progbits
 8068              		.align	1
 8069              		.global	LCD_Color_Fill
 8070              		.syntax unified
 8071              		.thumb
 8072              		.thumb_func
 8074              	LCD_Color_Fill:
 8075              	.LVL1525:
 8076              	.LFB356:
2081:Drivers/LCD_FMC/src/tftLCD.c **** 
2082:Drivers/LCD_FMC/src/tftLCD.c **** //在指定区域内填充指定颜色块
2083:Drivers/LCD_FMC/src/tftLCD.c **** //(sx,sy),(ex,ey):填充矩形对角坐标,区域大小为:(ex-sx+1)*(ey-sy+1)
2084:Drivers/LCD_FMC/src/tftLCD.c **** //color:要填充的颜色
2085:Drivers/LCD_FMC/src/tftLCD.c **** void LCD_Color_Fill(uint16_t sx,uint16_t sy,uint16_t ex,uint16_t ey,uint16_t *color)
2086:Drivers/LCD_FMC/src/tftLCD.c **** {
 8077              		.loc 1 2086 1 is_stmt 1 view -0
 8078              		.cfi_startproc
 8079              		@ args = 4, pretend = 0, frame = 0
 8080              		@ frame_needed = 0, uses_anonymous_args = 0
 8081              		.loc 1 2086 1 is_stmt 0 view .LVU2020
 8082 0000 2DE9F843 		push	{r3, r4, r5, r6, r7, r8, r9, lr}
 8083              	.LCFI23:
 8084              		.cfi_def_cfa_offset 32
 8085              		.cfi_offset 3, -32
 8086              		.cfi_offset 4, -28
 8087              		.cfi_offset 5, -24
 8088              		.cfi_offset 6, -20
 8089              		.cfi_offset 7, -16
 8090              		.cfi_offset 8, -12
 8091              		.cfi_offset 9, -8
 8092              		.cfi_offset 14, -4
 8093 0004 8146     		mov	r9, r0
 8094 0006 8846     		mov	r8, r1
 8095 0008 089E     		ldr	r6, [sp, #32]
2087:Drivers/LCD_FMC/src/tftLCD.c ****     uint16_t height,width;
 8096              		.loc 1 2087 5 is_stmt 1 view .LVU2021
2088:Drivers/LCD_FMC/src/tftLCD.c ****     uint16_t i,j;
 8097              		.loc 1 2088 5 view .LVU2022
2089:Drivers/LCD_FMC/src/tftLCD.c ****     width=ex-sx+1; 			//得到填充的宽度
 8098              		.loc 1 2089 5 view .LVU2023
 8099              		.loc 1 2089 13 is_stmt 0 view .LVU2024
ARM GAS  C:\usertemp\ccUDQ5mr.s 			page 209


 8100 000a 141A     		subs	r4, r2, r0
 8101 000c A4B2     		uxth	r4, r4
 8102              		.loc 1 2089 10 view .LVU2025
 8103 000e 0134     		adds	r4, r4, #1
 8104 0010 A4B2     		uxth	r4, r4
 8105              	.LVL1526:
2090:Drivers/LCD_FMC/src/tftLCD.c ****     height=ey-sy+1;			//高度
 8106              		.loc 1 2090 5 is_stmt 1 view .LVU2026
 8107              		.loc 1 2090 14 is_stmt 0 view .LVU2027
 8108 0012 5F1A     		subs	r7, r3, r1
 8109 0014 BFB2     		uxth	r7, r7
 8110              		.loc 1 2090 11 view .LVU2028
 8111 0016 0137     		adds	r7, r7, #1
 8112 0018 BFB2     		uxth	r7, r7
 8113              	.LVL1527:
2091:Drivers/LCD_FMC/src/tftLCD.c ****     for(i=0; i<height; i++)
 8114              		.loc 1 2091 5 is_stmt 1 view .LVU2029
 8115              		.loc 1 2091 10 is_stmt 0 view .LVU2030
 8116 001a 0025     		movs	r5, #0
 8117              		.loc 1 2091 5 view .LVU2031
 8118 001c 0DE0     		b	.L172
 8119              	.LVL1528:
 8120              	.L174:
2092:Drivers/LCD_FMC/src/tftLCD.c ****     {
2093:Drivers/LCD_FMC/src/tftLCD.c ****         LCD_SetCursor(sx,sy+i);   	//设置光标位置
2094:Drivers/LCD_FMC/src/tftLCD.c ****         LCD_WriteRAM_Prepare();     //开始写入GRAM
2095:Drivers/LCD_FMC/src/tftLCD.c ****         for (j = 0; j < width; j++)
2096:Drivers/LCD_FMC/src/tftLCD.c ****         {
2097:Drivers/LCD_FMC/src/tftLCD.c ****             LCD->LCD_RAM=color[i * width + j];  //写入数据
 8121              		.loc 1 2097 13 is_stmt 1 view .LVU2032
 8122              		.loc 1 2097 42 is_stmt 0 view .LVU2033
 8123 001e 04FB0532 		mla	r2, r4, r5, r3
 8124              		.loc 1 2097 31 view .LVU2034
 8125 0022 36F81210 		ldrh	r1, [r6, r2, lsl #1]
 8126              		.loc 1 2097 25 view .LVU2035
 8127 0026 4FF0C842 		mov	r2, #1677721600
 8128 002a A2F88010 		strh	r1, [r2, #128]	@ movhi
2095:Drivers/LCD_FMC/src/tftLCD.c ****         {
 8129              		.loc 1 2095 33 is_stmt 1 discriminator 3 view .LVU2036
 8130 002e 0133     		adds	r3, r3, #1
 8131              	.LVL1529:
2095:Drivers/LCD_FMC/src/tftLCD.c ****         {
 8132              		.loc 1 2095 33 is_stmt 0 discriminator 3 view .LVU2037
 8133 0030 9BB2     		uxth	r3, r3
 8134              	.LVL1530:
 8135              	.L173:
2095:Drivers/LCD_FMC/src/tftLCD.c ****         {
 8136              		.loc 1 2095 23 is_stmt 1 discriminator 1 view .LVU2038
 8137 0032 A342     		cmp	r3, r4
 8138 0034 F3D3     		bcc	.L174
2091:Drivers/LCD_FMC/src/tftLCD.c ****     for(i=0; i<height; i++)
 8139              		.loc 1 2091 25 discriminator 2 view .LVU2039
 8140 0036 0135     		adds	r5, r5, #1
 8141              	.LVL1531:
2091:Drivers/LCD_FMC/src/tftLCD.c ****     for(i=0; i<height; i++)
 8142              		.loc 1 2091 25 is_stmt 0 discriminator 2 view .LVU2040
 8143 0038 ADB2     		uxth	r5, r5
ARM GAS  C:\usertemp\ccUDQ5mr.s 			page 210


 8144              	.LVL1532:
 8145              	.L172:
2091:Drivers/LCD_FMC/src/tftLCD.c ****     for(i=0; i<height; i++)
 8146              		.loc 1 2091 15 is_stmt 1 discriminator 1 view .LVU2041
 8147 003a BD42     		cmp	r5, r7
 8148 003c 09D2     		bcs	.L177
2093:Drivers/LCD_FMC/src/tftLCD.c ****         LCD_WriteRAM_Prepare();     //开始写入GRAM
 8149              		.loc 1 2093 9 view .LVU2042
 8150 003e 05EB0801 		add	r1, r5, r8
 8151 0042 89B2     		uxth	r1, r1
 8152 0044 4846     		mov	r0, r9
 8153 0046 FFF7FEFF 		bl	LCD_SetCursor
 8154              	.LVL1533:
2094:Drivers/LCD_FMC/src/tftLCD.c ****         for (j = 0; j < width; j++)
 8155              		.loc 1 2094 9 view .LVU2043
 8156 004a FFF7FEFF 		bl	LCD_WriteRAM_Prepare
 8157              	.LVL1534:
2095:Drivers/LCD_FMC/src/tftLCD.c ****         {
 8158              		.loc 1 2095 9 view .LVU2044
2095:Drivers/LCD_FMC/src/tftLCD.c ****         {
 8159              		.loc 1 2095 16 is_stmt 0 view .LVU2045
 8160 004e 0023     		movs	r3, #0
2095:Drivers/LCD_FMC/src/tftLCD.c ****         {
 8161              		.loc 1 2095 9 view .LVU2046
 8162 0050 EFE7     		b	.L173
 8163              	.LVL1535:
 8164              	.L177:
2098:Drivers/LCD_FMC/src/tftLCD.c ****         }
2099:Drivers/LCD_FMC/src/tftLCD.c ****     }
2100:Drivers/LCD_FMC/src/tftLCD.c **** }
 8165              		.loc 1 2100 1 view .LVU2047
 8166 0052 BDE8F883 		pop	{r3, r4, r5, r6, r7, r8, r9, pc}
 8167              		.loc 1 2100 1 view .LVU2048
 8168              		.cfi_endproc
 8169              	.LFE356:
 8171              		.section	.text.LCD_DrawLine,"ax",%progbits
 8172              		.align	1
 8173              		.global	LCD_DrawLine
 8174              		.syntax unified
 8175              		.thumb
 8176              		.thumb_func
 8178              	LCD_DrawLine:
 8179              	.LVL1536:
 8180              	.LFB357:
2101:Drivers/LCD_FMC/src/tftLCD.c **** 
2102:Drivers/LCD_FMC/src/tftLCD.c **** //画线
2103:Drivers/LCD_FMC/src/tftLCD.c **** //x1,y1:起点坐标
2104:Drivers/LCD_FMC/src/tftLCD.c **** //x2,y2:终点坐标
2105:Drivers/LCD_FMC/src/tftLCD.c **** void LCD_DrawLine(uint16_t x1, uint16_t y1, uint16_t x2, uint16_t y2)
2106:Drivers/LCD_FMC/src/tftLCD.c **** {
 8181              		.loc 1 2106 1 is_stmt 1 view -0
 8182              		.cfi_startproc
 8183              		@ args = 0, pretend = 0, frame = 8
 8184              		@ frame_needed = 0, uses_anonymous_args = 0
 8185              		.loc 1 2106 1 is_stmt 0 view .LVU2050
 8186 0000 2DE9F04F 		push	{r4, r5, r6, r7, r8, r9, r10, fp, lr}
 8187              	.LCFI24:
ARM GAS  C:\usertemp\ccUDQ5mr.s 			page 211


 8188              		.cfi_def_cfa_offset 36
 8189              		.cfi_offset 4, -36
 8190              		.cfi_offset 5, -32
 8191              		.cfi_offset 6, -28
 8192              		.cfi_offset 7, -24
 8193              		.cfi_offset 8, -20
 8194              		.cfi_offset 9, -16
 8195              		.cfi_offset 10, -12
 8196              		.cfi_offset 11, -8
 8197              		.cfi_offset 14, -4
 8198 0004 83B0     		sub	sp, sp, #12
 8199              	.LCFI25:
 8200              		.cfi_def_cfa_offset 48
2107:Drivers/LCD_FMC/src/tftLCD.c ****     uint16_t t;
 8201              		.loc 1 2107 5 is_stmt 1 view .LVU2051
2108:Drivers/LCD_FMC/src/tftLCD.c ****     int xerr = 0, yerr = 0, delta_x, delta_y, distance;
 8202              		.loc 1 2108 5 view .LVU2052
 8203              	.LVL1537:
2109:Drivers/LCD_FMC/src/tftLCD.c ****     int incx, incy, uRow, uCol;
 8204              		.loc 1 2109 5 view .LVU2053
2110:Drivers/LCD_FMC/src/tftLCD.c ****     delta_x = x2 - x1;              //计算坐标增量
 8205              		.loc 1 2110 5 view .LVU2054
 8206              		.loc 1 2110 18 is_stmt 0 view .LVU2055
 8207 0006 8046     		mov	r8, r0
 8208              		.loc 1 2110 13 view .LVU2056
 8209 0008 A2EB000A 		sub	r10, r2, r0
 8210              	.LVL1538:
2111:Drivers/LCD_FMC/src/tftLCD.c ****     delta_y = y2 - y1;
 8211              		.loc 1 2111 5 is_stmt 1 view .LVU2057
 8212              		.loc 1 2111 18 is_stmt 0 view .LVU2058
 8213 000c 8946     		mov	r9, r1
 8214              		.loc 1 2111 13 view .LVU2059
 8215 000e A3EB010B 		sub	fp, r3, r1
 8216              	.LVL1539:
2112:Drivers/LCD_FMC/src/tftLCD.c ****     uRow = x1;
 8217              		.loc 1 2112 5 is_stmt 1 view .LVU2060
2113:Drivers/LCD_FMC/src/tftLCD.c ****     uCol = y1;
 8218              		.loc 1 2113 5 view .LVU2061
2114:Drivers/LCD_FMC/src/tftLCD.c **** 
2115:Drivers/LCD_FMC/src/tftLCD.c ****     if (delta_x > 0)incx = 1;       //设置单步方向
 8219              		.loc 1 2115 5 view .LVU2062
 8220              		.loc 1 2115 8 is_stmt 0 view .LVU2063
 8221 0012 BAF1000F 		cmp	r10, #0
 8222 0016 0DDD     		ble	.L192
 8223              		.loc 1 2115 26 discriminator 1 view .LVU2064
 8224 0018 0122     		movs	r2, #1
 8225              	.LVL1540:
 8226              		.loc 1 2115 26 discriminator 1 view .LVU2065
 8227 001a 0092     		str	r2, [sp]
 8228              	.L179:
 8229              	.LVL1541:
2116:Drivers/LCD_FMC/src/tftLCD.c ****     else if (delta_x == 0)incx = 0; //垂直线
2117:Drivers/LCD_FMC/src/tftLCD.c ****     else
2118:Drivers/LCD_FMC/src/tftLCD.c ****     {
2119:Drivers/LCD_FMC/src/tftLCD.c ****         incx = -1;
2120:Drivers/LCD_FMC/src/tftLCD.c ****         delta_x = -delta_x;
2121:Drivers/LCD_FMC/src/tftLCD.c ****     }
ARM GAS  C:\usertemp\ccUDQ5mr.s 			page 212


2122:Drivers/LCD_FMC/src/tftLCD.c **** 
2123:Drivers/LCD_FMC/src/tftLCD.c ****     if (delta_y > 0)incy = 1;
 8230              		.loc 1 2123 5 is_stmt 1 view .LVU2066
 8231              		.loc 1 2123 8 is_stmt 0 view .LVU2067
 8232 001c BBF1000F 		cmp	fp, #0
 8233 0020 14DD     		ble	.L193
 8234              		.loc 1 2123 26 discriminator 1 view .LVU2068
 8235 0022 0123     		movs	r3, #1
 8236              	.LVL1542:
 8237              		.loc 1 2123 26 discriminator 1 view .LVU2069
 8238 0024 0193     		str	r3, [sp, #4]
 8239              	.L180:
 8240              	.LVL1543:
2124:Drivers/LCD_FMC/src/tftLCD.c ****     else if (delta_y == 0)incy = 0; //水平线
2125:Drivers/LCD_FMC/src/tftLCD.c ****     else
2126:Drivers/LCD_FMC/src/tftLCD.c ****     {
2127:Drivers/LCD_FMC/src/tftLCD.c ****         incy = -1;
2128:Drivers/LCD_FMC/src/tftLCD.c ****         delta_y = -delta_y;
2129:Drivers/LCD_FMC/src/tftLCD.c ****     }
2130:Drivers/LCD_FMC/src/tftLCD.c **** 
2131:Drivers/LCD_FMC/src/tftLCD.c ****     if ( delta_x > delta_y)distance = delta_x; //选取基本增量坐标轴
 8241              		.loc 1 2131 5 is_stmt 1 view .LVU2070
 8242              		.loc 1 2131 8 is_stmt 0 view .LVU2071
 8243 0026 DA45     		cmp	r10, fp
 8244 0028 1CDD     		ble	.L190
 8245              		.loc 1 2131 37 discriminator 1 view .LVU2072
 8246 002a 5646     		mov	r6, r10
 8247              	.L181:
 8248              	.LVL1544:
2132:Drivers/LCD_FMC/src/tftLCD.c ****     else distance = delta_y;
2133:Drivers/LCD_FMC/src/tftLCD.c **** 
2134:Drivers/LCD_FMC/src/tftLCD.c ****     for (t = 0; t <= distance + 1; t++ )    //画线输出
 8249              		.loc 1 2134 5 is_stmt 1 view .LVU2073
2108:Drivers/LCD_FMC/src/tftLCD.c ****     int incx, incy, uRow, uCol;
 8250              		.loc 1 2108 19 is_stmt 0 view .LVU2074
 8251 002c 0025     		movs	r5, #0
2108:Drivers/LCD_FMC/src/tftLCD.c ****     int incx, incy, uRow, uCol;
 8252              		.loc 1 2108 9 view .LVU2075
 8253 002e 2F46     		mov	r7, r5
 8254              		.loc 1 2134 12 view .LVU2076
 8255 0030 2C46     		mov	r4, r5
 8256              		.loc 1 2134 5 view .LVU2077
 8257 0032 1BE0     		b	.L182
 8258              	.LVL1545:
 8259              	.L192:
2116:Drivers/LCD_FMC/src/tftLCD.c ****     else
 8260              		.loc 1 2116 10 is_stmt 1 view .LVU2078
2116:Drivers/LCD_FMC/src/tftLCD.c ****     else
 8261              		.loc 1 2116 13 is_stmt 0 view .LVU2079
 8262 0034 BAF1000F 		cmp	r10, #0
 8263 0038 05D0     		beq	.L187
2119:Drivers/LCD_FMC/src/tftLCD.c ****         delta_x = -delta_x;
 8264              		.loc 1 2119 9 is_stmt 1 view .LVU2080
 8265              	.LVL1546:
2120:Drivers/LCD_FMC/src/tftLCD.c ****     }
 8266              		.loc 1 2120 9 view .LVU2081
2120:Drivers/LCD_FMC/src/tftLCD.c ****     }
ARM GAS  C:\usertemp\ccUDQ5mr.s 			page 213


 8267              		.loc 1 2120 17 is_stmt 0 view .LVU2082
 8268 003a A0EB020A 		sub	r10, r0, r2
 8269              	.LVL1547:
2119:Drivers/LCD_FMC/src/tftLCD.c ****         delta_x = -delta_x;
 8270              		.loc 1 2119 14 view .LVU2083
 8271 003e 4FF0FF32 		mov	r2, #-1
 8272              	.LVL1548:
2119:Drivers/LCD_FMC/src/tftLCD.c ****         delta_x = -delta_x;
 8273              		.loc 1 2119 14 view .LVU2084
 8274 0042 0092     		str	r2, [sp]
 8275 0044 EAE7     		b	.L179
 8276              	.LVL1549:
 8277              	.L187:
2116:Drivers/LCD_FMC/src/tftLCD.c ****     else
 8278              		.loc 1 2116 32 discriminator 1 view .LVU2085
 8279 0046 CDF800A0 		str	r10, [sp]
 8280 004a E7E7     		b	.L179
 8281              	.LVL1550:
 8282              	.L193:
2124:Drivers/LCD_FMC/src/tftLCD.c ****     else
 8283              		.loc 1 2124 10 is_stmt 1 view .LVU2086
2124:Drivers/LCD_FMC/src/tftLCD.c ****     else
 8284              		.loc 1 2124 13 is_stmt 0 view .LVU2087
 8285 004c BBF1000F 		cmp	fp, #0
 8286 0050 05D0     		beq	.L189
2127:Drivers/LCD_FMC/src/tftLCD.c ****         delta_y = -delta_y;
 8287              		.loc 1 2127 9 is_stmt 1 view .LVU2088
 8288              	.LVL1551:
2128:Drivers/LCD_FMC/src/tftLCD.c ****     }
 8289              		.loc 1 2128 9 view .LVU2089
2128:Drivers/LCD_FMC/src/tftLCD.c ****     }
 8290              		.loc 1 2128 17 is_stmt 0 view .LVU2090
 8291 0052 A1EB030B 		sub	fp, r1, r3
 8292              	.LVL1552:
2127:Drivers/LCD_FMC/src/tftLCD.c ****         delta_y = -delta_y;
 8293              		.loc 1 2127 14 view .LVU2091
 8294 0056 4FF0FF33 		mov	r3, #-1
 8295              	.LVL1553:
2127:Drivers/LCD_FMC/src/tftLCD.c ****         delta_y = -delta_y;
 8296              		.loc 1 2127 14 view .LVU2092
 8297 005a 0193     		str	r3, [sp, #4]
 8298 005c E3E7     		b	.L180
 8299              	.LVL1554:
 8300              	.L189:
2124:Drivers/LCD_FMC/src/tftLCD.c ****     else
 8301              		.loc 1 2124 32 discriminator 1 view .LVU2093
 8302 005e CDF804B0 		str	fp, [sp, #4]
 8303 0062 E0E7     		b	.L180
 8304              	.LVL1555:
 8305              	.L190:
2132:Drivers/LCD_FMC/src/tftLCD.c **** 
 8306              		.loc 1 2132 19 view .LVU2094
 8307 0064 5E46     		mov	r6, fp
 8308 0066 E1E7     		b	.L181
 8309              	.LVL1556:
 8310              	.L184:
 8311              		.loc 1 2134 37 is_stmt 1 discriminator 2 view .LVU2095
ARM GAS  C:\usertemp\ccUDQ5mr.s 			page 214


 8312 0068 0134     		adds	r4, r4, #1
 8313              	.LVL1557:
 8314              		.loc 1 2134 37 is_stmt 0 discriminator 2 view .LVU2096
 8315 006a A4B2     		uxth	r4, r4
 8316              	.LVL1558:
 8317              	.L182:
 8318              		.loc 1 2134 19 is_stmt 1 discriminator 1 view .LVU2097
 8319              		.loc 1 2134 31 is_stmt 0 discriminator 1 view .LVU2098
 8320 006c 731C     		adds	r3, r6, #1
 8321              		.loc 1 2134 19 discriminator 1 view .LVU2099
 8322 006e 9C42     		cmp	r4, r3
 8323 0070 12DC     		bgt	.L194
2135:Drivers/LCD_FMC/src/tftLCD.c ****     {
2136:Drivers/LCD_FMC/src/tftLCD.c ****         LCD_DrawPoint(uRow, uCol); //画点
 8324              		.loc 1 2136 9 is_stmt 1 view .LVU2100
 8325 0072 1FFA89F1 		uxth	r1, r9
 8326 0076 1FFA88F0 		uxth	r0, r8
 8327 007a FFF7FEFF 		bl	LCD_DrawPoint
 8328              	.LVL1559:
2137:Drivers/LCD_FMC/src/tftLCD.c ****         xerr += delta_x ;
 8329              		.loc 1 2137 9 view .LVU2101
 8330              		.loc 1 2137 14 is_stmt 0 view .LVU2102
 8331 007e 5744     		add	r7, r7, r10
 8332              	.LVL1560:
2138:Drivers/LCD_FMC/src/tftLCD.c ****         yerr += delta_y ;
 8333              		.loc 1 2138 9 is_stmt 1 view .LVU2103
 8334              		.loc 1 2138 14 is_stmt 0 view .LVU2104
 8335 0080 5D44     		add	r5, r5, fp
 8336              	.LVL1561:
2139:Drivers/LCD_FMC/src/tftLCD.c **** 
2140:Drivers/LCD_FMC/src/tftLCD.c ****         if (xerr > distance)
 8337              		.loc 1 2140 9 is_stmt 1 view .LVU2105
 8338              		.loc 1 2140 12 is_stmt 0 view .LVU2106
 8339 0082 BE42     		cmp	r6, r7
 8340 0084 02DA     		bge	.L183
2141:Drivers/LCD_FMC/src/tftLCD.c ****         {
2142:Drivers/LCD_FMC/src/tftLCD.c ****             xerr -= distance;
 8341              		.loc 1 2142 13 is_stmt 1 view .LVU2107
 8342              		.loc 1 2142 18 is_stmt 0 view .LVU2108
 8343 0086 BF1B     		subs	r7, r7, r6
 8344              	.LVL1562:
2143:Drivers/LCD_FMC/src/tftLCD.c ****             uRow += incx;
 8345              		.loc 1 2143 13 is_stmt 1 view .LVU2109
 8346              		.loc 1 2143 18 is_stmt 0 view .LVU2110
 8347 0088 009B     		ldr	r3, [sp]
 8348 008a 9844     		add	r8, r8, r3
 8349              	.LVL1563:
 8350              	.L183:
2144:Drivers/LCD_FMC/src/tftLCD.c ****         }
2145:Drivers/LCD_FMC/src/tftLCD.c **** 
2146:Drivers/LCD_FMC/src/tftLCD.c ****         if (yerr > distance)
 8351              		.loc 1 2146 9 is_stmt 1 view .LVU2111
 8352              		.loc 1 2146 12 is_stmt 0 view .LVU2112
 8353 008c AE42     		cmp	r6, r5
 8354 008e EBDA     		bge	.L184
2147:Drivers/LCD_FMC/src/tftLCD.c ****         {
2148:Drivers/LCD_FMC/src/tftLCD.c ****             yerr -= distance;
ARM GAS  C:\usertemp\ccUDQ5mr.s 			page 215


 8355              		.loc 1 2148 13 is_stmt 1 view .LVU2113
 8356              		.loc 1 2148 18 is_stmt 0 view .LVU2114
 8357 0090 AD1B     		subs	r5, r5, r6
 8358              	.LVL1564:
2149:Drivers/LCD_FMC/src/tftLCD.c ****             uCol += incy;
 8359              		.loc 1 2149 13 is_stmt 1 view .LVU2115
 8360              		.loc 1 2149 18 is_stmt 0 view .LVU2116
 8361 0092 019B     		ldr	r3, [sp, #4]
 8362 0094 9944     		add	r9, r9, r3
 8363              	.LVL1565:
 8364              		.loc 1 2149 18 view .LVU2117
 8365 0096 E7E7     		b	.L184
 8366              	.L194:
2150:Drivers/LCD_FMC/src/tftLCD.c ****         }
2151:Drivers/LCD_FMC/src/tftLCD.c ****     }
2152:Drivers/LCD_FMC/src/tftLCD.c **** }
 8367              		.loc 1 2152 1 view .LVU2118
 8368 0098 03B0     		add	sp, sp, #12
 8369              	.LCFI26:
 8370              		.cfi_def_cfa_offset 36
 8371              	.LVL1566:
 8372              		.loc 1 2152 1 view .LVU2119
 8373              		@ sp needed
 8374 009a BDE8F08F 		pop	{r4, r5, r6, r7, r8, r9, r10, fp, pc}
 8375              		.loc 1 2152 1 view .LVU2120
 8376              		.cfi_endproc
 8377              	.LFE357:
 8379              		.section	.text.LCD_DrawRectangle,"ax",%progbits
 8380              		.align	1
 8381              		.global	LCD_DrawRectangle
 8382              		.syntax unified
 8383              		.thumb
 8384              		.thumb_func
 8386              	LCD_DrawRectangle:
 8387              	.LVL1567:
 8388              	.LFB358:
2153:Drivers/LCD_FMC/src/tftLCD.c **** 
2154:Drivers/LCD_FMC/src/tftLCD.c **** //画矩形
2155:Drivers/LCD_FMC/src/tftLCD.c **** //(x1,y1),(x2,y2):矩形的对角坐标
2156:Drivers/LCD_FMC/src/tftLCD.c **** void LCD_DrawRectangle(uint16_t x1, uint16_t y1, uint16_t x2, uint16_t y2)
2157:Drivers/LCD_FMC/src/tftLCD.c **** {
 8389              		.loc 1 2157 1 is_stmt 1 view -0
 8390              		.cfi_startproc
 8391              		@ args = 0, pretend = 0, frame = 0
 8392              		@ frame_needed = 0, uses_anonymous_args = 0
 8393              		.loc 1 2157 1 is_stmt 0 view .LVU2122
 8394 0000 F8B5     		push	{r3, r4, r5, r6, r7, lr}
 8395              	.LCFI27:
 8396              		.cfi_def_cfa_offset 24
 8397              		.cfi_offset 3, -24
 8398              		.cfi_offset 4, -20
 8399              		.cfi_offset 5, -16
 8400              		.cfi_offset 6, -12
 8401              		.cfi_offset 7, -8
 8402              		.cfi_offset 14, -4
 8403 0002 0746     		mov	r7, r0
 8404 0004 0E46     		mov	r6, r1
ARM GAS  C:\usertemp\ccUDQ5mr.s 			page 216


 8405 0006 1546     		mov	r5, r2
 8406 0008 1C46     		mov	r4, r3
2158:Drivers/LCD_FMC/src/tftLCD.c ****     LCD_DrawLine(x1,y1,x2,y1);
 8407              		.loc 1 2158 5 is_stmt 1 view .LVU2123
 8408 000a 0B46     		mov	r3, r1
 8409              	.LVL1568:
 8410              		.loc 1 2158 5 is_stmt 0 view .LVU2124
 8411 000c FFF7FEFF 		bl	LCD_DrawLine
 8412              	.LVL1569:
2159:Drivers/LCD_FMC/src/tftLCD.c ****     LCD_DrawLine(x1,y1,x1,y2);
 8413              		.loc 1 2159 5 is_stmt 1 view .LVU2125
 8414 0010 2346     		mov	r3, r4
 8415 0012 3A46     		mov	r2, r7
 8416 0014 3146     		mov	r1, r6
 8417 0016 3846     		mov	r0, r7
 8418 0018 FFF7FEFF 		bl	LCD_DrawLine
 8419              	.LVL1570:
2160:Drivers/LCD_FMC/src/tftLCD.c ****     LCD_DrawLine(x1,y2,x2,y2);
 8420              		.loc 1 2160 5 view .LVU2126
 8421 001c 2346     		mov	r3, r4
 8422 001e 2A46     		mov	r2, r5
 8423 0020 2146     		mov	r1, r4
 8424 0022 3846     		mov	r0, r7
 8425 0024 FFF7FEFF 		bl	LCD_DrawLine
 8426              	.LVL1571:
2161:Drivers/LCD_FMC/src/tftLCD.c ****     LCD_DrawLine(x2,y1,x2,y2);
 8427              		.loc 1 2161 5 view .LVU2127
 8428 0028 2346     		mov	r3, r4
 8429 002a 2A46     		mov	r2, r5
 8430 002c 3146     		mov	r1, r6
 8431 002e 2846     		mov	r0, r5
 8432 0030 FFF7FEFF 		bl	LCD_DrawLine
 8433              	.LVL1572:
2162:Drivers/LCD_FMC/src/tftLCD.c **** }
 8434              		.loc 1 2162 1 is_stmt 0 view .LVU2128
 8435 0034 F8BD     		pop	{r3, r4, r5, r6, r7, pc}
 8436              		.loc 1 2162 1 view .LVU2129
 8437              		.cfi_endproc
 8438              	.LFE358:
 8440              		.section	.text.LCD_Draw_Circle,"ax",%progbits
 8441              		.align	1
 8442              		.global	LCD_Draw_Circle
 8443              		.syntax unified
 8444              		.thumb
 8445              		.thumb_func
 8447              	LCD_Draw_Circle:
 8448              	.LVL1573:
 8449              	.LFB359:
2163:Drivers/LCD_FMC/src/tftLCD.c **** 
2164:Drivers/LCD_FMC/src/tftLCD.c **** //在指定位置画一个指定大小的圆
2165:Drivers/LCD_FMC/src/tftLCD.c **** //(x,y):中心点
2166:Drivers/LCD_FMC/src/tftLCD.c **** //r    :半径
2167:Drivers/LCD_FMC/src/tftLCD.c **** void LCD_Draw_Circle(uint16_t x0,uint16_t y0,uint8_t r)
2168:Drivers/LCD_FMC/src/tftLCD.c **** {
 8450              		.loc 1 2168 1 is_stmt 1 view -0
 8451              		.cfi_startproc
 8452              		@ args = 0, pretend = 0, frame = 16
ARM GAS  C:\usertemp\ccUDQ5mr.s 			page 217


 8453              		@ frame_needed = 0, uses_anonymous_args = 0
 8454              		.loc 1 2168 1 is_stmt 0 view .LVU2131
 8455 0000 2DE9F04F 		push	{r4, r5, r6, r7, r8, r9, r10, fp, lr}
 8456              	.LCFI28:
 8457              		.cfi_def_cfa_offset 36
 8458              		.cfi_offset 4, -36
 8459              		.cfi_offset 5, -32
 8460              		.cfi_offset 6, -28
 8461              		.cfi_offset 7, -24
 8462              		.cfi_offset 8, -20
 8463              		.cfi_offset 9, -16
 8464              		.cfi_offset 10, -12
 8465              		.cfi_offset 11, -8
 8466              		.cfi_offset 14, -4
 8467 0004 85B0     		sub	sp, sp, #20
 8468              	.LCFI29:
 8469              		.cfi_def_cfa_offset 56
 8470 0006 8046     		mov	r8, r0
 8471 0008 0F46     		mov	r7, r1
 8472 000a 0092     		str	r2, [sp]
2169:Drivers/LCD_FMC/src/tftLCD.c ****     int a, b;
 8473              		.loc 1 2169 5 is_stmt 1 view .LVU2132
2170:Drivers/LCD_FMC/src/tftLCD.c ****     int di;
 8474              		.loc 1 2170 5 view .LVU2133
2171:Drivers/LCD_FMC/src/tftLCD.c ****     a = 0;
 8475              		.loc 1 2171 5 view .LVU2134
 8476              	.LVL1574:
2172:Drivers/LCD_FMC/src/tftLCD.c ****     b = r;
 8477              		.loc 1 2172 5 view .LVU2135
2173:Drivers/LCD_FMC/src/tftLCD.c ****     di = 3 - (r << 1);       //判断下个点位置的标志
 8478              		.loc 1 2173 5 view .LVU2136
 8479              		.loc 1 2173 17 is_stmt 0 view .LVU2137
 8480 000c 5300     		lsls	r3, r2, #1
 8481              		.loc 1 2173 8 view .LVU2138
 8482 000e C3F10303 		rsb	r3, r3, #3
 8483 0012 0193     		str	r3, [sp, #4]
 8484              	.LVL1575:
2174:Drivers/LCD_FMC/src/tftLCD.c **** 
2175:Drivers/LCD_FMC/src/tftLCD.c ****     while (a <= b)
 8485              		.loc 1 2175 5 is_stmt 1 view .LVU2139
2171:Drivers/LCD_FMC/src/tftLCD.c ****     b = r;
 8486              		.loc 1 2171 7 is_stmt 0 view .LVU2140
 8487 0014 0026     		movs	r6, #0
 8488              		.loc 1 2175 11 view .LVU2141
 8489 0016 08E0     		b	.L198
 8490              	.LVL1576:
 8491              	.L199:
2176:Drivers/LCD_FMC/src/tftLCD.c ****     {
2177:Drivers/LCD_FMC/src/tftLCD.c ****         LCD_DrawPoint(x0 + a, y0 - b);        //5
2178:Drivers/LCD_FMC/src/tftLCD.c ****         LCD_DrawPoint(x0 + b, y0 - a);        //0
2179:Drivers/LCD_FMC/src/tftLCD.c ****         LCD_DrawPoint(x0 + b, y0 + a);        //4
2180:Drivers/LCD_FMC/src/tftLCD.c ****         LCD_DrawPoint(x0 + a, y0 + b);        //6
2181:Drivers/LCD_FMC/src/tftLCD.c ****         LCD_DrawPoint(x0 - a, y0 + b);        //1
2182:Drivers/LCD_FMC/src/tftLCD.c ****         LCD_DrawPoint(x0 - b, y0 + a);
2183:Drivers/LCD_FMC/src/tftLCD.c ****         LCD_DrawPoint(x0 - a, y0 - b);        //2
2184:Drivers/LCD_FMC/src/tftLCD.c ****         LCD_DrawPoint(x0 - b, y0 - a);        //7
2185:Drivers/LCD_FMC/src/tftLCD.c ****         a++;
ARM GAS  C:\usertemp\ccUDQ5mr.s 			page 218


2186:Drivers/LCD_FMC/src/tftLCD.c **** 
2187:Drivers/LCD_FMC/src/tftLCD.c ****         //使用Bresenham算法画圆
2188:Drivers/LCD_FMC/src/tftLCD.c ****         if (di < 0)di += 4 * a + 6;
2189:Drivers/LCD_FMC/src/tftLCD.c ****         else
2190:Drivers/LCD_FMC/src/tftLCD.c ****         {
2191:Drivers/LCD_FMC/src/tftLCD.c ****             di += 10 + 4 * (a - b);
 8492              		.loc 1 2191 13 is_stmt 1 view .LVU2142
 8493              		.loc 1 2191 31 is_stmt 0 view .LVU2143
 8494 0018 009A     		ldr	r2, [sp]
 8495 001a B31A     		subs	r3, r6, r2
 8496              		.loc 1 2191 26 view .LVU2144
 8497 001c 9B00     		lsls	r3, r3, #2
 8498              		.loc 1 2191 22 view .LVU2145
 8499 001e 0A33     		adds	r3, r3, #10
 8500              		.loc 1 2191 16 view .LVU2146
 8501 0020 0199     		ldr	r1, [sp, #4]
 8502 0022 1944     		add	r1, r1, r3
 8503 0024 0191     		str	r1, [sp, #4]
 8504              	.LVL1577:
2192:Drivers/LCD_FMC/src/tftLCD.c ****             b--;
 8505              		.loc 1 2192 13 is_stmt 1 view .LVU2147
 8506              		.loc 1 2192 14 is_stmt 0 view .LVU2148
 8507 0026 531E     		subs	r3, r2, #1
 8508 0028 0093     		str	r3, [sp]
 8509              	.LVL1578:
 8510              	.L198:
2175:Drivers/LCD_FMC/src/tftLCD.c ****     {
 8511              		.loc 1 2175 14 is_stmt 1 view .LVU2149
 8512 002a 009B     		ldr	r3, [sp]
 8513 002c 9E42     		cmp	r6, r3
 8514 002e 47DC     		bgt	.L203
2177:Drivers/LCD_FMC/src/tftLCD.c ****         LCD_DrawPoint(x0 + b, y0 - a);        //0
 8515              		.loc 1 2177 9 view .LVU2150
 8516 0030 B5B2     		uxth	r5, r6
 8517 0032 05EB080B 		add	fp, r5, r8
 8518 0036 1FFA8BFB 		uxth	fp, fp
 8519 003a BDF80040 		ldrh	r4, [sp]
 8520 003e 3B1B     		subs	r3, r7, r4
 8521 0040 9BB2     		uxth	r3, r3
 8522 0042 0293     		str	r3, [sp, #8]
 8523 0044 1946     		mov	r1, r3
 8524 0046 5846     		mov	r0, fp
 8525 0048 FFF7FEFF 		bl	LCD_DrawPoint
 8526              	.LVL1579:
2178:Drivers/LCD_FMC/src/tftLCD.c ****         LCD_DrawPoint(x0 + b, y0 + a);        //4
 8527              		.loc 1 2178 9 view .LVU2151
 8528 004c 04EB080A 		add	r10, r4, r8
 8529 0050 1FFA8AFA 		uxth	r10, r10
 8530 0054 7B1B     		subs	r3, r7, r5
 8531 0056 9AB2     		uxth	r2, r3
 8532 0058 0392     		str	r2, [sp, #12]
 8533 005a 1146     		mov	r1, r2
 8534 005c 5046     		mov	r0, r10
 8535 005e FFF7FEFF 		bl	LCD_DrawPoint
 8536              	.LVL1580:
2179:Drivers/LCD_FMC/src/tftLCD.c ****         LCD_DrawPoint(x0 + a, y0 + b);        //6
 8537              		.loc 1 2179 9 view .LVU2152
ARM GAS  C:\usertemp\ccUDQ5mr.s 			page 219


 8538 0062 05EB0709 		add	r9, r5, r7
 8539 0066 1FFA89F9 		uxth	r9, r9
 8540 006a 4946     		mov	r1, r9
 8541 006c 5046     		mov	r0, r10
 8542 006e FFF7FEFF 		bl	LCD_DrawPoint
 8543              	.LVL1581:
2180:Drivers/LCD_FMC/src/tftLCD.c ****         LCD_DrawPoint(x0 - a, y0 + b);        //1
 8544              		.loc 1 2180 9 view .LVU2153
 8545 0072 04EB070A 		add	r10, r4, r7
 8546 0076 1FFA8AFA 		uxth	r10, r10
 8547 007a 5146     		mov	r1, r10
 8548 007c 5846     		mov	r0, fp
 8549 007e FFF7FEFF 		bl	LCD_DrawPoint
 8550              	.LVL1582:
2181:Drivers/LCD_FMC/src/tftLCD.c ****         LCD_DrawPoint(x0 - b, y0 + a);
 8551              		.loc 1 2181 9 view .LVU2154
 8552 0082 A8EB0505 		sub	r5, r8, r5
 8553 0086 ADB2     		uxth	r5, r5
 8554 0088 5146     		mov	r1, r10
 8555 008a 2846     		mov	r0, r5
 8556 008c FFF7FEFF 		bl	LCD_DrawPoint
 8557              	.LVL1583:
2182:Drivers/LCD_FMC/src/tftLCD.c ****         LCD_DrawPoint(x0 - a, y0 - b);        //2
 8558              		.loc 1 2182 9 view .LVU2155
 8559 0090 A8EB0404 		sub	r4, r8, r4
 8560 0094 A4B2     		uxth	r4, r4
 8561 0096 4946     		mov	r1, r9
 8562 0098 2046     		mov	r0, r4
 8563 009a FFF7FEFF 		bl	LCD_DrawPoint
 8564              	.LVL1584:
2183:Drivers/LCD_FMC/src/tftLCD.c ****         LCD_DrawPoint(x0 - b, y0 - a);        //7
 8565              		.loc 1 2183 9 view .LVU2156
 8566 009e 0299     		ldr	r1, [sp, #8]
 8567 00a0 2846     		mov	r0, r5
 8568 00a2 FFF7FEFF 		bl	LCD_DrawPoint
 8569              	.LVL1585:
2184:Drivers/LCD_FMC/src/tftLCD.c ****         a++;
 8570              		.loc 1 2184 9 view .LVU2157
 8571 00a6 0399     		ldr	r1, [sp, #12]
 8572 00a8 2046     		mov	r0, r4
 8573 00aa FFF7FEFF 		bl	LCD_DrawPoint
 8574              	.LVL1586:
2185:Drivers/LCD_FMC/src/tftLCD.c **** 
 8575              		.loc 1 2185 9 view .LVU2158
2185:Drivers/LCD_FMC/src/tftLCD.c **** 
 8576              		.loc 1 2185 10 is_stmt 0 view .LVU2159
 8577 00ae 0136     		adds	r6, r6, #1
 8578              	.LVL1587:
2188:Drivers/LCD_FMC/src/tftLCD.c ****         else
 8579              		.loc 1 2188 9 is_stmt 1 view .LVU2160
2188:Drivers/LCD_FMC/src/tftLCD.c ****         else
 8580              		.loc 1 2188 12 is_stmt 0 view .LVU2161
 8581 00b0 019A     		ldr	r2, [sp, #4]
 8582 00b2 002A     		cmp	r2, #0
 8583 00b4 B0DA     		bge	.L199
2188:Drivers/LCD_FMC/src/tftLCD.c ****         else
 8584              		.loc 1 2188 20 is_stmt 1 discriminator 1 view .LVU2162
ARM GAS  C:\usertemp\ccUDQ5mr.s 			page 220


2188:Drivers/LCD_FMC/src/tftLCD.c ****         else
 8585              		.loc 1 2188 28 is_stmt 0 discriminator 1 view .LVU2163
 8586 00b6 B300     		lsls	r3, r6, #2
2188:Drivers/LCD_FMC/src/tftLCD.c ****         else
 8587              		.loc 1 2188 32 discriminator 1 view .LVU2164
 8588 00b8 0633     		adds	r3, r3, #6
2188:Drivers/LCD_FMC/src/tftLCD.c ****         else
 8589              		.loc 1 2188 23 discriminator 1 view .LVU2165
 8590 00ba 1A44     		add	r2, r2, r3
 8591 00bc 0192     		str	r2, [sp, #4]
 8592              	.LVL1588:
2188:Drivers/LCD_FMC/src/tftLCD.c ****         else
 8593              		.loc 1 2188 23 discriminator 1 view .LVU2166
 8594 00be B4E7     		b	.L198
 8595              	.LVL1589:
 8596              	.L203:
2193:Drivers/LCD_FMC/src/tftLCD.c ****         }
2194:Drivers/LCD_FMC/src/tftLCD.c ****     }
2195:Drivers/LCD_FMC/src/tftLCD.c **** }
 8597              		.loc 1 2195 1 view .LVU2167
 8598 00c0 05B0     		add	sp, sp, #20
 8599              	.LCFI30:
 8600              		.cfi_def_cfa_offset 36
 8601              		@ sp needed
 8602 00c2 BDE8F08F 		pop	{r4, r5, r6, r7, r8, r9, r10, fp, pc}
 8603              		.loc 1 2195 1 view .LVU2168
 8604              		.cfi_endproc
 8605              	.LFE359:
 8607              		.section	.text.LCD_ShowChar,"ax",%progbits
 8608              		.align	1
 8609              		.global	LCD_ShowChar
 8610              		.syntax unified
 8611              		.thumb
 8612              		.thumb_func
 8614              	LCD_ShowChar:
 8615              	.LVL1590:
 8616              	.LFB360:
2196:Drivers/LCD_FMC/src/tftLCD.c **** 
2197:Drivers/LCD_FMC/src/tftLCD.c **** //在指定位置显示一个字符
2198:Drivers/LCD_FMC/src/tftLCD.c **** //x,y:起始坐标
2199:Drivers/LCD_FMC/src/tftLCD.c **** //num:要显示的字符:" "--->"~"
2200:Drivers/LCD_FMC/src/tftLCD.c **** //size:字体大小 12/16/24/32
2201:Drivers/LCD_FMC/src/tftLCD.c **** //mode:叠加方式(1)还是非叠加方式(0)
2202:Drivers/LCD_FMC/src/tftLCD.c **** void LCD_ShowChar(uint16_t x,uint16_t y,uint8_t num,uint8_t size,uint8_t mode)
2203:Drivers/LCD_FMC/src/tftLCD.c **** {
 8617              		.loc 1 2203 1 is_stmt 1 view -0
 8618              		.cfi_startproc
 8619              		@ args = 4, pretend = 0, frame = 8
 8620              		@ frame_needed = 0, uses_anonymous_args = 0
 8621              		.loc 1 2203 1 is_stmt 0 view .LVU2170
 8622 0000 2DE9F04F 		push	{r4, r5, r6, r7, r8, r9, r10, fp, lr}
 8623              	.LCFI31:
 8624              		.cfi_def_cfa_offset 36
 8625              		.cfi_offset 4, -36
 8626              		.cfi_offset 5, -32
 8627              		.cfi_offset 6, -28
 8628              		.cfi_offset 7, -24
ARM GAS  C:\usertemp\ccUDQ5mr.s 			page 221


 8629              		.cfi_offset 8, -20
 8630              		.cfi_offset 9, -16
 8631              		.cfi_offset 10, -12
 8632              		.cfi_offset 11, -8
 8633              		.cfi_offset 14, -4
 8634 0004 83B0     		sub	sp, sp, #12
 8635              	.LCFI32:
 8636              		.cfi_def_cfa_offset 48
 8637 0006 8146     		mov	r9, r0
 8638 0008 8846     		mov	r8, r1
 8639 000a 1F46     		mov	r7, r3
 8640 000c 9DF830A0 		ldrb	r10, [sp, #48]	@ zero_extendqisi2
2204:Drivers/LCD_FMC/src/tftLCD.c ****     uint8_t temp,t1,t;
 8641              		.loc 1 2204 5 is_stmt 1 view .LVU2171
2205:Drivers/LCD_FMC/src/tftLCD.c ****     uint16_t y0=y;
 8642              		.loc 1 2205 5 view .LVU2172
 8643              	.LVL1591:
2206:Drivers/LCD_FMC/src/tftLCD.c ****     uint8_t csize=(size/8+((size%8)?1:0))*(size/2);		//得到字体一个字符对应点阵集所
 8644              		.loc 1 2206 5 view .LVU2173
 8645              		.loc 1 2206 38 is_stmt 0 view .LVU2174
 8646 0010 13F00703 		ands	r3, r3, #7
 8647              	.LVL1592:
 8648              		.loc 1 2206 38 view .LVU2175
 8649 0014 18BF     		it	ne
 8650 0016 0123     		movne	r3, #1
 8651              		.loc 1 2206 26 view .LVU2176
 8652 0018 03EBD703 		add	r3, r3, r7, lsr #3
 8653              		.loc 1 2206 13 view .LVU2177
 8654 001c 4FEA570B 		lsr	fp, r7, #1
 8655 0020 1BFB03FB 		smulbb	fp, fp, r3
 8656 0024 5FFA8BF3 		uxtb	r3, fp
 8657 0028 0193     		str	r3, [sp, #4]
 8658              	.LVL1593:
2207:Drivers/LCD_FMC/src/tftLCD.c ****     num=num-' ';//得到偏移后的值（ASCII字库是从空格开始取模，所以-' '就是对
 8659              		.loc 1 2207 5 is_stmt 1 view .LVU2178
 8660              		.loc 1 2207 8 is_stmt 0 view .LVU2179
 8661 002a 203A     		subs	r2, r2, #32
 8662              	.LVL1594:
 8663              		.loc 1 2207 8 view .LVU2180
 8664 002c D1B2     		uxtb	r1, r2
 8665              	.LVL1595:
2208:Drivers/LCD_FMC/src/tftLCD.c ****     for(t=0; t<csize; t++)
 8666              		.loc 1 2208 5 is_stmt 1 view .LVU2181
 8667              		.loc 1 2208 5 is_stmt 0 view .LVU2182
 8668 002e 4446     		mov	r4, r8
 8669              		.loc 1 2208 10 view .LVU2183
 8670 0030 4FF0000B 		mov	fp, #0
 8671              		.loc 1 2208 5 view .LVU2184
 8672 0034 56E0     		b	.L205
 8673              	.LVL1596:
 8674              	.L211:
2209:Drivers/LCD_FMC/src/tftLCD.c ****     {
2210:Drivers/LCD_FMC/src/tftLCD.c ****         if(size==12)temp=asc2_1206[num][t]; 	 	//调用1206字体
 8675              		.loc 1 2210 21 is_stmt 1 discriminator 1 view .LVU2185
 8676              		.loc 1 2210 25 is_stmt 0 discriminator 1 view .LVU2186
 8677 0036 01EB4100 		add	r0, r1, r1, lsl #1
 8678 003a 464B     		ldr	r3, .L225
ARM GAS  C:\usertemp\ccUDQ5mr.s 			page 222


 8679 003c 03EB8003 		add	r3, r3, r0, lsl #2
 8680 0040 13F80B50 		ldrb	r5, [r3, fp]	@ zero_extendqisi2
 8681              	.LVL1597:
 8682              	.L212:
2203:Drivers/LCD_FMC/src/tftLCD.c ****     uint8_t temp,t1,t;
 8683              		.loc 1 2203 1 view .LVU2187
 8684 0044 0026     		movs	r6, #0
 8685 0046 CDF800B0 		str	fp, [sp]
 8686 004a 8B46     		mov	fp, r1
 8687              	.LVL1598:
2203:Drivers/LCD_FMC/src/tftLCD.c ****     uint8_t temp,t1,t;
 8688              		.loc 1 2203 1 view .LVU2188
 8689 004c 27E0     		b	.L217
 8690              	.LVL1599:
 8691              	.L210:
2211:Drivers/LCD_FMC/src/tftLCD.c ****         else if(size==16)temp=asc2_1608[num][t];	//调用1608字体
 8692              		.loc 1 2211 26 is_stmt 1 discriminator 1 view .LVU2189
 8693              		.loc 1 2211 30 is_stmt 0 discriminator 1 view .LVU2190
 8694 004e 424B     		ldr	r3, .L225+4
 8695 0050 03EB0113 		add	r3, r3, r1, lsl #4
 8696 0054 13F80B50 		ldrb	r5, [r3, fp]	@ zero_extendqisi2
 8697              	.LVL1600:
 8698              		.loc 1 2211 30 discriminator 1 view .LVU2191
 8699 0058 F4E7     		b	.L212
 8700              	.LVL1601:
 8701              	.L209:
2212:Drivers/LCD_FMC/src/tftLCD.c ****         else if(size==24)temp=asc2_2412[num][t];	//调用2412字体
 8702              		.loc 1 2212 26 is_stmt 1 discriminator 1 view .LVU2192
 8703              		.loc 1 2212 30 is_stmt 0 discriminator 1 view .LVU2193
 8704 005a 01EBC100 		add	r0, r1, r1, lsl #3
 8705 005e 3F4B     		ldr	r3, .L225+8
 8706 0060 03EB8003 		add	r3, r3, r0, lsl #2
 8707 0064 13F80B50 		ldrb	r5, [r3, fp]	@ zero_extendqisi2
 8708              	.LVL1602:
 8709              		.loc 1 2212 30 discriminator 1 view .LVU2194
 8710 0068 ECE7     		b	.L212
 8711              	.LVL1603:
 8712              	.L207:
2213:Drivers/LCD_FMC/src/tftLCD.c ****         else if(size==32)temp=asc2_3216[num][t];	//调用3216字体
 8713              		.loc 1 2213 26 is_stmt 1 discriminator 1 view .LVU2195
 8714              		.loc 1 2213 30 is_stmt 0 discriminator 1 view .LVU2196
 8715 006a 3D4B     		ldr	r3, .L225+12
 8716 006c 03EBC113 		add	r3, r3, r1, lsl #7
 8717 0070 13F80B50 		ldrb	r5, [r3, fp]	@ zero_extendqisi2
 8718              	.LVL1604:
 8719              		.loc 1 2213 30 discriminator 1 view .LVU2197
 8720 0074 E6E7     		b	.L212
 8721              	.LVL1605:
 8722              	.L224:
2214:Drivers/LCD_FMC/src/tftLCD.c ****         else return;								//没有的字库
2215:Drivers/LCD_FMC/src/tftLCD.c ****         for(t1=0; t1<8; t1++)
2216:Drivers/LCD_FMC/src/tftLCD.c ****         {
2217:Drivers/LCD_FMC/src/tftLCD.c ****             if(temp&0x80)LCD_Fast_DrawPoint(x,y,POINT_COLOR);
 8723              		.loc 1 2217 26 is_stmt 1 discriminator 1 view .LVU2198
 8724 0076 3B4B     		ldr	r3, .L225+16
 8725 0078 1A68     		ldr	r2, [r3]
 8726 007a 2146     		mov	r1, r4
ARM GAS  C:\usertemp\ccUDQ5mr.s 			page 223


 8727 007c 4846     		mov	r0, r9
 8728 007e FFF7FEFF 		bl	LCD_Fast_DrawPoint
 8729              	.LVL1606:
 8730              	.L214:
2218:Drivers/LCD_FMC/src/tftLCD.c ****             else if(mode==0)LCD_Fast_DrawPoint(x,y,BACK_COLOR);
2219:Drivers/LCD_FMC/src/tftLCD.c ****             temp<<=1;
 8731              		.loc 1 2219 13 view .LVU2199
 8732              		.loc 1 2219 17 is_stmt 0 view .LVU2200
 8733 0082 6D00     		lsls	r5, r5, #1
 8734              	.LVL1607:
 8735              		.loc 1 2219 17 view .LVU2201
 8736 0084 EDB2     		uxtb	r5, r5
 8737              	.LVL1608:
2220:Drivers/LCD_FMC/src/tftLCD.c ****             y++;
 8738              		.loc 1 2220 13 is_stmt 1 view .LVU2202
 8739              		.loc 1 2220 14 is_stmt 0 view .LVU2203
 8740 0086 0134     		adds	r4, r4, #1
 8741              	.LVL1609:
 8742              		.loc 1 2220 14 view .LVU2204
 8743 0088 A4B2     		uxth	r4, r4
 8744              	.LVL1610:
2221:Drivers/LCD_FMC/src/tftLCD.c ****             if(y>=lcddev.height)return;		//超区域了
 8745              		.loc 1 2221 13 is_stmt 1 view .LVU2205
 8746              		.loc 1 2221 25 is_stmt 0 view .LVU2206
 8747 008a 374B     		ldr	r3, .L225+20
 8748 008c 5B88     		ldrh	r3, [r3, #2]
 8749              		.loc 1 2221 15 view .LVU2207
 8750 008e A342     		cmp	r3, r4
 8751 0090 5CD9     		bls	.L204
2222:Drivers/LCD_FMC/src/tftLCD.c ****             if((y-y0)==size)
 8752              		.loc 1 2222 13 is_stmt 1 view .LVU2208
 8753              		.loc 1 2222 18 is_stmt 0 view .LVU2209
 8754 0092 A4EB0803 		sub	r3, r4, r8
 8755              		.loc 1 2222 15 view .LVU2210
 8756 0096 BB42     		cmp	r3, r7
 8757 0098 10D0     		beq	.L222
2215:Drivers/LCD_FMC/src/tftLCD.c ****         {
 8758              		.loc 1 2215 27 is_stmt 1 discriminator 2 view .LVU2211
 8759 009a 0136     		adds	r6, r6, #1
 8760              	.LVL1611:
2215:Drivers/LCD_FMC/src/tftLCD.c ****         {
 8761              		.loc 1 2215 27 is_stmt 0 discriminator 2 view .LVU2212
 8762 009c F6B2     		uxtb	r6, r6
 8763              	.LVL1612:
 8764              	.L217:
2215:Drivers/LCD_FMC/src/tftLCD.c ****         {
 8765              		.loc 1 2215 21 is_stmt 1 discriminator 1 view .LVU2213
 8766 009e 072E     		cmp	r6, #7
 8767 00a0 19D8     		bhi	.L223
2217:Drivers/LCD_FMC/src/tftLCD.c ****             else if(mode==0)LCD_Fast_DrawPoint(x,y,BACK_COLOR);
 8768              		.loc 1 2217 13 view .LVU2214
2217:Drivers/LCD_FMC/src/tftLCD.c ****             else if(mode==0)LCD_Fast_DrawPoint(x,y,BACK_COLOR);
 8769              		.loc 1 2217 15 is_stmt 0 view .LVU2215
 8770 00a2 15F0800F 		tst	r5, #128
 8771 00a6 E6D1     		bne	.L224
2218:Drivers/LCD_FMC/src/tftLCD.c ****             temp<<=1;
 8772              		.loc 1 2218 18 is_stmt 1 view .LVU2216
ARM GAS  C:\usertemp\ccUDQ5mr.s 			page 224


2218:Drivers/LCD_FMC/src/tftLCD.c ****             temp<<=1;
 8773              		.loc 1 2218 20 is_stmt 0 view .LVU2217
 8774 00a8 BAF1000F 		cmp	r10, #0
 8775 00ac E9D1     		bne	.L214
2218:Drivers/LCD_FMC/src/tftLCD.c ****             temp<<=1;
 8776              		.loc 1 2218 29 is_stmt 1 discriminator 1 view .LVU2218
 8777 00ae 2F4B     		ldr	r3, .L225+24
 8778 00b0 1A68     		ldr	r2, [r3]
 8779 00b2 2146     		mov	r1, r4
 8780 00b4 4846     		mov	r0, r9
 8781 00b6 FFF7FEFF 		bl	LCD_Fast_DrawPoint
 8782              	.LVL1613:
 8783 00ba E2E7     		b	.L214
 8784              	.L222:
2223:Drivers/LCD_FMC/src/tftLCD.c ****             {
2224:Drivers/LCD_FMC/src/tftLCD.c ****                 y=y0;
2225:Drivers/LCD_FMC/src/tftLCD.c ****                 x++;
 8785              		.loc 1 2225 18 is_stmt 0 view .LVU2219
 8786 00bc 5946     		mov	r1, fp
 8787 00be DDF800B0 		ldr	fp, [sp]
 8788              	.LVL1614:
2224:Drivers/LCD_FMC/src/tftLCD.c ****                 x++;
 8789              		.loc 1 2224 17 is_stmt 1 view .LVU2220
 8790              		.loc 1 2225 17 view .LVU2221
 8791              		.loc 1 2225 18 is_stmt 0 view .LVU2222
 8792 00c2 09F10109 		add	r9, r9, #1
 8793              	.LVL1615:
 8794              		.loc 1 2225 18 view .LVU2223
 8795 00c6 1FFA89F9 		uxth	r9, r9
 8796              	.LVL1616:
2226:Drivers/LCD_FMC/src/tftLCD.c ****                 if(x>=lcddev.width)return;	//超区域了
 8797              		.loc 1 2226 17 is_stmt 1 view .LVU2224
 8798              		.loc 1 2226 29 is_stmt 0 view .LVU2225
 8799 00ca 274B     		ldr	r3, .L225+20
 8800 00cc 1B88     		ldrh	r3, [r3]
 8801              		.loc 1 2226 19 view .LVU2226
 8802 00ce 4B45     		cmp	r3, r9
 8803 00d0 3CD9     		bls	.L204
2224:Drivers/LCD_FMC/src/tftLCD.c ****                 x++;
 8804              		.loc 1 2224 18 view .LVU2227
 8805 00d2 4446     		mov	r4, r8
 8806 00d4 02E0     		b	.L216
 8807              	.LVL1617:
 8808              	.L223:
2224:Drivers/LCD_FMC/src/tftLCD.c ****                 x++;
 8809              		.loc 1 2224 18 view .LVU2228
 8810 00d6 5946     		mov	r1, fp
 8811 00d8 DDF800B0 		ldr	fp, [sp]
 8812              	.LVL1618:
 8813              	.L216:
2208:Drivers/LCD_FMC/src/tftLCD.c ****     {
 8814              		.loc 1 2208 24 is_stmt 1 discriminator 2 view .LVU2229
 8815 00dc 0BF10102 		add	r2, fp, #1
 8816 00e0 5FFA82FB 		uxtb	fp, r2
 8817              	.LVL1619:
 8818              	.L205:
2208:Drivers/LCD_FMC/src/tftLCD.c ****     {
ARM GAS  C:\usertemp\ccUDQ5mr.s 			page 225


 8819              		.loc 1 2208 15 discriminator 1 view .LVU2230
 8820 00e4 019B     		ldr	r3, [sp, #4]
 8821 00e6 9B45     		cmp	fp, r3
 8822 00e8 30D2     		bcs	.L204
2210:Drivers/LCD_FMC/src/tftLCD.c ****         else if(size==16)temp=asc2_1608[num][t];	//调用1608字体
 8823              		.loc 1 2210 9 view .LVU2231
 8824 00ea A7F10C03 		sub	r3, r7, #12
 8825 00ee 142B     		cmp	r3, #20
 8826 00f0 2CD8     		bhi	.L204
 8827 00f2 01A0     		adr	r0, .L208
 8828 00f4 50F823F0 		ldr	pc, [r0, r3, lsl #2]
 8829              		.p2align 2
 8830              	.L208:
 8831 00f8 37000000 		.word	.L211+1
 8832 00fc 4D010000 		.word	.L204+1
 8833 0100 4D010000 		.word	.L204+1
 8834 0104 4D010000 		.word	.L204+1
 8835 0108 4F000000 		.word	.L210+1
 8836 010c 4D010000 		.word	.L204+1
 8837 0110 4D010000 		.word	.L204+1
 8838 0114 4D010000 		.word	.L204+1
 8839 0118 4D010000 		.word	.L204+1
 8840 011c 4D010000 		.word	.L204+1
 8841 0120 4D010000 		.word	.L204+1
 8842 0124 4D010000 		.word	.L204+1
 8843 0128 5B000000 		.word	.L209+1
 8844 012c 4D010000 		.word	.L204+1
 8845 0130 4D010000 		.word	.L204+1
 8846 0134 4D010000 		.word	.L204+1
 8847 0138 4D010000 		.word	.L204+1
 8848 013c 4D010000 		.word	.L204+1
 8849 0140 4D010000 		.word	.L204+1
 8850 0144 4D010000 		.word	.L204+1
 8851 0148 6B000000 		.word	.L207+1
 8852              	.LVL1620:
 8853              		.p2align 1
 8854              	.L204:
2227:Drivers/LCD_FMC/src/tftLCD.c ****                 break;
2228:Drivers/LCD_FMC/src/tftLCD.c ****             }
2229:Drivers/LCD_FMC/src/tftLCD.c ****         }
2230:Drivers/LCD_FMC/src/tftLCD.c ****     }
2231:Drivers/LCD_FMC/src/tftLCD.c **** }
 8855              		.loc 1 2231 1 is_stmt 0 view .LVU2232
 8856 014c 03B0     		add	sp, sp, #12
 8857              	.LCFI33:
 8858              		.cfi_def_cfa_offset 36
 8859              		@ sp needed
 8860 014e BDE8F08F 		pop	{r4, r5, r6, r7, r8, r9, r10, fp, pc}
 8861              	.LVL1621:
 8862              	.L226:
 8863              		.loc 1 2231 1 view .LVU2233
 8864 0152 00BF     		.align	2
 8865              	.L225:
 8866 0154 00000000 		.word	asc2_1206
 8867 0158 00000000 		.word	asc2_1608
 8868 015c 00000000 		.word	asc2_2412
 8869 0160 00000000 		.word	asc2_3216
ARM GAS  C:\usertemp\ccUDQ5mr.s 			page 226


 8870 0164 00000000 		.word	POINT_COLOR
 8871 0168 00000000 		.word	lcddev
 8872 016c 00000000 		.word	BACK_COLOR
 8873              		.cfi_endproc
 8874              	.LFE360:
 8876              		.section	.text._LCD_Pow,"ax",%progbits
 8877              		.align	1
 8878              		.global	_LCD_Pow
 8879              		.syntax unified
 8880              		.thumb
 8881              		.thumb_func
 8883              	_LCD_Pow:
 8884              	.LVL1622:
 8885              	.LFB361:
2232:Drivers/LCD_FMC/src/tftLCD.c **** 
2233:Drivers/LCD_FMC/src/tftLCD.c **** //m^n函数，LCD显示数字内部使用
2234:Drivers/LCD_FMC/src/tftLCD.c **** //返回值:m^n次方.
2235:Drivers/LCD_FMC/src/tftLCD.c **** uint32_t _LCD_Pow(uint8_t m,uint8_t n)
2236:Drivers/LCD_FMC/src/tftLCD.c **** {
 8886              		.loc 1 2236 1 is_stmt 1 view -0
 8887              		.cfi_startproc
 8888              		@ args = 0, pretend = 0, frame = 0
 8889              		@ frame_needed = 0, uses_anonymous_args = 0
 8890              		@ link register save eliminated.
 8891              		.loc 1 2236 1 is_stmt 0 view .LVU2235
 8892 0000 0246     		mov	r2, r0
2237:Drivers/LCD_FMC/src/tftLCD.c ****     uint32_t result=1;
 8893              		.loc 1 2237 5 is_stmt 1 view .LVU2236
 8894              	.LVL1623:
2238:Drivers/LCD_FMC/src/tftLCD.c ****     while(n--)result*=m;
 8895              		.loc 1 2238 5 view .LVU2237
2237:Drivers/LCD_FMC/src/tftLCD.c ****     uint32_t result=1;
 8896              		.loc 1 2237 14 is_stmt 0 view .LVU2238
 8897 0002 0120     		movs	r0, #1
 8898              	.LVL1624:
 8899              		.loc 1 2238 10 view .LVU2239
 8900 0004 02E0     		b	.L228
 8901              	.LVL1625:
 8902              	.L229:
 8903              		.loc 1 2238 15 is_stmt 1 discriminator 2 view .LVU2240
 8904              		.loc 1 2238 21 is_stmt 0 discriminator 2 view .LVU2241
 8905 0006 02FB00F0 		mul	r0, r2, r0
 8906              	.LVL1626:
 8907              		.loc 1 2238 12 discriminator 1 view .LVU2242
 8908 000a 1946     		mov	r1, r3
 8909              	.LVL1627:
 8910              	.L228:
 8911              		.loc 1 2238 11 is_stmt 1 discriminator 1 view .LVU2243
 8912              		.loc 1 2238 12 is_stmt 0 discriminator 1 view .LVU2244
 8913 000c 4B1E     		subs	r3, r1, #1
 8914 000e DBB2     		uxtb	r3, r3
 8915              	.LVL1628:
 8916              		.loc 1 2238 11 discriminator 1 view .LVU2245
 8917 0010 0029     		cmp	r1, #0
 8918 0012 F8D1     		bne	.L229
2239:Drivers/LCD_FMC/src/tftLCD.c ****     return result;
 8919              		.loc 1 2239 5 is_stmt 1 view .LVU2246
ARM GAS  C:\usertemp\ccUDQ5mr.s 			page 227


2240:Drivers/LCD_FMC/src/tftLCD.c **** }
 8920              		.loc 1 2240 1 is_stmt 0 view .LVU2247
 8921 0014 7047     		bx	lr
 8922              		.cfi_endproc
 8923              	.LFE361:
 8925              		.section	.text.LCD_ShowNum,"ax",%progbits
 8926              		.align	1
 8927              		.global	LCD_ShowNum
 8928              		.syntax unified
 8929              		.thumb
 8930              		.thumb_func
 8932              	LCD_ShowNum:
 8933              	.LVL1629:
 8934              	.LFB362:
2241:Drivers/LCD_FMC/src/tftLCD.c **** 
2242:Drivers/LCD_FMC/src/tftLCD.c **** //显示数字,高位为0,则不显示
2243:Drivers/LCD_FMC/src/tftLCD.c **** //x,y :起点坐标
2244:Drivers/LCD_FMC/src/tftLCD.c **** //len :数字的位数
2245:Drivers/LCD_FMC/src/tftLCD.c **** //size:字体大小
2246:Drivers/LCD_FMC/src/tftLCD.c **** //color:颜色
2247:Drivers/LCD_FMC/src/tftLCD.c **** //num:数值(0~4294967295);
2248:Drivers/LCD_FMC/src/tftLCD.c **** void LCD_ShowNum(uint16_t x, uint16_t y, uint32_t num, uint8_t len, uint8_t size)
2249:Drivers/LCD_FMC/src/tftLCD.c **** {
 8935              		.loc 1 2249 1 is_stmt 1 view -0
 8936              		.cfi_startproc
 8937              		@ args = 4, pretend = 0, frame = 0
 8938              		@ frame_needed = 0, uses_anonymous_args = 0
 8939              		.loc 1 2249 1 is_stmt 0 view .LVU2249
 8940 0000 2DE9F047 		push	{r4, r5, r6, r7, r8, r9, r10, lr}
 8941              	.LCFI34:
 8942              		.cfi_def_cfa_offset 32
 8943              		.cfi_offset 4, -32
 8944              		.cfi_offset 5, -28
 8945              		.cfi_offset 6, -24
 8946              		.cfi_offset 7, -20
 8947              		.cfi_offset 8, -16
 8948              		.cfi_offset 9, -12
 8949              		.cfi_offset 10, -8
 8950              		.cfi_offset 14, -4
 8951 0004 82B0     		sub	sp, sp, #8
 8952              	.LCFI35:
 8953              		.cfi_def_cfa_offset 40
 8954 0006 8246     		mov	r10, r0
 8955 0008 8946     		mov	r9, r1
 8956 000a 9046     		mov	r8, r2
 8957 000c 1D46     		mov	r5, r3
 8958 000e 9DF82860 		ldrb	r6, [sp, #40]	@ zero_extendqisi2
2250:Drivers/LCD_FMC/src/tftLCD.c ****     uint8_t t, temp;
 8959              		.loc 1 2250 5 is_stmt 1 view .LVU2250
2251:Drivers/LCD_FMC/src/tftLCD.c ****     uint8_t enshow = 0;
 8960              		.loc 1 2251 5 view .LVU2251
 8961              	.LVL1630:
2252:Drivers/LCD_FMC/src/tftLCD.c **** 
2253:Drivers/LCD_FMC/src/tftLCD.c ****     for (t = 0; t < len; t++)
 8962              		.loc 1 2253 5 view .LVU2252
2251:Drivers/LCD_FMC/src/tftLCD.c ****     uint8_t enshow = 0;
 8963              		.loc 1 2251 13 is_stmt 0 view .LVU2253
ARM GAS  C:\usertemp\ccUDQ5mr.s 			page 228


 8964 0012 0027     		movs	r7, #0
 8965              		.loc 1 2253 12 view .LVU2254
 8966 0014 3C46     		mov	r4, r7
 8967              		.loc 1 2253 5 view .LVU2255
 8968 0016 19E0     		b	.L231
 8969              	.LVL1631:
 8970              	.L238:
2254:Drivers/LCD_FMC/src/tftLCD.c ****     {
2255:Drivers/LCD_FMC/src/tftLCD.c ****         temp = (num / _LCD_Pow(10, len - t - 1)) % 10;
2256:Drivers/LCD_FMC/src/tftLCD.c **** 
2257:Drivers/LCD_FMC/src/tftLCD.c ****         if (enshow == 0 && t < (len - 1))
2258:Drivers/LCD_FMC/src/tftLCD.c ****         {
2259:Drivers/LCD_FMC/src/tftLCD.c ****             if (temp == 0)
2260:Drivers/LCD_FMC/src/tftLCD.c ****             {
2261:Drivers/LCD_FMC/src/tftLCD.c ****                 LCD_ShowChar(x + (size / 2)*t, y, ' ', size, 0);
 8971              		.loc 1 2261 17 is_stmt 1 view .LVU2256
 8972              		.loc 1 2261 44 is_stmt 0 view .LVU2257
 8973 0018 7008     		lsrs	r0, r6, #1
 8974              		.loc 1 2261 17 view .LVU2258
 8975 001a 00FB04A0 		mla	r0, r0, r4, r10
 8976 001e 0023     		movs	r3, #0
 8977 0020 0093     		str	r3, [sp]
 8978 0022 3346     		mov	r3, r6
 8979 0024 2022     		movs	r2, #32
 8980              	.LVL1632:
 8981              		.loc 1 2261 17 view .LVU2259
 8982 0026 4946     		mov	r1, r9
 8983 0028 80B2     		uxth	r0, r0
 8984 002a FFF7FEFF 		bl	LCD_ShowChar
 8985              	.LVL1633:
2262:Drivers/LCD_FMC/src/tftLCD.c ****                 continue;
 8986              		.loc 1 2262 17 is_stmt 1 view .LVU2260
 8987 002e 0BE0     		b	.L233
 8988              	.LVL1634:
 8989              	.L232:
2263:Drivers/LCD_FMC/src/tftLCD.c ****             }
2264:Drivers/LCD_FMC/src/tftLCD.c ****             else enshow = 1;
2265:Drivers/LCD_FMC/src/tftLCD.c **** 
2266:Drivers/LCD_FMC/src/tftLCD.c ****         }
2267:Drivers/LCD_FMC/src/tftLCD.c **** 
2268:Drivers/LCD_FMC/src/tftLCD.c ****         LCD_ShowChar(x + (size / 2)*t, y, temp + '0', size, 0);
 8990              		.loc 1 2268 9 view .LVU2261
 8991              		.loc 1 2268 36 is_stmt 0 view .LVU2262
 8992 0030 7008     		lsrs	r0, r6, #1
 8993              		.loc 1 2268 9 view .LVU2263
 8994 0032 3032     		adds	r2, r2, #48
 8995              	.LVL1635:
 8996              		.loc 1 2268 9 view .LVU2264
 8997 0034 00FB04A0 		mla	r0, r0, r4, r10
 8998 0038 0023     		movs	r3, #0
 8999 003a 0093     		str	r3, [sp]
 9000 003c 3346     		mov	r3, r6
 9001 003e D2B2     		uxtb	r2, r2
 9002              	.LVL1636:
 9003              		.loc 1 2268 9 view .LVU2265
 9004 0040 4946     		mov	r1, r9
 9005 0042 80B2     		uxth	r0, r0
ARM GAS  C:\usertemp\ccUDQ5mr.s 			page 229


 9006 0044 FFF7FEFF 		bl	LCD_ShowChar
 9007              	.LVL1637:
 9008              	.L233:
2253:Drivers/LCD_FMC/src/tftLCD.c ****     {
 9009              		.loc 1 2253 27 is_stmt 1 discriminator 2 view .LVU2266
 9010 0048 0134     		adds	r4, r4, #1
 9011              	.LVL1638:
2253:Drivers/LCD_FMC/src/tftLCD.c ****     {
 9012              		.loc 1 2253 27 is_stmt 0 discriminator 2 view .LVU2267
 9013 004a E4B2     		uxtb	r4, r4
 9014              	.LVL1639:
 9015              	.L231:
2253:Drivers/LCD_FMC/src/tftLCD.c ****     {
 9016              		.loc 1 2253 19 is_stmt 1 discriminator 1 view .LVU2268
 9017 004c AC42     		cmp	r4, r5
 9018 004e 1CD2     		bcs	.L237
2255:Drivers/LCD_FMC/src/tftLCD.c **** 
 9019              		.loc 1 2255 9 view .LVU2269
2255:Drivers/LCD_FMC/src/tftLCD.c **** 
 9020              		.loc 1 2255 40 is_stmt 0 view .LVU2270
 9021 0050 291B     		subs	r1, r5, r4
 9022 0052 C9B2     		uxtb	r1, r1
2255:Drivers/LCD_FMC/src/tftLCD.c **** 
 9023              		.loc 1 2255 23 view .LVU2271
 9024 0054 0139     		subs	r1, r1, #1
 9025 0056 C9B2     		uxtb	r1, r1
 9026 0058 0A20     		movs	r0, #10
 9027 005a FFF7FEFF 		bl	_LCD_Pow
 9028              	.LVL1640:
2255:Drivers/LCD_FMC/src/tftLCD.c **** 
 9029              		.loc 1 2255 21 discriminator 1 view .LVU2272
 9030 005e B8FBF0F0 		udiv	r0, r8, r0
2255:Drivers/LCD_FMC/src/tftLCD.c **** 
 9031              		.loc 1 2255 50 discriminator 1 view .LVU2273
 9032 0062 0B4B     		ldr	r3, .L239
 9033 0064 A3FB003C 		umull	r3, ip, r3, r0
 9034 0068 4FEADC0C 		lsr	ip, ip, #3
 9035 006c 0CEB8C0C 		add	ip, ip, ip, lsl #2
 9036 0070 A0EB4C0C 		sub	ip, r0, ip, lsl #1
2255:Drivers/LCD_FMC/src/tftLCD.c **** 
 9037              		.loc 1 2255 14 discriminator 1 view .LVU2274
 9038 0074 5FFA8CF2 		uxtb	r2, ip
 9039              	.LVL1641:
2257:Drivers/LCD_FMC/src/tftLCD.c ****         {
 9040              		.loc 1 2257 9 is_stmt 1 view .LVU2275
2257:Drivers/LCD_FMC/src/tftLCD.c ****         {
 9041              		.loc 1 2257 12 is_stmt 0 view .LVU2276
 9042 0078 002F     		cmp	r7, #0
 9043 007a D9D1     		bne	.L232
2257:Drivers/LCD_FMC/src/tftLCD.c ****         {
 9044              		.loc 1 2257 37 discriminator 1 view .LVU2277
 9045 007c 6B1E     		subs	r3, r5, #1
2257:Drivers/LCD_FMC/src/tftLCD.c ****         {
 9046              		.loc 1 2257 25 discriminator 1 view .LVU2278
 9047 007e 9C42     		cmp	r4, r3
 9048 0080 D6DA     		bge	.L232
2259:Drivers/LCD_FMC/src/tftLCD.c ****             {
ARM GAS  C:\usertemp\ccUDQ5mr.s 			page 230


 9049              		.loc 1 2259 13 is_stmt 1 view .LVU2279
2259:Drivers/LCD_FMC/src/tftLCD.c ****             {
 9050              		.loc 1 2259 16 is_stmt 0 view .LVU2280
 9051 0082 002A     		cmp	r2, #0
 9052 0084 C8D0     		beq	.L238
2264:Drivers/LCD_FMC/src/tftLCD.c **** 
 9053              		.loc 1 2264 25 view .LVU2281
 9054 0086 0127     		movs	r7, #1
 9055              	.LVL1642:
2264:Drivers/LCD_FMC/src/tftLCD.c **** 
 9056              		.loc 1 2264 25 view .LVU2282
 9057 0088 D2E7     		b	.L232
 9058              	.LVL1643:
 9059              	.L237:
2269:Drivers/LCD_FMC/src/tftLCD.c ****     }
2270:Drivers/LCD_FMC/src/tftLCD.c **** }
 9060              		.loc 1 2270 1 view .LVU2283
 9061 008a 02B0     		add	sp, sp, #8
 9062              	.LCFI36:
 9063              		.cfi_def_cfa_offset 32
 9064              		@ sp needed
 9065 008c BDE8F087 		pop	{r4, r5, r6, r7, r8, r9, r10, pc}
 9066              	.LVL1644:
 9067              	.L240:
 9068              		.loc 1 2270 1 view .LVU2284
 9069              		.align	2
 9070              	.L239:
 9071 0090 CDCCCCCC 		.word	-858993459
 9072              		.cfi_endproc
 9073              	.LFE362:
 9075              		.section	.text.LCD_ShowxNum,"ax",%progbits
 9076              		.align	1
 9077              		.global	LCD_ShowxNum
 9078              		.syntax unified
 9079              		.thumb
 9080              		.thumb_func
 9082              	LCD_ShowxNum:
 9083              	.LVL1645:
 9084              	.LFB363:
2271:Drivers/LCD_FMC/src/tftLCD.c **** 
2272:Drivers/LCD_FMC/src/tftLCD.c **** //显示数字,高位为0,还是显示
2273:Drivers/LCD_FMC/src/tftLCD.c **** //x,y:起点坐标
2274:Drivers/LCD_FMC/src/tftLCD.c **** //num:数值(0~999999999);
2275:Drivers/LCD_FMC/src/tftLCD.c **** //len:长度(即要显示的位数)
2276:Drivers/LCD_FMC/src/tftLCD.c **** //size:字体大小
2277:Drivers/LCD_FMC/src/tftLCD.c **** //mode:
2278:Drivers/LCD_FMC/src/tftLCD.c **** //[7]:0,不填充;1,填充0.
2279:Drivers/LCD_FMC/src/tftLCD.c **** //[6:1]:保留
2280:Drivers/LCD_FMC/src/tftLCD.c **** //[0]:0,非叠加显示;1,叠加显示.
2281:Drivers/LCD_FMC/src/tftLCD.c **** void LCD_ShowxNum(uint16_t x,uint16_t y,uint32_t num,uint8_t len,uint8_t size,uint8_t mode)
2282:Drivers/LCD_FMC/src/tftLCD.c **** {
 9085              		.loc 1 2282 1 is_stmt 1 view -0
 9086              		.cfi_startproc
 9087              		@ args = 8, pretend = 0, frame = 0
 9088              		@ frame_needed = 0, uses_anonymous_args = 0
 9089              		.loc 1 2282 1 is_stmt 0 view .LVU2286
 9090 0000 2DE9F04F 		push	{r4, r5, r6, r7, r8, r9, r10, fp, lr}
ARM GAS  C:\usertemp\ccUDQ5mr.s 			page 231


 9091              	.LCFI37:
 9092              		.cfi_def_cfa_offset 36
 9093              		.cfi_offset 4, -36
 9094              		.cfi_offset 5, -32
 9095              		.cfi_offset 6, -28
 9096              		.cfi_offset 7, -24
 9097              		.cfi_offset 8, -20
 9098              		.cfi_offset 9, -16
 9099              		.cfi_offset 10, -12
 9100              		.cfi_offset 11, -8
 9101              		.cfi_offset 14, -4
 9102 0004 83B0     		sub	sp, sp, #12
 9103              	.LCFI38:
 9104              		.cfi_def_cfa_offset 48
 9105 0006 8246     		mov	r10, r0
 9106 0008 8946     		mov	r9, r1
 9107 000a 9046     		mov	r8, r2
 9108 000c 1D46     		mov	r5, r3
 9109 000e 9DF83060 		ldrb	r6, [sp, #48]	@ zero_extendqisi2
 9110 0012 9DF834B0 		ldrb	fp, [sp, #52]	@ zero_extendqisi2
2283:Drivers/LCD_FMC/src/tftLCD.c ****     uint8_t t,temp;
 9111              		.loc 1 2283 5 is_stmt 1 view .LVU2287
2284:Drivers/LCD_FMC/src/tftLCD.c ****     uint8_t enshow=0;
 9112              		.loc 1 2284 5 view .LVU2288
 9113              	.LVL1646:
2285:Drivers/LCD_FMC/src/tftLCD.c ****     for(t=0; t<len; t++)
 9114              		.loc 1 2285 5 view .LVU2289
2284:Drivers/LCD_FMC/src/tftLCD.c ****     uint8_t enshow=0;
 9115              		.loc 1 2284 13 is_stmt 0 view .LVU2290
 9116 0016 0027     		movs	r7, #0
 9117              		.loc 1 2285 10 view .LVU2291
 9118 0018 3C46     		mov	r4, r7
 9119              		.loc 1 2285 5 view .LVU2292
 9120 001a 2BE0     		b	.L242
 9121              	.LVL1647:
 9122              	.L252:
2286:Drivers/LCD_FMC/src/tftLCD.c ****     {
2287:Drivers/LCD_FMC/src/tftLCD.c ****         temp=(num/_LCD_Pow(10,len-t-1))%10;
2288:Drivers/LCD_FMC/src/tftLCD.c ****         if(enshow==0&&t<(len-1))
2289:Drivers/LCD_FMC/src/tftLCD.c ****         {
2290:Drivers/LCD_FMC/src/tftLCD.c ****             if(temp==0)
2291:Drivers/LCD_FMC/src/tftLCD.c ****             {
2292:Drivers/LCD_FMC/src/tftLCD.c ****                 if(mode&0X80)LCD_ShowChar(x+(size/2)*t,y,'0',size,mode&0X01);
 9123              		.loc 1 2292 17 is_stmt 1 view .LVU2293
 9124              		.loc 1 2292 19 is_stmt 0 view .LVU2294
 9125 001c 1BF0800F 		tst	fp, #128
 9126 0020 0CD1     		bne	.L250
2293:Drivers/LCD_FMC/src/tftLCD.c ****                 else LCD_ShowChar(x+(size/2)*t,y,' ',size,mode&0X01);
 9127              		.loc 1 2293 22 is_stmt 1 view .LVU2295
 9128              		.loc 1 2293 45 is_stmt 0 view .LVU2296
 9129 0022 7008     		lsrs	r0, r6, #1
 9130              		.loc 1 2293 22 view .LVU2297
 9131 0024 00FB04A0 		mla	r0, r0, r4, r10
 9132 0028 0BF00103 		and	r3, fp, #1
 9133 002c 0093     		str	r3, [sp]
 9134 002e 3346     		mov	r3, r6
 9135 0030 2022     		movs	r2, #32
ARM GAS  C:\usertemp\ccUDQ5mr.s 			page 232


 9136              	.LVL1648:
 9137              		.loc 1 2293 22 view .LVU2298
 9138 0032 4946     		mov	r1, r9
 9139 0034 80B2     		uxth	r0, r0
 9140 0036 FFF7FEFF 		bl	LCD_ShowChar
 9141              	.LVL1649:
2294:Drivers/LCD_FMC/src/tftLCD.c ****                 continue;
 9142              		.loc 1 2294 17 is_stmt 1 view .LVU2299
 9143 003a 19E0     		b	.L246
 9144              	.LVL1650:
 9145              	.L250:
2292:Drivers/LCD_FMC/src/tftLCD.c ****                 else LCD_ShowChar(x+(size/2)*t,y,' ',size,mode&0X01);
 9146              		.loc 1 2292 30 discriminator 1 view .LVU2300
2292:Drivers/LCD_FMC/src/tftLCD.c ****                 else LCD_ShowChar(x+(size/2)*t,y,' ',size,mode&0X01);
 9147              		.loc 1 2292 53 is_stmt 0 discriminator 1 view .LVU2301
 9148 003c 7008     		lsrs	r0, r6, #1
2292:Drivers/LCD_FMC/src/tftLCD.c ****                 else LCD_ShowChar(x+(size/2)*t,y,' ',size,mode&0X01);
 9149              		.loc 1 2292 30 discriminator 1 view .LVU2302
 9150 003e 00FB04A0 		mla	r0, r0, r4, r10
 9151 0042 0BF00103 		and	r3, fp, #1
 9152 0046 0093     		str	r3, [sp]
 9153 0048 3346     		mov	r3, r6
 9154 004a 3022     		movs	r2, #48
 9155              	.LVL1651:
2292:Drivers/LCD_FMC/src/tftLCD.c ****                 else LCD_ShowChar(x+(size/2)*t,y,' ',size,mode&0X01);
 9156              		.loc 1 2292 30 discriminator 1 view .LVU2303
 9157 004c 4946     		mov	r1, r9
 9158 004e 80B2     		uxth	r0, r0
 9159 0050 FFF7FEFF 		bl	LCD_ShowChar
 9160              	.LVL1652:
 9161 0054 0CE0     		b	.L246
 9162              	.LVL1653:
 9163              	.L243:
2295:Drivers/LCD_FMC/src/tftLCD.c ****             } else enshow=1;
2296:Drivers/LCD_FMC/src/tftLCD.c **** 
2297:Drivers/LCD_FMC/src/tftLCD.c ****         }
2298:Drivers/LCD_FMC/src/tftLCD.c ****         LCD_ShowChar(x+(size/2)*t,y,temp+'0',size,mode&0X01);
 9164              		.loc 1 2298 9 is_stmt 1 view .LVU2304
 9165              		.loc 1 2298 32 is_stmt 0 view .LVU2305
 9166 0056 7008     		lsrs	r0, r6, #1
 9167              		.loc 1 2298 9 view .LVU2306
 9168 0058 3032     		adds	r2, r2, #48
 9169              	.LVL1654:
 9170              		.loc 1 2298 9 view .LVU2307
 9171 005a 00FB04A0 		mla	r0, r0, r4, r10
 9172 005e 0BF00103 		and	r3, fp, #1
 9173 0062 0093     		str	r3, [sp]
 9174 0064 3346     		mov	r3, r6
 9175 0066 D2B2     		uxtb	r2, r2
 9176              	.LVL1655:
 9177              		.loc 1 2298 9 view .LVU2308
 9178 0068 4946     		mov	r1, r9
 9179 006a 80B2     		uxth	r0, r0
 9180 006c FFF7FEFF 		bl	LCD_ShowChar
 9181              	.LVL1656:
 9182              	.L246:
2285:Drivers/LCD_FMC/src/tftLCD.c ****     {
ARM GAS  C:\usertemp\ccUDQ5mr.s 			page 233


 9183              		.loc 1 2285 22 is_stmt 1 discriminator 2 view .LVU2309
 9184 0070 0134     		adds	r4, r4, #1
 9185              	.LVL1657:
2285:Drivers/LCD_FMC/src/tftLCD.c ****     {
 9186              		.loc 1 2285 22 is_stmt 0 discriminator 2 view .LVU2310
 9187 0072 E4B2     		uxtb	r4, r4
 9188              	.LVL1658:
 9189              	.L242:
2285:Drivers/LCD_FMC/src/tftLCD.c ****     {
 9190              		.loc 1 2285 15 is_stmt 1 discriminator 1 view .LVU2311
 9191 0074 AC42     		cmp	r4, r5
 9192 0076 1AD2     		bcs	.L251
2287:Drivers/LCD_FMC/src/tftLCD.c ****         if(enshow==0&&t<(len-1))
 9193              		.loc 1 2287 9 view .LVU2312
2287:Drivers/LCD_FMC/src/tftLCD.c ****         if(enshow==0&&t<(len-1))
 9194              		.loc 1 2287 34 is_stmt 0 view .LVU2313
 9195 0078 291B     		subs	r1, r5, r4
 9196 007a C9B2     		uxtb	r1, r1
2287:Drivers/LCD_FMC/src/tftLCD.c ****         if(enshow==0&&t<(len-1))
 9197              		.loc 1 2287 19 view .LVU2314
 9198 007c 0139     		subs	r1, r1, #1
 9199 007e C9B2     		uxtb	r1, r1
 9200 0080 0A20     		movs	r0, #10
 9201 0082 FFF7FEFF 		bl	_LCD_Pow
 9202              	.LVL1659:
2287:Drivers/LCD_FMC/src/tftLCD.c ****         if(enshow==0&&t<(len-1))
 9203              		.loc 1 2287 18 discriminator 1 view .LVU2315
 9204 0086 B8FBF0F0 		udiv	r0, r8, r0
2287:Drivers/LCD_FMC/src/tftLCD.c ****         if(enshow==0&&t<(len-1))
 9205              		.loc 1 2287 40 discriminator 1 view .LVU2316
 9206 008a 0A4A     		ldr	r2, .L253
 9207 008c A2FB0032 		umull	r3, r2, r2, r0
 9208 0090 D208     		lsrs	r2, r2, #3
 9209 0092 02EB8202 		add	r2, r2, r2, lsl #2
 9210 0096 A0EB4202 		sub	r2, r0, r2, lsl #1
2287:Drivers/LCD_FMC/src/tftLCD.c ****         if(enshow==0&&t<(len-1))
 9211              		.loc 1 2287 13 discriminator 1 view .LVU2317
 9212 009a D2B2     		uxtb	r2, r2
 9213              	.LVL1660:
2288:Drivers/LCD_FMC/src/tftLCD.c ****         {
 9214              		.loc 1 2288 9 is_stmt 1 view .LVU2318
2288:Drivers/LCD_FMC/src/tftLCD.c ****         {
 9215              		.loc 1 2288 11 is_stmt 0 view .LVU2319
 9216 009c 002F     		cmp	r7, #0
 9217 009e DAD1     		bne	.L243
2288:Drivers/LCD_FMC/src/tftLCD.c ****         {
 9218              		.loc 1 2288 29 discriminator 1 view .LVU2320
 9219 00a0 6B1E     		subs	r3, r5, #1
2288:Drivers/LCD_FMC/src/tftLCD.c ****         {
 9220              		.loc 1 2288 21 discriminator 1 view .LVU2321
 9221 00a2 9C42     		cmp	r4, r3
 9222 00a4 D7DA     		bge	.L243
2290:Drivers/LCD_FMC/src/tftLCD.c ****             {
 9223              		.loc 1 2290 13 is_stmt 1 view .LVU2322
2290:Drivers/LCD_FMC/src/tftLCD.c ****             {
 9224              		.loc 1 2290 15 is_stmt 0 view .LVU2323
 9225 00a6 002A     		cmp	r2, #0
ARM GAS  C:\usertemp\ccUDQ5mr.s 			page 234


 9226 00a8 B8D0     		beq	.L252
2295:Drivers/LCD_FMC/src/tftLCD.c **** 
 9227              		.loc 1 2295 26 view .LVU2324
 9228 00aa 0127     		movs	r7, #1
 9229              	.LVL1661:
2295:Drivers/LCD_FMC/src/tftLCD.c **** 
 9230              		.loc 1 2295 26 view .LVU2325
 9231 00ac D3E7     		b	.L243
 9232              	.LVL1662:
 9233              	.L251:
2299:Drivers/LCD_FMC/src/tftLCD.c ****     }
2300:Drivers/LCD_FMC/src/tftLCD.c **** }
 9234              		.loc 1 2300 1 view .LVU2326
 9235 00ae 03B0     		add	sp, sp, #12
 9236              	.LCFI39:
 9237              		.cfi_def_cfa_offset 36
 9238              		@ sp needed
 9239 00b0 BDE8F08F 		pop	{r4, r5, r6, r7, r8, r9, r10, fp, pc}
 9240              	.LVL1663:
 9241              	.L254:
 9242              		.loc 1 2300 1 view .LVU2327
 9243              		.align	2
 9244              	.L253:
 9245 00b4 CDCCCCCC 		.word	-858993459
 9246              		.cfi_endproc
 9247              	.LFE363:
 9249              		.section	.text.LCD_ShowString,"ax",%progbits
 9250              		.align	1
 9251              		.global	LCD_ShowString
 9252              		.syntax unified
 9253              		.thumb
 9254              		.thumb_func
 9256              	LCD_ShowString:
 9257              	.LVL1664:
 9258              	.LFB364:
2301:Drivers/LCD_FMC/src/tftLCD.c **** 
2302:Drivers/LCD_FMC/src/tftLCD.c **** //显示字符串
2303:Drivers/LCD_FMC/src/tftLCD.c **** //x,y:起点坐标
2304:Drivers/LCD_FMC/src/tftLCD.c **** //width,height:区域大小
2305:Drivers/LCD_FMC/src/tftLCD.c **** //size:字体大小
2306:Drivers/LCD_FMC/src/tftLCD.c **** //*p:字符串起始地址
2307:Drivers/LCD_FMC/src/tftLCD.c **** void LCD_ShowString(uint16_t x, uint16_t y, uint16_t width, uint16_t height, uint8_t size, uint8_t 
2308:Drivers/LCD_FMC/src/tftLCD.c **** {
 9259              		.loc 1 2308 1 is_stmt 1 view -0
 9260              		.cfi_startproc
 9261              		@ args = 8, pretend = 0, frame = 0
 9262              		@ frame_needed = 0, uses_anonymous_args = 0
 9263              		.loc 1 2308 1 is_stmt 0 view .LVU2329
 9264 0000 2DE9F047 		push	{r4, r5, r6, r7, r8, r9, r10, lr}
 9265              	.LCFI40:
 9266              		.cfi_def_cfa_offset 32
 9267              		.cfi_offset 4, -32
 9268              		.cfi_offset 5, -28
 9269              		.cfi_offset 6, -24
 9270              		.cfi_offset 7, -20
 9271              		.cfi_offset 8, -16
 9272              		.cfi_offset 9, -12
ARM GAS  C:\usertemp\ccUDQ5mr.s 			page 235


 9273              		.cfi_offset 10, -8
 9274              		.cfi_offset 14, -4
 9275 0004 82B0     		sub	sp, sp, #8
 9276              	.LCFI41:
 9277              		.cfi_def_cfa_offset 40
 9278 0006 8246     		mov	r10, r0
 9279 0008 0D46     		mov	r5, r1
 9280 000a 9DF82870 		ldrb	r7, [sp, #40]	@ zero_extendqisi2
 9281 000e 0B9E     		ldr	r6, [sp, #44]
2309:Drivers/LCD_FMC/src/tftLCD.c ****     uint8_t x0 = x;
 9282              		.loc 1 2309 5 is_stmt 1 view .LVU2330
 9283              	.LVL1665:
2310:Drivers/LCD_FMC/src/tftLCD.c ****     width += x;
 9284              		.loc 1 2310 5 view .LVU2331
 9285              		.loc 1 2310 11 is_stmt 0 view .LVU2332
 9286 0010 0244     		add	r2, r2, r0
 9287              	.LVL1666:
 9288              		.loc 1 2310 11 view .LVU2333
 9289 0012 1FFA82F9 		uxth	r9, r2
 9290              	.LVL1667:
2311:Drivers/LCD_FMC/src/tftLCD.c ****     height += y;
 9291              		.loc 1 2311 5 is_stmt 1 view .LVU2334
 9292              		.loc 1 2311 12 is_stmt 0 view .LVU2335
 9293 0016 0B44     		add	r3, r3, r1
 9294              	.LVL1668:
 9295              		.loc 1 2311 12 view .LVU2336
 9296 0018 1FFA83F8 		uxth	r8, r3
 9297              	.LVL1669:
2312:Drivers/LCD_FMC/src/tftLCD.c **** 
2313:Drivers/LCD_FMC/src/tftLCD.c ****     while ((*p <= '~') && (*p >= ' '))   //判断是不是非法字符!
 9298              		.loc 1 2313 5 is_stmt 1 view .LVU2337
 9299              		.loc 1 2313 11 is_stmt 0 view .LVU2338
 9300 001c 0446     		mov	r4, r0
 9301 001e 0CE0     		b	.L256
 9302              	.LVL1670:
 9303              	.L257:
2314:Drivers/LCD_FMC/src/tftLCD.c ****     {
2315:Drivers/LCD_FMC/src/tftLCD.c ****         if (x >= width)
2316:Drivers/LCD_FMC/src/tftLCD.c ****         {
2317:Drivers/LCD_FMC/src/tftLCD.c ****             x = x0;
2318:Drivers/LCD_FMC/src/tftLCD.c ****             y += size;
2319:Drivers/LCD_FMC/src/tftLCD.c ****         }
2320:Drivers/LCD_FMC/src/tftLCD.c **** 
2321:Drivers/LCD_FMC/src/tftLCD.c ****         if (y >= height)break; //退出
 9304              		.loc 1 2321 9 is_stmt 1 view .LVU2339
 9305              		.loc 1 2321 12 is_stmt 0 view .LVU2340
 9306 0020 4545     		cmp	r5, r8
 9307 0022 17D2     		bcs	.L255
2322:Drivers/LCD_FMC/src/tftLCD.c **** 
2323:Drivers/LCD_FMC/src/tftLCD.c ****         LCD_ShowChar(x, y, *p, size, 0);
 9308              		.loc 1 2323 9 is_stmt 1 view .LVU2341
 9309 0024 0023     		movs	r3, #0
 9310 0026 0093     		str	r3, [sp]
 9311 0028 3B46     		mov	r3, r7
 9312 002a 2946     		mov	r1, r5
 9313 002c 2046     		mov	r0, r4
 9314 002e FFF7FEFF 		bl	LCD_ShowChar
ARM GAS  C:\usertemp\ccUDQ5mr.s 			page 236


 9315              	.LVL1671:
2324:Drivers/LCD_FMC/src/tftLCD.c ****         x += size / 2;
 9316              		.loc 1 2324 9 view .LVU2342
 9317              		.loc 1 2324 11 is_stmt 0 view .LVU2343
 9318 0032 04EB5704 		add	r4, r4, r7, lsr #1
 9319              	.LVL1672:
 9320              		.loc 1 2324 11 view .LVU2344
 9321 0036 A4B2     		uxth	r4, r4
 9322              	.LVL1673:
2325:Drivers/LCD_FMC/src/tftLCD.c ****         p++;
 9323              		.loc 1 2325 9 is_stmt 1 view .LVU2345
 9324              		.loc 1 2325 10 is_stmt 0 view .LVU2346
 9325 0038 0136     		adds	r6, r6, #1
 9326              	.LVL1674:
 9327              	.L256:
2313:Drivers/LCD_FMC/src/tftLCD.c ****     {
 9328              		.loc 1 2313 24 is_stmt 1 view .LVU2347
2313:Drivers/LCD_FMC/src/tftLCD.c ****     {
 9329              		.loc 1 2313 13 is_stmt 0 view .LVU2348
 9330 003a 3278     		ldrb	r2, [r6]	@ zero_extendqisi2
2313:Drivers/LCD_FMC/src/tftLCD.c ****     {
 9331              		.loc 1 2313 24 view .LVU2349
 9332 003c A2F12003 		sub	r3, r2, #32
 9333 0040 DBB2     		uxtb	r3, r3
 9334 0042 5E2B     		cmp	r3, #94
 9335 0044 06D8     		bhi	.L255
2315:Drivers/LCD_FMC/src/tftLCD.c ****         {
 9336              		.loc 1 2315 9 is_stmt 1 view .LVU2350
2315:Drivers/LCD_FMC/src/tftLCD.c ****         {
 9337              		.loc 1 2315 12 is_stmt 0 view .LVU2351
 9338 0046 4C45     		cmp	r4, r9
 9339 0048 EAD3     		bcc	.L257
2317:Drivers/LCD_FMC/src/tftLCD.c ****             y += size;
 9340              		.loc 1 2317 13 is_stmt 1 view .LVU2352
 9341 004a 5FFA8AF4 		uxtb	r4, r10
 9342              	.LVL1675:
2318:Drivers/LCD_FMC/src/tftLCD.c ****         }
 9343              		.loc 1 2318 13 view .LVU2353
2318:Drivers/LCD_FMC/src/tftLCD.c ****         }
 9344              		.loc 1 2318 15 is_stmt 0 view .LVU2354
 9345 004e 3D44     		add	r5, r5, r7
 9346              	.LVL1676:
2318:Drivers/LCD_FMC/src/tftLCD.c ****         }
 9347              		.loc 1 2318 15 view .LVU2355
 9348 0050 ADB2     		uxth	r5, r5
 9349              	.LVL1677:
2318:Drivers/LCD_FMC/src/tftLCD.c ****         }
 9350              		.loc 1 2318 15 view .LVU2356
 9351 0052 E5E7     		b	.L257
 9352              	.L255:
2326:Drivers/LCD_FMC/src/tftLCD.c ****     }
2327:Drivers/LCD_FMC/src/tftLCD.c **** }
 9353              		.loc 1 2327 1 view .LVU2357
 9354 0054 02B0     		add	sp, sp, #8
 9355              	.LCFI42:
 9356              		.cfi_def_cfa_offset 32
 9357              		@ sp needed
ARM GAS  C:\usertemp\ccUDQ5mr.s 			page 237


 9358 0056 BDE8F087 		pop	{r4, r5, r6, r7, r8, r9, r10, pc}
 9359              		.loc 1 2327 1 view .LVU2358
 9360              		.cfi_endproc
 9361              	.LFE364:
 9363              		.global	lcddev
 9364              		.section	.bss.lcddev,"aw",%nobits
 9365              		.align	2
 9368              	lcddev:
 9369 0000 00000000 		.space	14
 9369      00000000 
 9369      00000000 
 9369      0000
 9370              		.global	BACK_COLOR
 9371              		.section	.data.BACK_COLOR,"aw"
 9372              		.align	2
 9375              	BACK_COLOR:
 9376 0000 FFFFFFFF 		.word	-1
 9377              		.global	POINT_COLOR
 9378              		.section	.data.POINT_COLOR,"aw"
 9379              		.align	2
 9382              	POINT_COLOR:
 9383 0000 000000FF 		.word	-16777216
 9384              		.global	asc2_3216
 9385              		.section	.rodata.asc2_3216,"a"
 9386              		.align	2
 9389              	asc2_3216:
 9390 0000 00000000 		.ascii	"\000\000\000\000\000\000\000\000\000\000\000\000\000"
 9390      00000000 
 9390      00000000 
 9390      00
 9391 000d 00000000 		.ascii	"\000\000\000\000\000\000\000\000\000\000\000\000\000"
 9391      00000000 
 9391      00000000 
 9391      00
 9392 001a 00000000 		.ascii	"\000\000\000\000\000\000\000\000\000\000\000\000\000"
 9392      00000000 
 9392      00000000 
 9392      00
 9393 0027 00000000 		.ascii	"\000\000\000\000\000\000\000\000\000\000\000\000\000"
 9393      00000000 
 9393      00000000 
 9393      00
 9394 0034 00000000 		.ascii	"\000\000\000\000\000\000\000\000\000\000\000\000\000"
 9394      00000000 
 9394      00000000 
 9394      00
 9395 0041 00000000 		.space	63
 9395      00000000 
 9395      00000000 
 9395      00000000 
 9395      00000000 
 9396 0080 00000000 		.ascii	"\000\000\000\000\000\000\000\000\000\000\000\000\000"
 9396      00000000 
 9396      00000000 
 9396      00
 9397 008d 00000000 		.ascii	"\000\000\000\000\000\000\000\000\000\000\000\007\360"
 9397      00000000 
ARM GAS  C:\usertemp\ccUDQ5mr.s 			page 238


 9397      00000007 
 9397      F0
 9398 009a 00C007FF 		.ascii	"\000\300\007\377\341\340\007\360\001\340\000\000\000"
 9398      E1E007F0 
 9398      01E00000 
 9398      00
 9399 00a7 C0000000 		.ascii	"\300\000\000\000\000\000\000\000\000\000\000\000\000"
 9399      00000000 
 9399      00000000 
 9399      00
 9400 00b4 00000000 		.ascii	"\000\000\000\000\000\000\000\000\000\000\000\000\000"
 9400      00000000 
 9400      00000000 
 9400      00
 9401 00c1 00000000 		.space	63
 9401      00000000 
 9401      00000000 
 9401      00000000 
 9401      00000000 
 9402 0100 00000000 		.ascii	"\000\000\000\000\000\000\000\000\000 \000\000\001\300"
 9402      00000000 
 9402      00200000 
 9402      01C0
 9403 010e 00000780 		.ascii	"\000\000\007\200\000\000\037\000\000\000\036\000\000"
 9403      00001F00 
 9403      00001E00 
 9403      00
 9404 011b 001C2000 		.ascii	"\000\034 \000\000\001\300\000\000\007\200\000\000\037"
 9404      0001C000 
 9404      00078000 
 9404      001F
 9405 0129 0000001E 		.ascii	"\000\000\000\036\000\000\000\034\000\000\000\000\000"
 9405      0000001C 
 9405      00000000 
 9405      00
 9406 0136 00000000 		.ascii	"\000\000\000\000\000\000\000\000\000\000\000"
 9406      00000000 
 9406      000000
 9407 0141 00000000 		.space	63
 9407      00000000 
 9407      00000000 
 9407      00000000 
 9407      00000000 
 9408 0180 00000000 		.ascii	"\000\000\000\000\000\030\014\000\000\030\014\000\000"
 9408      00180C00 
 9408      00180C00 
 9408      00
 9409 018d 180FE000 		.ascii	"\030\017\340\000\037\374\000\003\370\014\000\000\030"
 9409      1FFC0003 
 9409      F80C0000 
 9409      18
 9410 019a 0C000018 		.ascii	"\014\000\000\030\014\000\000\030\014\000\000\030\014"
 9410      0C000018 
 9410      0C000018 
 9410      0C
 9411 01a7 0000180F 		.ascii	"\000\000\030\017\340\000\037\374\000\003\370\014\000"
 9411      E0001FFC 
ARM GAS  C:\usertemp\ccUDQ5mr.s 			page 239


 9411      0003F80C 
 9411      00
 9412 01b4 00180C00 		.ascii	"\000\030\014\000\000\030\014\000\000\000\000\000\000"
 9412      00180C00 
 9412      00000000 
 9412      00
 9413 01c1 00000000 		.space	63
 9413      00000000 
 9413      00000000 
 9413      00000000 
 9413      00000000 
 9414 0200 00000000 		.ascii	"\000\000\000\000\000\000\000\000\000\000\007\200\000"
 9414      00000000 
 9414      00000780 
 9414      00
 9415 020d 7807C000 		.ascii	"x\007\300\000\374\006@\001\016\000 \003\007\000 \002"
 9415      FC064001 
 9415      0E002003 
 9415      07002002 
 9416 021d 0380200F 		.ascii	"\003\200 \017\377\377\374\002\001\300 \002\000\340`"
 9416      FFFFFC02 
 9416      01C02002 
 9416      00E060
 9417 022c 01307040 		.ascii	"\0010p@\001\360?\200\000\360\037\000\000\000\000\000"
 9417      01F03F80 
 9417      00F01F00 
 9417      00000000 
 9418 023c 00000000 		.ascii	"\000\000\000\000\000"
 9418      00
 9419 0241 00000000 		.space	63
 9419      00000000 
 9419      00000000 
 9419      00000000 
 9419      00000000 
 9420 0280 00FE0000 		.ascii	"\000\376\000\000\001\377\000\000\003\001\200\000\002"
 9420      01FF0000 
 9420      03018000 
 9420      02
 9421 028d 00806003 		.ascii	"\000\200`\003\001\201\300\001\377\007\000\000\376\030"
 9421      0181C001 
 9421      FF070000 
 9421      FE18
 9422 029b 000000E0 		.ascii	"\000\000\000\340\000\000\003\277\000\000\014\377\300"
 9422      000003BF 
 9422      00000CFF 
 9422      C0
 9423 02a8 00718060 		.ascii	"\000q\200`\001\301\000 \003\001\200`\000\000\377\300"
 9423      01C10020 
 9423      03018060 
 9423      0000FFC0 
 9424 02b8 00003F00 		.ascii	"\000\000?\000\000\000\000\000\000"
 9424      00000000 
 9424      00
 9425 02c1 00000000 		.space	63
 9425      00000000 
 9425      00000000 
 9425      00000000 
ARM GAS  C:\usertemp\ccUDQ5mr.s 			page 240


 9425      00000000 
 9426 0300 00001F00 		.ascii	"\000\000\037\000\000\000\177\300\000\374\300\300\001"
 9426      00007FC0 
 9426      00FCC0C0 
 9426      01
 9427 030d FF806003 		.ascii	"\377\200`\003\003\340 \002\002x \002\006\036 \003\374"
 9427      03E02002 
 9427      02782002 
 9427      061E2003 
 9427      FC
 9428 031e 074001F0 		.ascii	"\007@\001\360\003\200\000\001\003\300\000\001\034`\000"
 9428      03800001 
 9428      03C00001 
 9428      1C6000
 9429 032d 01E02000 		.ascii	"\001\340 \000\001\000 \000\001\000@\000\000\001\200"
 9429      01002000 
 9429      01004000 
 9429      000180
 9430 033c 00000000 		.ascii	"\000\000\000\000\000"
 9430      00
 9431 0341 00000000 		.space	63
 9431      00000000 
 9431      00000000 
 9431      00000000 
 9431      00000000 
 9432 0380 00000000 		.ascii	"\000\000\000\000\000 \000\000\034`\000\000\034@\000"
 9432      00200000 
 9432      1C600000 
 9432      1C4000
 9433 038f 001F8000 		.ascii	"\000\037\200\000\000\017\000\000\000\000\000\000\000"
 9433      000F0000 
 9433      00000000 
 9433      00
 9434 039c 00000000 		.ascii	"\000\000\000\000\000\000\000\000\000\000\000\000\000"
 9434      00000000 
 9434      00000000 
 9434      00
 9435 03a9 00000000 		.ascii	"\000\000\000\000\000\000\000\000\000\000\000\000\000"
 9435      00000000 
 9435      00000000 
 9435      00
 9436 03b6 00000000 		.ascii	"\000\000\000\000\000\000\000\000\000\000\000"
 9436      00000000 
 9436      000000
 9437 03c1 00000000 		.space	63
 9437      00000000 
 9437      00000000 
 9437      00000000 
 9437      00000000 
 9438 0400 00000000 		.ascii	"\000\000\000\000\000\000\000\000\000\000\000\000\000"
 9438      00000000 
 9438      00000000 
 9438      00
 9439 040d 00000000 		.ascii	"\000\000\000\000\000\000\000\000\000\000\000\000\000"
 9439      00000000 
 9439      00000000 
 9439      00
ARM GAS  C:\usertemp\ccUDQ5mr.s 			page 241


 9440 041a 00000007 		.ascii	"\000\000\000\007\370\000\000?\377\000\000x\007\300\001"
 9440      F800003F 
 9440      FF000078 
 9440      07C001
 9441 0429 C000E003 		.ascii	"\300\000\340\003\000\0000\004\000\000\010\010\000\000"
 9441      00003004 
 9441      00000808 
 9441      0000
 9442 0437 04100000 		.ascii	"\004\020\000\000\002\000\000\000\000\000"
 9442      02000000 
 9442      0000
 9443 0441 00000000 		.space	63
 9443      00000000 
 9443      00000000 
 9443      00000000 
 9443      00000000 
 9444 0480 00000000 		.ascii	"\000\000\000\000\020\000\000\002\010\000\000\004\004"
 9444      10000002 
 9444      08000004 
 9444      04
 9445 048d 00000803 		.ascii	"\000\000\010\003\000\0000\001\300\000\340\000x\007\300"
 9445      00003001 
 9445      C000E000 
 9445      7807C0
 9446 049c 003FFF00 		.ascii	"\000?\377\000\000\007\370\000\000\000\000\000\000\000"
 9446      0007F800 
 9446      00000000 
 9446      0000
 9447 04aa 00000000 		.ascii	"\000\000\000\000\000\000\000\000\000\000\000\000\000"
 9447      00000000 
 9447      00000000 
 9447      00
 9448 04b7 00000000 		.ascii	"\000\000\000\000\000\000\000\000\000\000"
 9448      00000000 
 9448      0000
 9449 04c1 00000000 		.space	63
 9449      00000000 
 9449      00000000 
 9449      00000000 
 9449      00000000 
 9450 0500 00000000 		.ascii	"\000\000\000\000\000\000\000\000\000\014\030\000\000"
 9450      00000000 
 9450      000C1800 
 9450      00
 9451 050d 0E380000 		.ascii	"\0168\000\000\0168\000\000\0060\000\000\003`\000\000"
 9451      0E380000 
 9451      06300000 
 9451      03600000 
 9452 051d 61438000 		.ascii	"aC\200\000\377\377\200\000aC\000\000\003`\000\000\006"
 9452      FFFF8000 
 9452      61430000 
 9452      03600000 
 9452      06
 9453 052e 3000000E 		.ascii	"0\000\000\0168\000\000\0168\000\000\014\030\000\000"
 9453      3800000E 
 9453      3800000C 
 9453      180000
ARM GAS  C:\usertemp\ccUDQ5mr.s 			page 242


 9454 053d 00000000 		.ascii	"\000\000\000\000"
 9455 0541 00000000 		.space	63
 9455      00000000 
 9455      00000000 
 9455      00000000 
 9455      00000000 
 9456 0580 00000000 		.ascii	"\000\000\000\000\000\000\000\000\000\000\200\000\000"
 9456      00000000 
 9456      00008000 
 9456      00
 9457 058d 00800000 		.ascii	"\000\200\000\000\000\200\000\000\000\200\000\000\000"
 9457      00800000 
 9457      00800000 
 9457      00
 9458 059a 80000000 		.ascii	"\200\000\000\000\200\000\000\177\377\000\000\000\200"
 9458      8000007F 
 9458      FF000000 
 9458      80
 9459 05a7 00000080 		.ascii	"\000\000\000\200\000\000\000\200\000\000\000\200\000"
 9459      00000080 
 9459      00000080 
 9459      00
 9460 05b4 00008000 		.ascii	"\000\000\200\000\000\000\200\000\000\000\000\000\000"
 9460      00008000 
 9460      00000000 
 9460      00
 9461 05c1 00000000 		.space	63
 9461      00000000 
 9461      00000000 
 9461      00000000 
 9461      00000000 
 9462 0600 00000000 		.ascii	"\000\000\000\000\000\000\000\001\000\000\000\343\000"
 9462      00000001 
 9462      000000E3 
 9462      00
 9463 060d 0000E200 		.ascii	"\000\000\342\000\000\000\374\000\000\000x\000\000\000"
 9463      0000FC00 
 9463      00007800 
 9463      0000
 9464 061b 00000000 		.ascii	"\000\000\000\000\000\000\000\000\000\000\000\000\000"
 9464      00000000 
 9464      00000000 
 9464      00
 9465 0628 00000000 		.ascii	"\000\000\000\000\000\000\000\000\000\000\000\000\000"
 9465      00000000 
 9465      00000000 
 9465      00
 9466 0635 00000000 		.ascii	"\000\000\000\000\000\000\000\000\000\000\000\000"
 9466      00000000 
 9466      00000000 
 9467 0641 00000000 		.space	63
 9467      00000000 
 9467      00000000 
 9467      00000000 
 9467      00000000 
 9468 0680 00000000 		.ascii	"\000\000\000\000\000\000\200\000\000\000\200\000\000"
 9468      00008000 
ARM GAS  C:\usertemp\ccUDQ5mr.s 			page 243


 9468      00008000 
 9468      00
 9469 068d 00800000 		.ascii	"\000\200\000\000\000\200\000\000\000\200\000\000\000"
 9469      00800000 
 9469      00800000 
 9469      00
 9470 069a 80000000 		.ascii	"\200\000\000\000\200\000\000\000\200\000\000\000\200"
 9470      80000000 
 9470      80000000 
 9470      80
 9471 06a7 00000080 		.ascii	"\000\000\000\200\000\000\000\200\000\000\000\200\000"
 9471      00000080 
 9471      00000080 
 9471      00
 9472 06b4 00008000 		.ascii	"\000\000\200\000\000\000\200\000\000\000\000\000\000"
 9472      00008000 
 9472      00000000 
 9472      00
 9473 06c1 00000000 		.space	63
 9473      00000000 
 9473      00000000 
 9473      00000000 
 9473      00000000 
 9474 0700 00000000 		.ascii	"\000\000\000\000\000\000\000\000\000\000\000\300\000"
 9474      00000000 
 9474      000000C0 
 9474      00
 9475 070d 0001E000 		.ascii	"\000\001\340\000\000\001\340\000\000\000\300\000\000"
 9475      0001E000 
 9475      0000C000 
 9475      00
 9476 071a 00000000 		.ascii	"\000\000\000\000\000\000\000\000\000\000\000\000\000"
 9476      00000000 
 9476      00000000 
 9476      00
 9477 0727 00000000 		.ascii	"\000\000\000\000\000\000\000\000\000\000\000\000\000"
 9477      00000000 
 9477      00000000 
 9477      00
 9478 0734 00000000 		.ascii	"\000\000\000\000\000\000\000\000\000\000\000\000\000"
 9478      00000000 
 9478      00000000 
 9478      00
 9479 0741 00000000 		.space	63
 9479      00000000 
 9479      00000000 
 9479      00000000 
 9479      00000000 
 9480 0780 00000000 		.ascii	"\000\000\000\000\000\000\000\014\000\000\0008\000\000"
 9480      0000000C 
 9480      00000038 
 9480      0000
 9481 078e 00E00000 		.ascii	"\000\340\000\000\003\200\000\000\016\000\000\0008\000"
 9481      03800000 
 9481      0E000000 
 9481      3800
 9482 079c 0000E000 		.ascii	"\000\000\340\000\000\003\200\000\000\016\000\000\000"
ARM GAS  C:\usertemp\ccUDQ5mr.s 			page 244


 9482      00038000 
 9482      000E0000 
 9482      00
 9483 07a9 38000000 		.ascii	"8\000\000\000\340\000\000\003\200\000\000\016\000\000"
 9483      E0000003 
 9483      8000000E 
 9483      0000
 9484 07b7 00180000 		.ascii	"\000\030\000\000\000\000\000\000\000\000"
 9484      00000000 
 9484      0000
 9485 07c1 00000000 		.space	63
 9485      00000000 
 9485      00000000 
 9485      00000000 
 9485      00000000 
 9486 0800 00000000 		.ascii	"\000\000\000\000\000\000\000\000\000\017\370\000\000"
 9486      00000000 
 9486      000FF800 
 9486      00
 9487 080d 7FFF0000 		.ascii	"\177\377\000\000\360\007\200\001\200\000\300\003\000"
 9487      F0078001 
 9487      8000C003 
 9487      00
 9488 081a 00600200 		.ascii	"\000`\002\000\000 \002\000\000 \002\000\000 \003\000"
 9488      00200200 
 9488      00200200 
 9488      00200300 
 9489 082a 00600180 		.ascii	"\000`\001\200\000\300\000\340\003\200\000\177\377\000"
 9489      00C000E0 
 9489      0380007F 
 9489      FF00
 9490 0838 000FF800 		.ascii	"\000\017\370\000\000\000\000\000\000"
 9490      00000000 
 9490      00
 9491 0841 00000000 		.space	63
 9491      00000000 
 9491      00000000 
 9491      00000000 
 9491      00000000 
 9492 0880 00000000 		.ascii	"\000\000\000\000\000\000\000\000\000\000\000\000\000"
 9492      00000000 
 9492      00000000 
 9492      00
 9493 088d 80002000 		.ascii	"\200\000 \000\200\000 \000\200\000 \000\200\000`\001"
 9493      80002000 
 9493      80002000 
 9493      80006001 
 9494 089d FFFFE003 		.ascii	"\377\377\340\003\377\377\340\000\000\000`\000\000\000"
 9494      FFFFE000 
 9494      00006000 
 9494      0000
 9495 08ab 20000000 		.ascii	" \000\000\000 \000\000\000 \000\000\000\000\000\000"
 9495      20000000 
 9495      20000000 
 9495      000000
 9496 08ba 00000000 		.ascii	"\000\000\000\000\000\000\000"
 9496      000000
ARM GAS  C:\usertemp\ccUDQ5mr.s 			page 245


 9497 08c1 00000000 		.space	63
 9497      00000000 
 9497      00000000 
 9497      00000000 
 9497      00000000 
 9498 0900 00000000 		.ascii	"\000\000\000\000\000\000\000\000\000x\000\340\000\230"
 9498      00000000 
 9498      007800E0 
 9498      0098
 9499 090e 01600100 		.ascii	"\001`\001\000\002`\002\000\004`\002\000\010`\002\000"
 9499      02600200 
 9499      04600200 
 9499      08600200 
 9500 091e 10600200 		.ascii	"\020`\002\000 `\002\000@`\003\000\200`\001\203\000`"
 9500      20600200 
 9500      40600300 
 9500      80600183 
 9500      0060
 9501 0930 01FE00E0 		.ascii	"\001\376\000\340\000|\007\200\000\000\000\000\000\000"
 9501      007C0780 
 9501      00000000 
 9501      0000
 9502 093e 000000   		.ascii	"\000\000\000"
 9503 0941 00000000 		.space	63
 9503      00000000 
 9503      00000000 
 9503      00000000 
 9503      00000000 
 9504 0980 00000000 		.ascii	"\000\000\000\000\000\000\000\000\000\360\007\200\001"
 9504      00000000 
 9504      00F00780 
 9504      01
 9505 098d F007C001 		.ascii	"\360\007\300\001\000\000@\002\000\000 \002\001\000 "
 9505      00004002 
 9505      00002002 
 9505      010020
 9506 099c 02010020 		.ascii	"\002\001\000 \002\001\000 \003\003\200 \001\206\200"
 9506      02010020 
 9506      03038020 
 9506      018680
 9507 09ab 4001FCC0 		.ascii	"@\001\374\300\300\000x\177\200\000\000\036\000\000\000"
 9507      C000787F 
 9507      8000001E 
 9507      000000
 9508 09ba 00000000 		.ascii	"\000\000\000\000\000\000\000"
 9508      000000
 9509 09c1 00000000 		.space	63
 9509      00000000 
 9509      00000000 
 9509      00000000 
 9509      00000000 
 9510 0a00 00000000 		.ascii	"\000\000\000\000\000\000\010\000\000\0008\000\000\000"
 9510      00000800 
 9510      00003800 
 9510      0000
 9511 0a0e 48000001 		.ascii	"H\000\000\001\210\000\000\006\010\000\000\014\010\020"
 9511      88000006 
ARM GAS  C:\usertemp\ccUDQ5mr.s 			page 246


 9511      0800000C 
 9511      0810
 9512 0a1c 00300810 		.ascii	"\0000\010\020\000@\010\020\001\377\377\360\003\377\377"
 9512      00400810 
 9512      01FFFFF0 
 9512      03FFFF
 9513 0a2b F003FFFF 		.ascii	"\360\003\377\377\360\000\000\010\020\000\000\010\020"
 9513      F0000008 
 9513      10000008 
 9513      10
 9514 0a38 00000810 		.ascii	"\000\000\010\020\000\000\000\000\000"
 9514      00000000 
 9514      00
 9515 0a41 00000000 		.space	63
 9515      00000000 
 9515      00000000 
 9515      00000000 
 9515      00000000 
 9516 0a80 00000000 		.ascii	"\000\000\000\000\000\000\000\000\000\000\007\200\000"
 9516      00000000 
 9516      00000780 
 9516      00
 9517 0a8d 1F864003 		.ascii	"\037\206@\003\341\000 \003\002\000 \003\004\000 \003"
 9517      E1002003 
 9517      02002003 
 9517      04002003 
 9518 0a9d 04002003 		.ascii	"\004\000 \003\004\000 \003\004\000 \003\006\000@\003"
 9518      04002003 
 9518      04002003 
 9518      06004003 
 9519 0aad 0301C003 		.ascii	"\003\001\300\003\001\377\200\003\000~\000\000\000\000"
 9519      01FF8003 
 9519      007E0000 
 9519      0000
 9520 0abb 00000000 		.ascii	"\000\000\000\000\000\000"
 9520      0000
 9521 0ac1 00000000 		.space	63
 9521      00000000 
 9521      00000000 
 9521      00000000 
 9521      00000000 
 9522 0b00 00000000 		.ascii	"\000\000\000\000\000\000\000\000\000\007\374\000\000"
 9522      00000000 
 9522      0007FC00 
 9522      00
 9523 0b0d 3FFF0000 		.ascii	"?\377\000\000p\303\200\000\201\200\300\001\001\000`"
 9523      70C38000 
 9523      8180C001 
 9523      010060
 9524 0b1c 03020020 		.ascii	"\003\002\000 \002\002\000 \002\002\000 \002\002\000"
 9524      02020020 
 9524      02020020 
 9524      020200
 9525 0b2b 20020300 		.ascii	" \002\003\000@\001\301\200\300\000\300\377\200\000\000"
 9525      4001C180 
 9525      C000C0FF 
 9525      800000
ARM GAS  C:\usertemp\ccUDQ5mr.s 			page 247


 9526 0b3a 7E000000 		.ascii	"~\000\000\000\000\000\000"
 9526      000000
 9527 0b41 00000000 		.space	63
 9527      00000000 
 9527      00000000 
 9527      00000000 
 9527      00000000 
 9528 0b80 00000000 		.ascii	"\000\000\000\000\000\000\000\000\000\360\000\000\003"
 9528      00000000 
 9528      00F00000 
 9528      03
 9529 0b8d C0000003 		.ascii	"\300\000\000\003\200\000\000\003\000\000\000\003\000"
 9529      80000003 
 9529      00000003 
 9529      00
 9530 0b9a 07E00300 		.ascii	"\007\340\003\000?\340\003\001\300\000\003\006\000\000"
 9530      3FE00301 
 9530      C0000306 
 9530      0000
 9531 0ba8 03180000 		.ascii	"\003\030\000\000\003`\000\000\003\200\000\000\003\000"
 9531      03600000 
 9531      03800000 
 9531      0300
 9532 0bb6 00000000 		.ascii	"\000\000\000\000\000\000\000\000\000\000\000"
 9532      00000000 
 9532      000000
 9533 0bc1 00000000 		.space	63
 9533      00000000 
 9533      00000000 
 9533      00000000 
 9533      00000000 
 9534 0c00 00000000 		.ascii	"\000\000\000\000\000\000\037\000\000x?\200\000\374`"
 9534      00001F00 
 9534      00783F80 
 9534      00FC60
 9535 0c0f C0018EC0 		.ascii	"\300\001\216\300@\003\007\200 \002\003\000 \002\001"
 9535      40030780 
 9535      20020300 
 9535      200201
 9536 0c1e 80200201 		.ascii	"\200 \002\001\200 \002\001\300 \003\001\340@\001\206"
 9536      80200201 
 9536      C0200301 
 9536      E0400186 
 9537 0c2e 70C000FC 		.ascii	"p\300\000\374?\200\000x\037\000\000\000\000\000\000"
 9537      3F800078 
 9537      1F000000 
 9537      000000
 9538 0c3d 00000000 		.ascii	"\000\000\000\000"
 9539 0c41 00000000 		.space	63
 9539      00000000 
 9539      00000000 
 9539      00000000 
 9539      00000000 
 9540 0c80 00000000 		.ascii	"\000\000\000\000\000?\000\000\000\377\201\300\001\300"
 9540      003F0000 
 9540      00FF81C0 
 9540      01C0
ARM GAS  C:\usertemp\ccUDQ5mr.s 			page 248


 9541 0c8e C1C00100 		.ascii	"\301\300\001\000` \002\000  \002\000  \002\000  \002"
 9541      60200200 
 9541      20200200 
 9541      20200200 
 9541      202002
 9542 0ca1 00206002 		.ascii	"\000 `\002\000@\300\001\000\301\200\000\301\217\000"
 9542      0040C001 
 9542      00C18000 
 9542      C18F00
 9543 0cb0 007FFE00 		.ascii	"\000\177\376\000\000\037\360\000\000\000\000\000\000"
 9543      001FF000 
 9543      00000000 
 9543      00
 9544 0cbd 00000000 		.ascii	"\000\000\000\000"
 9545 0cc1 00000000 		.space	63
 9545      00000000 
 9545      00000000 
 9545      00000000 
 9545      00000000 
 9546 0d00 00000000 		.ascii	"\000\000\000\000\000\000\000\000\000\000\000\000\000"
 9546      00000000 
 9546      00000000 
 9546      00
 9547 0d0d 00000000 		.ascii	"\000\000\000\000\000\000\000\000\000\000\000\000\003"
 9547      00000000 
 9547      00000000 
 9547      03
 9548 0d1a 00C00007 		.ascii	"\000\300\000\007\201\340\000\007\201\340\000\003\000"
 9548      81E00007 
 9548      81E00003 
 9548      00
 9549 0d27 C0000000 		.ascii	"\300\000\000\000\000\000\000\000\000\000\000\000\000"
 9549      00000000 
 9549      00000000 
 9549      00
 9550 0d34 00000000 		.ascii	"\000\000\000\000\000\000\000\000\000\000\000\000\000"
 9550      00000000 
 9550      00000000 
 9550      00
 9551 0d41 00000000 		.space	63
 9551      00000000 
 9551      00000000 
 9551      00000000 
 9551      00000000 
 9552 0d80 00000000 		.ascii	"\000\000\000\000\000\000\000\000\000\000\000\000\000"
 9552      00000000 
 9552      00000000 
 9552      00
 9553 0d8d 00000000 		.ascii	"\000\000\000\000\000\000\000\000\000\000\000\000\006"
 9553      00000000 
 9553      00000000 
 9553      06
 9554 0d9a 00660006 		.ascii	"\000f\000\006\000x\000\000\000\000\000\000\000\000\000"
 9554      00780000 
 9554      00000000 
 9554      000000
 9555 0da9 00000000 		.ascii	"\000\000\000\000\000\000\000\000\000\000\000\000\000"
ARM GAS  C:\usertemp\ccUDQ5mr.s 			page 249


 9555      00000000 
 9555      00000000 
 9555      00
 9556 0db6 00000000 		.ascii	"\000\000\000\000\000\000\000\000\000\000\000"
 9556      00000000 
 9556      000000
 9557 0dc1 00000000 		.space	63
 9557      00000000 
 9557      00000000 
 9557      00000000 
 9557      00000000 
 9558 0e00 00000000 		.ascii	"\000\000\000\000\000\000\000\000\000\000\200\000\000"
 9558      00000000 
 9558      00008000 
 9558      00
 9559 0e0d 01C00000 		.ascii	"\001\300\000\000\003`\000\000\0060\000\000\014\030\000"
 9559      03600000 
 9559      06300000 
 9559      0C1800
 9560 0e1c 00180C00 		.ascii	"\000\030\014\000\0000\006\000\000`\003\000\000\300\001"
 9560      00300600 
 9560      00600300 
 9560      00C001
 9561 0e2b 80010000 		.ascii	"\200\001\000\000@\002\000\000 \004\000\000\020\000\000"
 9561      40020000 
 9561      20040000 
 9561      100000
 9562 0e3a 00000000 		.ascii	"\000\000\000\000\000\000\000"
 9562      000000
 9563 0e41 00000000 		.space	63
 9563      00000000 
 9563      00000000 
 9563      00000000 
 9563      00000000 
 9564 0e80 00000000 		.ascii	"\000\000\000\000\000\004\020\000\000\004\020\000\000"
 9564      00041000 
 9564      00041000 
 9564      00
 9565 0e8d 04100000 		.ascii	"\004\020\000\000\004\020\000\000\004\020\000\000\004"
 9565      04100000 
 9565      04100000 
 9565      04
 9566 0e9a 10000004 		.ascii	"\020\000\000\004\020\000\000\004\020\000\000\004\020"
 9566      10000004 
 9566      10000004 
 9566      10
 9567 0ea7 00000410 		.ascii	"\000\000\004\020\000\000\004\020\000\000\004\020\000"
 9567      00000410 
 9567      00000410 
 9567      00
 9568 0eb4 00041000 		.ascii	"\000\004\020\000\000\004\020\000\000\000\000\000\000"
 9568      00041000 
 9568      00000000 
 9568      00
 9569 0ec1 00000000 		.space	63
 9569      00000000 
 9569      00000000 
ARM GAS  C:\usertemp\ccUDQ5mr.s 			page 250


 9569      00000000 
 9569      00000000 
 9570 0f00 00000000 		.ascii	"\000\000\000\000\000\000\000\000\004\000\000\020\002"
 9570      00000000 
 9570      04000010 
 9570      02
 9571 0f0d 00002001 		.ascii	"\000\000 \001\000\000@\000\300\001\200\000`\003\000"
 9571      00004000 
 9571      C0018000 
 9571      600300
 9572 0f1c 00300600 		.ascii	"\0000\006\000\000\030\014\000\000\014\030\000\000\006"
 9572      00180C00 
 9572      000C1800 
 9572      0006
 9573 0f2a 30000003 		.ascii	"0\000\000\003`\000\000\001\300\000\000\000\200\000\000"
 9573      60000001 
 9573      C0000000 
 9573      800000
 9574 0f39 00000000 		.ascii	"\000\000\000\000\000\000\000\000"
 9574      00000000 
 9575 0f41 00000000 		.space	63
 9575      00000000 
 9575      00000000 
 9575      00000000 
 9575      00000000 
 9576 0f80 00000000 		.ascii	"\000\000\000\000\000\000\000\000\000x\000\000\001\370"
 9576      00000000 
 9576      00780000 
 9576      01F8
 9577 0f8e 00000238 		.ascii	"\000\000\0028\000\000\002\000\000\000\004\000\000\300"
 9577      00000200 
 9577      00000400 
 9577      00C0
 9578 0f9c 040079E0 		.ascii	"\004\000y\340\004\000\201\340\004\001\000\300\004\003"
 9578      040081E0 
 9578      040100C0 
 9578      0403
 9579 0faa 00000202 		.ascii	"\000\000\002\002\000\000\003\006\000\000\001\374\000"
 9579      00000306 
 9579      000001FC 
 9579      00
 9580 0fb7 0000F800 		.ascii	"\000\000\370\000\000\000\000\000\000\000"
 9580      00000000 
 9580      0000
 9581 0fc1 00000000 		.space	63
 9581      00000000 
 9581      00000000 
 9581      00000000 
 9581      00000000 
 9582 1000 00000000 		.ascii	"\000\000\000\000\000\017\370\000\000?\376\000\000p\007"
 9582      000FF800 
 9582      003FFE00 
 9582      007007
 9583 100f 8000C000 		.ascii	"\200\000\300\000\300\001\001\370@\003\007\374 \002\036"
 9583      C00101F8 
 9583      400307FC 
 9583      20021E
ARM GAS  C:\usertemp\ccUDQ5mr.s 			page 251


 9584 101e 04200230 		.ascii	"\004 \0020\010 \002 0 \002?\374 \001?\004@\001\200\014"
 9584      08200220 
 9584      3020023F 
 9584      FC20013F 
 9584      04400180 
 9585 1033 C000E031 		.ascii	"\300\000\3401\200\000\037\302\000\000\000\000\000\000"
 9585      80001FC2 
 9585      00000000 
 9585      0000
 9586 1041 00000000 		.space	63
 9586      00000000 
 9586      00000000 
 9586      00000000 
 9586      00000000 
 9587 1080 00000020 		.ascii	"\000\000\000 \000\000\000`\000\000\003\340\000\000>"
 9587      00000060 
 9587      000003E0 
 9587      00003E
 9588 108f 200003E0 		.ascii	" \000\003\340 \000> \000\003\340 \000\003\200 \000\007"
 9588      20003E20 
 9588      0003E020 
 9588      00038020 
 9588      0007
 9589 10a1 FC200000 		.ascii	"\374 \000\000?\340\000\000\003\376 \000\000?\340\000"
 9589      3FE00000 
 9589      03FE2000 
 9589      003FE000 
 9590 10b1 0001E000 		.ascii	"\000\001\340\000\000\000 \000\000\000 \000\000\000\000"
 9590      00002000 
 9590      00002000 
 9590      000000
 9591 10c0 00       		.ascii	"\000"
 9592 10c1 00000000 		.space	63
 9592      00000000 
 9592      00000000 
 9592      00000000 
 9592      00000000 
 9593 1100 00000000 		.ascii	"\000\000\000\000\002\000\000 \002\000\000 \003\377\377"
 9593      02000020 
 9593      02000020 
 9593      03FFFF
 9594 110f E003FFFF 		.ascii	"\340\003\377\377\340\002\001\000 \002\001\000 \002\001"
 9594      E0020100 
 9594      20020100 
 9594      200201
 9595 111e 00200201 		.ascii	"\000 \002\001\000 \002\001\000 \003\003\000 \001\206"
 9595      00200201 
 9595      00200303 
 9595      00200186 
 9596 112e 806001FC 		.ascii	"\200`\001\374\300\300\000\370\177\200\000\000\037\000"
 9596      C0C000F8 
 9596      7F800000 
 9596      1F00
 9597 113c 00000000 		.ascii	"\000\000\000\000\000"
 9597      00
 9598 1141 00000000 		.space	63
 9598      00000000 
ARM GAS  C:\usertemp\ccUDQ5mr.s 			page 252


 9598      00000000 
 9598      00000000 
 9598      00000000 
 9599 1180 00000000 		.ascii	"\000\000\000\000\000\007\370\000\000?\377\000\000p\007"
 9599      0007F800 
 9599      003FFF00 
 9599      007007
 9600 118f 8000C000 		.ascii	"\200\000\300\000\300\001\000\000@\003\000\000 \002\000"
 9600      C0010000 
 9600      40030000 
 9600      200200
 9601 119e 00200200 		.ascii	"\000 \002\000\000 \002\000\000 \002\000\000 \001\000"
 9601      00200200 
 9601      00200200 
 9601      00200100 
 9602 11ae 00400180 		.ascii	"\000@\001\200\000\300\003\300\001\200\0000\006\000\000"
 9602      00C003C0 
 9602      01800030 
 9602      060000
 9603 11bd 00000000 		.ascii	"\000\000\000\000"
 9604 11c1 00000000 		.space	63
 9604      00000000 
 9604      00000000 
 9604      00000000 
 9604      00000000 
 9605 1200 00000000 		.ascii	"\000\000\000\000\002\000\000 \002\000\000 \003\377\377"
 9605      02000020 
 9605      02000020 
 9605      03FFFF
 9606 120f E003FFFF 		.ascii	"\340\003\377\377\340\002\000\000 \002\000\000 \002\000"
 9606      E0020000 
 9606      20020000 
 9606      200200
 9607 121e 00200200 		.ascii	"\000 \002\000\000 \003\000\000`\001\000\000@\001\200"
 9607      00200300 
 9607      00600100 
 9607      00400180 
 9608 122e 00C000F0 		.ascii	"\000\300\000\360\007\200\000\177\376\000\000\017\370"
 9608      0780007F 
 9608      FE00000F 
 9608      F8
 9609 123b 00000000 		.ascii	"\000\000\000\000\000\000"
 9609      0000
 9610 1241 00000000 		.space	63
 9610      00000000 
 9610      00000000 
 9610      00000000 
 9610      00000000 
 9611 1280 00000000 		.ascii	"\000\000\000\000\002\000\000 \002\000\000 \003\377\377"
 9611      02000020 
 9611      02000020 
 9611      03FFFF
 9612 128f E003FFFF 		.ascii	"\340\003\377\377\340\002\001\000 \002\001\000 \002\001"
 9612      E0020100 
 9612      20020100 
 9612      200201
 9613 129e 00200201 		.ascii	"\000 \002\001\000 \002\001\000 \002\003\200 \002\017"
ARM GAS  C:\usertemp\ccUDQ5mr.s 			page 253


 9613      00200201 
 9613      00200203 
 9613      8020020F 
 9614 12ae E0200300 		.ascii	"\340 \003\000\000`\003\300\000\340\000`\003\000\000"
 9614      006003C0 
 9614      00E00060 
 9614      030000
 9615 12bd 00000000 		.ascii	"\000\000\000\000"
 9616 12c1 00000000 		.space	63
 9616      00000000 
 9616      00000000 
 9616      00000000 
 9616      00000000 
 9617 1300 00000000 		.ascii	"\000\000\000\000\002\000\000 \002\000\000 \003\377\377"
 9617      02000020 
 9617      02000020 
 9617      03FFFF
 9618 130f E003FFFF 		.ascii	"\340\003\377\377\340\002\001\000 \002\001\000 \002\001"
 9618      E0020100 
 9618      20020100 
 9618      200201
 9619 131e 00000201 		.ascii	"\000\000\002\001\000\000\002\001\000\000\002\001\000"
 9619      00000201 
 9619      00000201 
 9619      00
 9620 132b 00020380 		.ascii	"\000\002\003\200\000\003\017\340\000\003\000\000\000"
 9620      00030FE0 
 9620      00030000 
 9620      00
 9621 1338 03C00000 		.ascii	"\003\300\000\000\000`\000\000\000"
 9621      00600000 
 9621      00
 9622 1341 00000000 		.space	63
 9622      00000000 
 9622      00000000 
 9622      00000000 
 9622      00000000 
 9623 1380 00000000 		.ascii	"\000\000\000\000\000\007\370\000\000?\376\000\000p\007"
 9623      0007F800 
 9623      003FFE00 
 9623      007007
 9624 138f 8001C001 		.ascii	"\200\001\300\001\300\001\000\000@\003\000\000 \002\000"
 9624      C0010000 
 9624      40030000 
 9624      200200
 9625 139e 00200200 		.ascii	"\000 \002\000\000 \002\000\000 \001\000  \001\000 @"
 9625      00200200 
 9625      00200100 
 9625      20200100 
 9625      2040
 9626 13b0 03C03F80 		.ascii	"\003\300?\200\0000?\200\000\000 \000\000\000 \000\000"
 9626      00303F80 
 9626      00002000 
 9626      00002000 
 9626      00
 9627 13c1 00000000 		.space	63
 9627      00000000 
ARM GAS  C:\usertemp\ccUDQ5mr.s 			page 254


 9627      00000000 
 9627      00000000 
 9627      00000000 
 9628 1400 02000020 		.ascii	"\002\000\000 \002\000\000 \003\377\377\340\003\377\377"
 9628      02000020 
 9628      03FFFFE0 
 9628      03FFFF
 9629 140f E0020080 		.ascii	"\340\002\000\200 \002\000\200 \000\000\200\000\000\000"
 9629      20020080 
 9629      20000080 
 9629      000000
 9630 141e 80000000 		.ascii	"\200\000\000\000\200\000\002\000\200 \002\000\200 \003"
 9630      80000200 
 9630      80200200 
 9630      802003
 9631 142d FFFFE003 		.ascii	"\377\377\340\003\377\377\340\002\000\000 \002\000\000"
 9631      FFFFE002 
 9631      00002002 
 9631      0000
 9632 143b 20000000 		.ascii	" \000\000\000\000\000"
 9632      0000
 9633 1441 00000000 		.space	63
 9633      00000000 
 9633      00000000 
 9633      00000000 
 9633      00000000 
 9634 1480 00000000 		.ascii	"\000\000\000\000\000\000\000\000\000\000\000\000\002"
 9634      00000000 
 9634      00000000 
 9634      02
 9635 148d 00002002 		.ascii	"\000\000 \002\000\000 \002\000\000 \002\000\000 \003"
 9635      00002002 
 9635      00002002 
 9635      00002003 
 9636 149d FFFFE003 		.ascii	"\377\377\340\003\377\377\340\002\000\000 \002\000\000"
 9636      FFFFE002 
 9636      00002002 
 9636      0000
 9637 14ab 20020000 		.ascii	" \002\000\000 \002\000\000 \000\000\000\000\000\000"
 9637      20020000 
 9637      20000000 
 9637      000000
 9638 14ba 00000000 		.ascii	"\000\000\000\000\000\000\000"
 9638      000000
 9639 14c1 00000000 		.space	63
 9639      00000000 
 9639      00000000 
 9639      00000000 
 9639      00000000 
 9640 1500 00000000 		.ascii	"\000\000\000\000\000\000\000\016\000\000\000\017\000"
 9640      0000000E 
 9640      0000000F 
 9640      00
 9641 150d 00000F00 		.ascii	"\000\000\017\000\000\000\001\002\000\000\001\002\000"
 9641      00000102 
 9641      00000102 
 9641      00
ARM GAS  C:\usertemp\ccUDQ5mr.s 			page 255


 9642 151a 00010200 		.ascii	"\000\001\002\000\000\003\002\000\000\006\003\377\377"
 9642      00030200 
 9642      000603FF 
 9642      FF
 9643 1527 FC03FFFF 		.ascii	"\374\003\377\377\370\002\000\000\000\002\000\000\000"
 9643      F8020000 
 9643      00020000 
 9643      00
 9644 1534 02000000 		.ascii	"\002\000\000\000\002\000\000\000\000\000\000\000\000"
 9644      02000000 
 9644      00000000 
 9644      00
 9645 1541 00000000 		.space	63
 9645      00000000 
 9645      00000000 
 9645      00000000 
 9645      00000000 
 9646 1580 00000000 		.ascii	"\000\000\000\000\002\000\000 \002\000\000 \003\377\377"
 9646      02000020 
 9646      02000020 
 9646      03FFFF
 9647 158f E003FFFF 		.ascii	"\340\003\377\377\340\002\000\300 \002\001\000 \000\007"
 9647      E00200C0 
 9647      20020100 
 9647      200007
 9648 159e 8000000F 		.ascii	"\200\000\000\017\340\000\0000\370\000\002`> \003\200"
 9648      E0000030 
 9648      F8000260 
 9648      3E200380 
 9649 15ae 0F200300 		.ascii	"\017 \003\000\003\340\002\000\000\340\002\000\000 \000"
 9649      03E00200 
 9649      00E00200 
 9649      002000
 9650 15bd 00002000 		.ascii	"\000\000 \000"
 9651 15c1 00000000 		.space	63
 9651      00000000 
 9651      00000000 
 9651      00000000 
 9651      00000000 
 9652 1600 00000000 		.ascii	"\000\000\000\000\002\000\000 \002\000\000 \003\377\377"
 9652      02000020 
 9652      02000020 
 9652      03FFFF
 9653 160f E003FFFF 		.ascii	"\340\003\377\377\340\002\000\000 \002\000\000 \000\000"
 9653      E0020000 
 9653      20020000 
 9653      200000
 9654 161e 00200000 		.ascii	"\000 \000\000\000 \000\000\000 \000\000\000 \000\000"
 9654      00200000 
 9654      00200000 
 9654      00200000 
 9655 162e 00200000 		.ascii	"\000 \000\000\000`\000\000\000\340\000\000\003\000\000"
 9655      00600000 
 9655      00E00000 
 9655      030000
 9656 163d 00000000 		.ascii	"\000\000\000\000"
 9657 1641 00000000 		.space	63
ARM GAS  C:\usertemp\ccUDQ5mr.s 			page 256


 9657      00000000 
 9657      00000000 
 9657      00000000 
 9657      00000000 
 9658 1680 02000020 		.ascii	"\002\000\000 \002\000\000 \003\377\377\340\003\340\000"
 9658      02000020 
 9658      03FFFFE0 
 9658      03E000
 9659 168f 2003FF00 		.ascii	" \003\377\000 \000\037\360\000\000\001\377\200\000\000"
 9659      20001FF0 
 9659      000001FF 
 9659      800000
 9660 169e 0FE00000 		.ascii	"\017\340\000\000\036\000\000\003\340\000\000>\000 \003"
 9660      1E000003 
 9660      E000003E 
 9660      002003
 9661 16ad E0002003 		.ascii	"\340\000 \003\377\377\340\003\377\377\340\002\000\000"
 9661      FFFFE003 
 9661      FFFFE002 
 9661      0000
 9662 16bb 20020000 		.ascii	" \002\000\000 \000"
 9662      2000
 9663 16c1 00000000 		.space	63
 9663      00000000 
 9663      00000000 
 9663      00000000 
 9663      00000000 
 9664 1700 02000020 		.ascii	"\002\000\000 \002\000\000 \003\377\377\340\003\200\000"
 9664      02000020 
 9664      03FFFFE0 
 9664      038000
 9665 170f 2003F000 		.ascii	" \003\360\000 \000\374\000\000\000\037\000\000\000\007"
 9665      2000FC00 
 9665      00001F00 
 9665      000007
 9666 171e C0000001 		.ascii	"\300\000\000\001\360\000\000\000|\000\002\000\037\200"
 9666      F0000000 
 9666      7C000200 
 9666      1F80
 9667 172c 020007E0 		.ascii	"\002\000\007\340\003\377\377\340\002\000\000\000\002"
 9667      03FFFFE0 
 9667      02000000 
 9667      02
 9668 1739 00000000 		.ascii	"\000\000\000\000\000\000\000\000"
 9668      00000000 
 9669 1741 00000000 		.space	63
 9669      00000000 
 9669      00000000 
 9669      00000000 
 9669      00000000 
 9670 1780 00000000 		.ascii	"\000\000\000\000\000\017\370\000\000?\376\000\000\360"
 9670      000FF800 
 9670      003FFE00 
 9670      00F0
 9671 178e 07800180 		.ascii	"\007\200\001\200\000\300\001\000\000@\002\000\000 \002"
 9671      00C00100 
 9671      00400200 
ARM GAS  C:\usertemp\ccUDQ5mr.s 			page 257


 9671      002002
 9672 179d 00002002 		.ascii	"\000\000 \002\000\000 \002\000\000 \001\000\000@\001"
 9672      00002002 
 9672      00002001 
 9672      00004001 
 9673 17ad 8000C000 		.ascii	"\200\000\300\000\360\003\200\000?\376\000\000\017\370"
 9673      F0038000 
 9673      3FFE0000 
 9673      0FF8
 9674 17bb 00000000 		.ascii	"\000\000\000\000\000\000"
 9674      0000
 9675 17c1 00000000 		.space	63
 9675      00000000 
 9675      00000000 
 9675      00000000 
 9675      00000000 
 9676 1800 00000000 		.ascii	"\000\000\000\000\002\000\000 \002\000\000 \003\377\377"
 9676      02000020 
 9676      02000020 
 9676      03FFFF
 9677 180f E003FFFF 		.ascii	"\340\003\377\377\340\002\000\200 \002\000\200 \002\000"
 9677      E0020080 
 9677      20020080 
 9677      200200
 9678 181e 80000200 		.ascii	"\200\000\002\000\200\000\002\000\200\000\002\000\200"
 9678      80000200 
 9678      80000200 
 9678      80
 9679 182b 00030180 		.ascii	"\000\003\001\200\000\001\203\000\000\000\376\000\000"
 9679      00018300 
 9679      0000FE00 
 9679      00
 9680 1838 007C0000 		.ascii	"\000|\000\000\000\000\000\000\000"
 9680      00000000 
 9680      00
 9681 1841 00000000 		.space	63
 9681      00000000 
 9681      00000000 
 9681      00000000 
 9681      00000000 
 9682 1880 00000000 		.ascii	"\000\000\000\000\000\017\370\000\000\177\377\000\000"
 9682      000FF800 
 9682      007FFF00 
 9682      00
 9683 188d F0038001 		.ascii	"\360\003\200\001\200\001\300\001\000\006@\002\000\004"
 9683      8001C001 
 9683      00064002 
 9683      0004
 9684 189b 20020004 		.ascii	" \002\000\004 \002\000\006 \002\000\003\340\001\000"
 9684      20020006 
 9684      20020003 
 9684      E00100
 9685 18aa 00F80180 		.ascii	"\000\370\001\200\000\\\000\340\003\214\000?\377\014"
 9685      005C00E0 
 9685      038C003F 
 9685      FF0C
 9686 18b8 000FFC18 		.ascii	"\000\017\374\030\000\000\000\000\000"
ARM GAS  C:\usertemp\ccUDQ5mr.s 			page 258


 9686      00000000 
 9686      00
 9687 18c1 00000000 		.space	63
 9687      00000000 
 9687      00000000 
 9687      00000000 
 9687      00000000 
 9688 1900 00000000 		.ascii	"\000\000\000\000\002\000\000 \002\000\000 \003\377\377"
 9688      02000020 
 9688      02000020 
 9688      03FFFF
 9689 190f E003FFFF 		.ascii	"\340\003\377\377\340\002\001\000 \002\001\000 \002\001"
 9689      E0020100 
 9689      20020100 
 9689      200201
 9690 191e 80000201 		.ascii	"\200\000\002\001\340\000\002\001\374\000\003\003?\200"
 9690      E0000201 
 9690      FC000303 
 9690      3F80
 9691 192c 018607E0 		.ascii	"\001\206\007\340\001\374\000\340\000\370\000 \000\000"
 9691      01FC00E0 
 9691      00F80020 
 9691      0000
 9692 193a 00200000 		.ascii	"\000 \000\000\000\000\000"
 9692      000000
 9693 1941 00000000 		.space	63
 9693      00000000 
 9693      00000000 
 9693      00000000 
 9693      00000000 
 9694 1980 00000000 		.ascii	"\000\000\000\000\000\000\000\000\000x\006\000\000\376"
 9694      00000000 
 9694      00780600 
 9694      00FE
 9695 198e 01E00186 		.ascii	"\001\340\001\206\000\300\003\003\000@\002\003\000 \002"
 9695      00C00303 
 9695      00400203 
 9695      002002
 9696 199d 01802002 		.ascii	"\001\200 \002\001\200 \002\001\300 \002\000\300 \001"
 9696      01802002 
 9696      01C02002 
 9696      00C02001 
 9697 19ad 00E06001 		.ascii	"\000\340`\001\200p\300\003\340?\200\000\000\037\000"
 9697      8070C003 
 9697      E03F8000 
 9697      001F00
 9698 19bc 00000000 		.ascii	"\000\000\000\000\000"
 9698      00
 9699 19c1 00000000 		.space	63
 9699      00000000 
 9699      00000000 
 9699      00000000 
 9699      00000000 
 9700 1a00 00000000 		.ascii	"\000\000\000\000\000`\000\000\003\200\000\000\003\000"
 9700      00600000 
 9700      03800000 
 9700      0300
ARM GAS  C:\usertemp\ccUDQ5mr.s 			page 259


 9701 1a0e 00000200 		.ascii	"\000\000\002\000\000\000\002\000\000 \002\000\000 \003"
 9701      00000200 
 9701      00200200 
 9701      002003
 9702 1a1d FFFFE003 		.ascii	"\377\377\340\003\377\377\340\002\000\000 \002\000\000"
 9702      FFFFE002 
 9702      00002002 
 9702      0000
 9703 1a2b 20020000 		.ascii	" \002\000\000\000\002\000\000\000\003\200\000\000\000"
 9703      00020000 
 9703      00038000 
 9703      0000
 9704 1a39 E0000000 		.ascii	"\340\000\000\000\000\000\000\000"
 9704      00000000 
 9705 1a41 00000000 		.space	63
 9705      00000000 
 9705      00000000 
 9705      00000000 
 9705      00000000 
 9706 1a80 02000000 		.ascii	"\002\000\000\000\002\000\000\000\003\377\377\000\003"
 9706      02000000 
 9706      03FFFF00 
 9706      03
 9707 1a8d FFFFC002 		.ascii	"\377\377\300\002\000\000@\002\000\000`\000\000\000 "
 9707      00004002 
 9707      00006000 
 9707      000020
 9708 1a9c 00000020 		.ascii	"\000\000\000 \000\000\000 \000\000\000 \002\000\000"
 9708      00000020 
 9708      00000020 
 9708      020000
 9709 1aab 40020000 		.ascii	"@\002\000\000\200\003\377\377\000\002\000\000\000\002"
 9709      8003FFFF 
 9709      00020000 
 9709      0002
 9710 1ab9 00000000 		.ascii	"\000\000\000\000\000\000\000\000"
 9710      00000000 
 9711 1ac1 00000000 		.space	63
 9711      00000000 
 9711      00000000 
 9711      00000000 
 9711      00000000 
 9712 1b00 00000000 		.ascii	"\000\000\000\000\002\000\000\000\002\000\000\000\003"
 9712      02000000 
 9712      02000000 
 9712      03
 9713 1b0d C0000003 		.ascii	"\300\000\000\003\374\000\000\002?\300\000\000\003\370"
 9713      FC000002 
 9713      3FC00000 
 9713      03F8
 9714 1b1b 0000007F 		.ascii	"\000\000\000\177\200\000\000\007\340\000\000\007\200"
 9714      80000007 
 9714      E0000007 
 9714      80
 9715 1b28 00007800 		.ascii	"\000\000x\000\002\003\300\000\002<\000\000\003\300\000"
 9715      0203C000 
 9715      023C0000 
ARM GAS  C:\usertemp\ccUDQ5mr.s 			page 260


 9715      03C000
 9716 1b37 00020000 		.ascii	"\000\002\000\000\000\002\000\000\000\000"
 9716      00020000 
 9716      0000
 9717 1b41 00000000 		.space	63
 9717      00000000 
 9717      00000000 
 9717      00000000 
 9717      00000000 
 9718 1b80 02000000 		.ascii	"\002\000\000\000\003\300\000\000\003\377\200\000\002"
 9718      03C00000 
 9718      03FF8000 
 9718      02
 9719 1b8d 3FFE0002 		.ascii	"?\376\000\002\000\177\340\000\000\017\000\002\000\360"
 9719      007FE000 
 9719      000F0002 
 9719      00F0
 9720 1b9b 0003EF00 		.ascii	"\000\003\357\000\000\003\377\200\000\002\017\376\000"
 9720      0003FF80 
 9720      00020FFE 
 9720      00
 9721 1ba8 00003FE0 		.ascii	"\000\000?\340\000\000\037\000\002\007\340\000\003\370"
 9721      00001F00 
 9721      0207E000 
 9721      03F8
 9722 1bb6 00000300 		.ascii	"\000\000\003\000\000\000\002\000\000\000\000"
 9722      00000200 
 9722      000000
 9723 1bc1 00000000 		.space	63
 9723      00000000 
 9723      00000000 
 9723      00000000 
 9723      00000000 
 9724 1c00 00000000 		.ascii	"\000\000\000\000\002\000\000 \002\000\000 \003\200\000"
 9724      02000020 
 9724      02000020 
 9724      038000
 9725 1c0f E003F003 		.ascii	"\340\003\360\003 \002\374\014 \002\0370\000\000\007"
 9725      2002FC0C 
 9725      20021F30 
 9725      000007
 9726 1c1e C0000007 		.ascii	"\300\000\000\007\360\000\002\030|\000\002`\037 \003"
 9726      F0000218 
 9726      7C000260 
 9726      1F2003
 9727 1c2d 8003E002 		.ascii	"\200\003\340\002\000\000\340\002\000\000 \000\000\000"
 9727      0000E002 
 9727      00002000 
 9727      0000
 9728 1c3b 20000000 		.ascii	" \000\000\000\000\000"
 9728      0000
 9729 1c41 00000000 		.space	63
 9729      00000000 
 9729      00000000 
 9729      00000000 
 9729      00000000 
 9730 1c80 00000000 		.ascii	"\000\000\000\000\002\000\000\000\003\000\000\000\003"
ARM GAS  C:\usertemp\ccUDQ5mr.s 			page 261


 9730      02000000 
 9730      03000000 
 9730      03
 9731 1c8d C0000003 		.ascii	"\300\000\000\003\370\000\000\002>\000 \002\017\300 "
 9731      F8000002 
 9731      3E002002 
 9731      0FC020
 9732 1c9c 0001FFE0 		.ascii	"\000\001\377\340\000\000\177\340\000\003\200 \002\034"
 9732      00007FE0 
 9732      00038020 
 9732      021C
 9733 1caa 00200270 		.ascii	"\000 \002p\000\000\003\200\000\000\002\000\000\000\002"
 9733      00000380 
 9733      00000200 
 9733      000002
 9734 1cb9 00000000 		.ascii	"\000\000\000\000\000\000\000\000"
 9734      00000000 
 9735 1cc1 00000000 		.space	63
 9735      00000000 
 9735      00000000 
 9735      00000000 
 9735      00000000 
 9736 1d00 00000000 		.ascii	"\000\000\000\000\000\000\000 \000`\000\340\003\200\003"
 9736      00000020 
 9736      006000E0 
 9736      038003
 9737 1d0f E003000F 		.ascii	"\340\003\000\017\240\002\000> \002\000\370 \002\003"
 9737      A002003E 
 9737      200200F8 
 9737      200203
 9738 1d1e E020020F 		.ascii	"\340 \002\017\200 \002>\000 \002x\000 \003\340\000`"
 9738      8020023E 
 9738      00200278 
 9738      002003E0 
 9738      0060
 9739 1d30 038000E0 		.ascii	"\003\200\000\340\002\000\003\000\000\000\000\000\000"
 9739      02000300 
 9739      00000000 
 9739      00
 9740 1d3d 00000000 		.ascii	"\000\000\000\000"
 9741 1d41 00000000 		.space	63
 9741      00000000 
 9741      00000000 
 9741      00000000 
 9741      00000000 
 9742 1d80 00000000 		.ascii	"\000\000\000\000\000\000\000\000\000\000\000\000\000"
 9742      00000000 
 9742      00000000 
 9742      00
 9743 1d8d 00000000 		.ascii	"\000\000\000\000\000\000\000\000\000\000\000\037\377"
 9743      00000000 
 9743      0000001F 
 9743      FF
 9744 1d9a FFFC1000 		.ascii	"\377\374\020\000\000\004\020\000\000\004\020\000\000"
 9744      00041000 
 9744      00041000 
 9744      00
ARM GAS  C:\usertemp\ccUDQ5mr.s 			page 262


 9745 1da7 04100000 		.ascii	"\004\020\000\000\004\020\000\000\004\020\000\000\004"
 9745      04100000 
 9745      04100000 
 9745      04
 9746 1db4 10000004 		.ascii	"\020\000\000\004\000\000\000\000\000\000\000\000\000"
 9746      00000000 
 9746      00000000 
 9746      00
 9747 1dc1 00000000 		.space	63
 9747      00000000 
 9747      00000000 
 9747      00000000 
 9747      00000000 
 9748 1e00 00000000 		.ascii	"\000\000\000\000\000\000\000\000\000\000\000\000\007"
 9748      00000000 
 9748      00000000 
 9748      07
 9749 1e0d 00000003 		.ascii	"\000\000\000\003\300\000\000\000x\000\000\000\036\000"
 9749      C0000000 
 9749      78000000 
 9749      1E00
 9750 1e1b 000003C0 		.ascii	"\000\000\003\300\000\000\000\360\000\000\000\036\000"
 9750      000000F0 
 9750      0000001E 
 9750      00
 9751 1e28 00000780 		.ascii	"\000\000\007\200\000\000\000\360\000\000\000<\000\000"
 9751      000000F0 
 9751      0000003C 
 9751      0000
 9752 1e36 00060000 		.ascii	"\000\006\000\000\000\000\000\000\000\000\000"
 9752      00000000 
 9752      000000
 9753 1e41 00000000 		.space	63
 9753      00000000 
 9753      00000000 
 9753      00000000 
 9753      00000000 
 9754 1e80 00000000 		.ascii	"\000\000\000\000\000\000\000\000\020\000\000\004\020"
 9754      00000000 
 9754      10000004 
 9754      10
 9755 1e8d 00000410 		.ascii	"\000\000\004\020\000\000\004\020\000\000\004\020\000"
 9755      00000410 
 9755      00000410 
 9755      00
 9756 1e9a 00041000 		.ascii	"\000\004\020\000\000\004\020\000\000\004\037\377\377"
 9756      00041000 
 9756      00041FFF 
 9756      FF
 9757 1ea7 FC000000 		.ascii	"\374\000\000\000\000\000\000\000\000\000\000\000\000"
 9757      00000000 
 9757      00000000 
 9757      00
 9758 1eb4 00000000 		.ascii	"\000\000\000\000\000\000\000\000\000\000\000\000\000"
 9758      00000000 
 9758      00000000 
 9758      00
ARM GAS  C:\usertemp\ccUDQ5mr.s 			page 263


 9759 1ec1 00000000 		.space	63
 9759      00000000 
 9759      00000000 
 9759      00000000 
 9759      00000000 
 9760 1f00 00000000 		.ascii	"\000\000\000\000\000\000\000\000\000\000\000\000\000"
 9760      00000000 
 9760      00000000 
 9760      00
 9761 1f0d 00000002 		.ascii	"\000\000\000\002\000\000\000\004\000\000\000\010\000"
 9761      00000004 
 9761      00000008 
 9761      00
 9762 1f1a 00001800 		.ascii	"\000\000\030\000\000\000\020\000\000\000\030\000\000"
 9762      00001000 
 9762      00001800 
 9762      00
 9763 1f27 00180000 		.ascii	"\000\030\000\000\000\004\000\000\000\002\000\000\000"
 9763      00040000 
 9763      00020000 
 9763      00
 9764 1f34 00000000 		.ascii	"\000\000\000\000\000\000\000\000\000\000\000\000\000"
 9764      00000000 
 9764      00000000 
 9764      00
 9765 1f41 00000000 		.space	63
 9765      00000000 
 9765      00000000 
 9765      00000000 
 9765      00000000 
 9766 1f80 00000001 		.ascii	"\000\000\000\001\000\000\000\001\000\000\000\001\000"
 9766      00000001 
 9766      00000001 
 9766      00
 9767 1f8d 00000100 		.ascii	"\000\000\001\000\000\000\001\000\000\000\001\000\000"
 9767      00000100 
 9767      00000100 
 9767      00
 9768 1f9a 00010000 		.ascii	"\000\001\000\000\000\001\000\000\000\001\000\000\000"
 9768      00010000 
 9768      00010000 
 9768      00
 9769 1fa7 01000000 		.ascii	"\001\000\000\000\001\000\000\000\001\000\000\000\001"
 9769      01000000 
 9769      01000000 
 9769      01
 9770 1fb4 00000001 		.ascii	"\000\000\000\001\000\000\000\001\000\000\000\001\000"
 9770      00000001 
 9770      00000001 
 9770      00
 9771 1fc1 00000000 		.space	63
 9771      00000000 
 9771      00000000 
 9771      00000000 
 9771      00000000 
 9772 2000 00000000 		.ascii	"\000\000\000\000\000\000\000\000\000\000\000\000\020"
 9772      00000000 
ARM GAS  C:\usertemp\ccUDQ5mr.s 			page 264


 9772      00000000 
 9772      10
 9773 200d 00000010 		.ascii	"\000\000\000\020\000\000\000\020\000\000\000\030\000"
 9773      00000010 
 9773      00000018 
 9773      00
 9774 201a 00000800 		.ascii	"\000\000\010\000\000\000\004\000\000\000\000\000\000"
 9774      00000400 
 9774      00000000 
 9774      00
 9775 2027 00000000 		.ascii	"\000\000\000\000\000\000\000\000\000\000\000\000\000"
 9775      00000000 
 9775      00000000 
 9775      00
 9776 2034 00000000 		.ascii	"\000\000\000\000\000\000\000\000\000\000\000\000\000"
 9776      00000000 
 9776      00000000 
 9776      00
 9777 2041 00000000 		.space	63
 9777      00000000 
 9777      00000000 
 9777      00000000 
 9777      00000000 
 9778 2080 00000000 		.ascii	"\000\000\000\000\000\000\003\200\000\001\217\300\000"
 9778      00000380 
 9778      00018FC0 
 9778      00
 9779 208d 038C6000 		.ascii	"\003\214`\000\006\030 \000\004\020 \000\004\020 \000"
 9779      06182000 
 9779      04102000 
 9779      04102000 
 9780 209d 04202000 		.ascii	"\004  \000\004 @\000\006 @\000\003\377\300\000\001\377"
 9780      04204000 
 9780      06204000 
 9780      03FFC000 
 9780      01FF
 9781 20af E0000000 		.ascii	"\340\000\000\000 \000\000\000 \000\000\000\300\000\000"
 9781      20000000 
 9781      20000000 
 9781      C00000
 9782 20be 000000   		.ascii	"\000\000\000"
 9783 20c1 00000000 		.space	63
 9783      00000000 
 9783      00000000 
 9783      00000000 
 9783      00000000 
 9784 2100 00000000 		.ascii	"\000\000\000\000\002\000\000\000\002\000\000\000\003"
 9784      02000000 
 9784      02000000 
 9784      03
 9785 210d FFFFE007 		.ascii	"\377\377\340\007\377\377\300\000\001\200\300\000\002"
 9785      FFFFC000 
 9785      0180C000 
 9785      02
 9786 211a 00600002 		.ascii	"\000`\000\002\000 \000\004\000 \000\004\000 \000\004"
 9786      00200004 
 9786      00200004 
ARM GAS  C:\usertemp\ccUDQ5mr.s 			page 265


 9786      00200004 
 9787 212a 00200006 		.ascii	"\000 \000\006\000@\000\003\000\300\000\001\377\200\000"
 9787      00400003 
 9787      00C00001 
 9787      FF8000
 9788 2139 00FE0000 		.ascii	"\000\376\000\000\000\000\000\000"
 9788      00000000 
 9789 2141 00000000 		.space	63
 9789      00000000 
 9789      00000000 
 9789      00000000 
 9789      00000000 
 9790 2180 00000000 		.ascii	"\000\000\000\000\000\000\000\000\000\000~\000\000\001"
 9790      00000000 
 9790      00007E00 
 9790      0001
 9791 218e FF800003 		.ascii	"\377\200\000\003\201\300\000\002\000@\000\006\000 \000"
 9791      81C00002 
 9791      00400006 
 9791      002000
 9792 219d 04002000 		.ascii	"\004\000 \000\004\000 \000\004\000 \000\006\000 \000"
 9792      04002000 
 9792      04002000 
 9792      06002000 
 9793 21ad 03C04000 		.ascii	"\003\300@\000\001\300\200\000\000\003\000\000\000\000"
 9793      01C08000 
 9793      00030000 
 9793      0000
 9794 21bb 00000000 		.ascii	"\000\000\000\000\000\000"
 9794      0000
 9795 21c1 00000000 		.space	63
 9795      00000000 
 9795      00000000 
 9795      00000000 
 9795      00000000 
 9796 2200 00000000 		.ascii	"\000\000\000\000\000\000\000\000\000\000~\000\000\001"
 9796      00000000 
 9796      00007E00 
 9796      0001
 9797 220e FF800003 		.ascii	"\377\200\000\003\200\300\000\006\000`\000\004\000 \000"
 9797      80C00006 
 9797      00600004 
 9797      002000
 9798 221d 04002000 		.ascii	"\004\000 \000\004\000 \002\004\000@\002\002\000\200"
 9798      04002002 
 9798      04004002 
 9798      020080
 9799 222c 03FFFFE0 		.ascii	"\003\377\377\340\007\377\377\300\000\000\000@\000\000"
 9799      07FFFFC0 
 9799      00000040 
 9799      0000
 9800 223a 00400000 		.ascii	"\000@\000\000\000\000\000"
 9800      000000
 9801 2241 00000000 		.space	63
 9801      00000000 
 9801      00000000 
 9801      00000000 
ARM GAS  C:\usertemp\ccUDQ5mr.s 			page 266


 9801      00000000 
 9802 2280 00000000 		.ascii	"\000\000\000\000\000\000\000\000\000\000~\000\000\001"
 9802      00000000 
 9802      00007E00 
 9802      0001
 9803 228e FF800003 		.ascii	"\377\200\000\003\021\300\000\002\020@\000\004\020`\000"
 9803      11C00002 
 9803      10400004 
 9803      106000
 9804 229d 04102000 		.ascii	"\004\020 \000\004\020 \000\004\020 \000\006\020 \000"
 9804      04102000 
 9804      04102000 
 9804      06102000 
 9805 22ad 03104000 		.ascii	"\003\020@\000\001\360\300\000\000q\000\000\000\000\000"
 9805      01F0C000 
 9805      00710000 
 9805      000000
 9806 22bc 00000000 		.ascii	"\000\000\000\000\000"
 9806      00
 9807 22c1 00000000 		.space	63
 9807      00000000 
 9807      00000000 
 9807      00000000 
 9807      00000000 
 9808 2300 00000000 		.ascii	"\000\000\000\000\000\000\000\000\000\004\000\000\000"
 9808      00000000 
 9808      00040000 
 9808      00
 9809 230d 04002000 		.ascii	"\004\000 \000\004\000 \000\004\000 \000\177\377\340"
 9809      04002000 
 9809      04002000 
 9809      7FFFE0
 9810 231c 01FFFFE0 		.ascii	"\001\377\377\340\001\004\000 \003\004\000 \002\004\000"
 9810      01040020 
 9810      03040020 
 9810      020400
 9811 232b 20020400 		.ascii	" \002\004\000 \002\004\000\000\002\000\000\000\001\300"
 9811      20020400 
 9811      00020000 
 9811      0001C0
 9812 233a 000001C0 		.ascii	"\000\000\001\300\000\000\000"
 9812      000000
 9813 2341 00000000 		.space	63
 9813      00000000 
 9813      00000000 
 9813      00000000 
 9813      00000000 
 9814 2380 00000000 		.ascii	"\000\000\000\000\000\000\000\000\000\000\000\034\000"
 9814      00000000 
 9814      0000001C 
 9814      00
 9815 238d 00E33E00 		.ascii	"\000\343>\000\003\377\302\000\002\014\303\000\004\004"
 9815      03FFC200 
 9815      020CC300 
 9815      0404
 9816 239b C1000404 		.ascii	"\301\000\004\004\301\000\004\004\301\000\004\004\301"
 9816      C1000404 
ARM GAS  C:\usertemp\ccUDQ5mr.s 			page 267


 9816      C1000404 
 9816      C1
 9817 23a8 00060CC1 		.ascii	"\000\006\014\301\000\003\370\303\000\005\360b\000\006"
 9817      0003F8C3 
 9817      0005F062 
 9817      0006
 9818 23b6 007E0006 		.ascii	"\000~\000\006\000<\000\000\000\000\000"
 9818      003C0000 
 9818      000000
 9819 23c1 00000000 		.space	63
 9819      00000000 
 9819      00000000 
 9819      00000000 
 9819      00000000 
 9820 2400 00000000 		.ascii	"\000\000\000\000\002\000\000 \002\000\000 \003\377\377"
 9820      02000020 
 9820      02000020 
 9820      03FFFF
 9821 240f E007FFFF 		.ascii	"\340\007\377\377\340\000\001\000 \000\002\000 \000\006"
 9821      E0000100 
 9821      20000200 
 9821      200006
 9822 241e 00000004 		.ascii	"\000\000\000\004\000\000\000\004\000\000\000\004\000"
 9822      00000004 
 9822      00000004 
 9822      00
 9823 242b 20000600 		.ascii	" \000\006\000 \000\003\377\340\000\001\377\340\000\000"
 9823      200003FF 
 9823      E00001FF 
 9823      E00000
 9824 243a 00200000 		.ascii	"\000 \000\000\000 \000"
 9824      002000
 9825 2441 00000000 		.space	63
 9825      00000000 
 9825      00000000 
 9825      00000000 
 9825      00000000 
 9826 2480 00000000 		.ascii	"\000\000\000\000\000\000\000\000\000\000\000\000\000"
 9826      00000000 
 9826      00000000 
 9826      00
 9827 248d 04002000 		.ascii	"\004\000 \000\004\000 \000\004\000 \000\004\000 \003"
 9827      04002000 
 9827      04002000 
 9827      04002003 
 9828 249d 87FFE003 		.ascii	"\207\377\340\003\217\377\340\003\200\000 \000\000\000"
 9828      8FFFE003 
 9828      80002000 
 9828      0000
 9829 24ab 20000000 		.ascii	" \000\000\000 \000\000\000 \000\000\000\000\000\000"
 9829      20000000 
 9829      20000000 
 9829      000000
 9830 24ba 00000000 		.ascii	"\000\000\000\000\000\000\000"
 9830      000000
 9831 24c1 00000000 		.space	63
 9831      00000000 
ARM GAS  C:\usertemp\ccUDQ5mr.s 			page 268


 9831      00000000 
 9831      00000000 
 9831      00000000 
 9832 2500 00000000 		.ascii	"\000\000\000\000\000\000\000\000\000\000\000\000\000"
 9832      00000000 
 9832      00000000 
 9832      00
 9833 250d 00000600 		.ascii	"\000\000\006\000\000\000\007\000\000\000\001\000\000"
 9833      00000700 
 9833      00000100 
 9833      00
 9834 251a 00010004 		.ascii	"\000\001\000\004\000\001\000\004\000\001\000\004\000"
 9834      00010004 
 9834      00010004 
 9834      00
 9835 2527 03000400 		.ascii	"\003\000\004\000\006\003\207\377\374\003\217\377\370"
 9835      060387FF 
 9835      FC038FFF 
 9835      F8
 9836 2534 03800000 		.ascii	"\003\200\000\000\000\000\000\000\000\000\000\000\000"
 9836      00000000 
 9836      00000000 
 9836      00
 9837 2541 00000000 		.space	63
 9837      00000000 
 9837      00000000 
 9837      00000000 
 9837      00000000 
 9838 2580 00000000 		.ascii	"\000\000\000\000\002\000\000 \002\000\000 \003\377\377"
 9838      02000020 
 9838      02000020 
 9838      03FFFF
 9839 258f E007FFFF 		.ascii	"\340\007\377\377\340\000\000\010 \000\000\020 \000\000"
 9839      E0000008 
 9839      20000010 
 9839      200000
 9840 259e 30000000 		.ascii	"0\000\000\000\374\000\000\005\216\000\000\007\007\240"
 9840      FC000005 
 9840      8E000007 
 9840      07A0
 9841 25ac 000601E0 		.ascii	"\000\006\001\340\000\004\000\340\000\004\000 \000\000"
 9841      000400E0 
 9841      00040020 
 9841      0000
 9842 25ba 00200000 		.ascii	"\000 \000\000\000\000\000"
 9842      000000
 9843 25c1 00000000 		.space	63
 9843      00000000 
 9843      00000000 
 9843      00000000 
 9843      00000000 
 9844 2600 00000000 		.ascii	"\000\000\000\000\000\000\000\000\000\000\000\000\002"
 9844      00000000 
 9844      00000000 
 9844      02
 9845 260d 00002002 		.ascii	"\000\000 \002\000\000 \002\000\000 \002\000\000 \003"
 9845      00002002 
ARM GAS  C:\usertemp\ccUDQ5mr.s 			page 269


 9845      00002002 
 9845      00002003 
 9846 261d FFFFE007 		.ascii	"\377\377\340\007\377\377\340\000\000\000 \000\000\000"
 9846      FFFFE000 
 9846      00002000 
 9846      0000
 9847 262b 20000000 		.ascii	" \000\000\000 \000\000\000 \000\000\000\000\000\000"
 9847      20000000 
 9847      20000000 
 9847      000000
 9848 263a 00000000 		.ascii	"\000\000\000\000\000\000\000"
 9848      000000
 9849 2641 00000000 		.space	63
 9849      00000000 
 9849      00000000 
 9849      00000000 
 9849      00000000 
 9850 2680 00000000 		.ascii	"\000\000\000\000\000\004\000 \000\007\377\340\000\017"
 9850      00040020 
 9850      0007FFE0 
 9850      000F
 9851 268e FFE00002 		.ascii	"\377\340\000\002\000 \000\004\000\000\000\004\000 \000"
 9851      00200004 
 9851      00000004 
 9851      002000
 9852 269d 07FFE000 		.ascii	"\007\377\340\000\003\377\340\000\002\000 \000\004\000"
 9852      03FFE000 
 9852      02002000 
 9852      0400
 9853 26ab 00000400 		.ascii	"\000\000\004\000 \000\007\377\340\000\003\377\340\000"
 9853      200007FF 
 9853      E00003FF 
 9853      E000
 9854 26b9 00002000 		.ascii	"\000\000 \000\000\000\000\000"
 9854      00000000 
 9855 26c1 00000000 		.space	63
 9855      00000000 
 9855      00000000 
 9855      00000000 
 9855      00000000 
 9856 2700 00000000 		.ascii	"\000\000\000\000\000\004\000 \000\004\000 \000\007\377"
 9856      00040020 
 9856      00040020 
 9856      0007FF
 9857 270f E0000FFF 		.ascii	"\340\000\017\377\340\000\001\000 \000\002\000 \000\002"
 9857      E0000100 
 9857      20000200 
 9857      200002
 9858 271e 00000004 		.ascii	"\000\000\000\004\000\000\000\004\000\000\000\004\000"
 9858      00000004 
 9858      00000004 
 9858      00
 9859 272b 20000600 		.ascii	" \000\006\000 \000\003\377\340\000\001\377\340\000\000"
 9859      200003FF 
 9859      E00001FF 
 9859      E00000
 9860 273a 00200000 		.ascii	"\000 \000\000\000 \000"
ARM GAS  C:\usertemp\ccUDQ5mr.s 			page 270


 9860      002000
 9861 2741 00000000 		.space	63
 9861      00000000 
 9861      00000000 
 9861      00000000 
 9861      00000000 
 9862 2780 00000000 		.ascii	"\000\000\000\000\000\000\000\000\000\000~\000\000\000"
 9862      00000000 
 9862      00007E00 
 9862      0000
 9863 278e FF800003 		.ascii	"\377\200\000\003\201\300\000\002\000@\000\006\000 \000"
 9863      81C00002 
 9863      00400006 
 9863      002000
 9864 279d 04002000 		.ascii	"\004\000 \000\004\000 \000\004\000 \000\006\000 \000"
 9864      04002000 
 9864      04002000 
 9864      06002000 
 9865 27ad 02004000 		.ascii	"\002\000@\000\003\201\300\000\001\377\200\000\000~\000"
 9865      0381C000 
 9865      01FF8000 
 9865      007E00
 9866 27bc 00000000 		.ascii	"\000\000\000\000\000"
 9866      00
 9867 27c1 00000000 		.space	63
 9867      00000000 
 9867      00000000 
 9867      00000000 
 9867      00000000 
 9868 2800 00000000 		.ascii	"\000\000\000\000\000\004\000\001\000\004\000\001\000"
 9868      00040001 
 9868      00040001 
 9868      00
 9869 280d 07FFFF00 		.ascii	"\007\377\377\000\017\377\377\000\001\000\301\000\002"
 9869      0FFFFF00 
 9869      0100C100 
 9869      02
 9870 281a 00410004 		.ascii	"\000A\000\004\000 \000\004\000 \000\004\000 \000\004"
 9870      00200004 
 9870      00200004 
 9870      00200004 
 9871 282a 00200006 		.ascii	"\000 \000\006\000@\000\003\001\300\000\001\377\200\000"
 9871      00400003 
 9871      01C00001 
 9871      FF8000
 9872 2839 007E0000 		.ascii	"\000~\000\000\000\000\000\000"
 9872      00000000 
 9873 2841 00000000 		.space	63
 9873      00000000 
 9873      00000000 
 9873      00000000 
 9873      00000000 
 9874 2880 00000000 		.ascii	"\000\000\000\000\000\000\000\000\000\000~\000\000\001"
 9874      00000000 
 9874      00007E00 
 9874      0001
 9875 288e FF800003 		.ascii	"\377\200\000\003\200\300\000\002\000`\000\004\000 \000"
ARM GAS  C:\usertemp\ccUDQ5mr.s 			page 271


 9875      80C00002 
 9875      00600004 
 9875      002000
 9876 289d 04002000 		.ascii	"\004\000 \000\004\000 \000\004\000 \000\002\000A\000"
 9876      04002000 
 9876      04002000 
 9876      02004100 
 9877 28ad 0300C100 		.ascii	"\003\000\301\000\003\377\377\000\007\377\377\000\000"
 9877      03FFFF00 
 9877      07FFFF00 
 9877      00
 9878 28ba 00010000 		.ascii	"\000\001\000\000\000\001\000"
 9878      000100
 9879 28c1 00000000 		.space	63
 9879      00000000 
 9879      00000000 
 9879      00000000 
 9879      00000000 
 9880 2900 00000000 		.ascii	"\000\000\000\000\000\004\000 \000\004\000 \000\004\000"
 9880      00040020 
 9880      00040020 
 9880      000400
 9881 290f 20000400 		.ascii	" \000\004\000 \000\017\377\340\000\017\377\340\000\000"
 9881      20000FFF 
 9881      E0000FFF 
 9881      E00000
 9882 291e C0200001 		.ascii	"\300 \000\001\000 \000\002\000 \000\006\000 \000\004"
 9882      00200002 
 9882      00200006 
 9882      00200004 
 9883 292e 00000004 		.ascii	"\000\000\000\004\000\000\000\007\000\000\000\003\000"
 9883      00000007 
 9883      00000003 
 9883      00
 9884 293b 00000000 		.ascii	"\000\000\000\000\000\000"
 9884      0000
 9885 2941 00000000 		.space	63
 9885      00000000 
 9885      00000000 
 9885      00000000 
 9885      00000000 
 9886 2980 00000000 		.ascii	"\000\000\000\000\000\000\000\000\000\000\003\340\000"
 9886      00000000 
 9886      000003E0 
 9886      00
 9887 298d 01C0E000 		.ascii	"\001\300\340\000\003\340@\000\0060 \000\0040 \000\004"
 9887      03E04000 
 9887      06302000 
 9887      04302000 
 9887      04
 9888 299e 18200004 		.ascii	"\030 \000\004\030 \000\004\030 \000\004\014 \000\002"
 9888      18200004 
 9888      18200004 
 9888      0C200002 
 9889 29ae 0C600003 		.ascii	"\014`\000\003\007\300\000\007\203\200\000\000\000\000"
 9889      07C00007 
 9889      83800000 
ARM GAS  C:\usertemp\ccUDQ5mr.s 			page 272


 9889      0000
 9890 29bc 00000000 		.ascii	"\000\000\000\000\000"
 9890      00
 9891 29c1 00000000 		.space	63
 9891      00000000 
 9891      00000000 
 9891      00000000 
 9891      00000000 
 9892 2a00 00000000 		.ascii	"\000\000\000\000\000\000\000\000\000\004\000\000\000"
 9892      00000000 
 9892      00040000 
 9892      00
 9893 2a0d 04000000 		.ascii	"\004\000\000\000\004\000\000\000\014\000\000\000\037"
 9893      04000000 
 9893      0C000000 
 9893      1F
 9894 2a1a FF8000FF 		.ascii	"\377\200\000\377\377\300\000\004\000`\000\004\000 \000"
 9894      FFC00004 
 9894      00600004 
 9894      002000
 9895 2a29 04002000 		.ascii	"\004\000 \000\004\000 \000\004\000@\000\000\001\200"
 9895      04002000 
 9895      04004000 
 9895      000180
 9896 2a38 00000000 		.ascii	"\000\000\000\000\000\000\000\000\000"
 9896      00000000 
 9896      00
 9897 2a41 00000000 		.space	63
 9897      00000000 
 9897      00000000 
 9897      00000000 
 9897      00000000 
 9898 2a80 00000000 		.ascii	"\000\000\000\000\000\004\000\000\000\004\000\000\000"
 9898      00040000 
 9898      00040000 
 9898      00
 9899 2a8d 07FF8000 		.ascii	"\007\377\200\000\017\377\300\000\000\000`\000\000\000"
 9899      0FFFC000 
 9899      00006000 
 9899      0000
 9900 2a9b 20000000 		.ascii	" \000\000\000 \000\000\000 \000\000\000 \000\004\000"
 9900      20000000 
 9900      20000000 
 9900      20000400 
 9901 2aab 40000400 		.ascii	"@\000\004\000\200\000\007\377\340\000\017\377\300\000"
 9901      800007FF 
 9901      E0000FFF 
 9901      C000
 9902 2ab9 00004000 		.ascii	"\000\000@\000\000\000@\000"
 9902      00004000 
 9903 2ac1 00000000 		.space	63
 9903      00000000 
 9903      00000000 
 9903      00000000 
 9903      00000000 
 9904 2b00 00000000 		.ascii	"\000\000\000\000\000\004\000\000\000\004\000\000\000"
 9904      00040000 
ARM GAS  C:\usertemp\ccUDQ5mr.s 			page 273


 9904      00040000 
 9904      00
 9905 2b0d 07800000 		.ascii	"\007\200\000\000\007\360\000\000\004\376\000\000\004"
 9905      07F00000 
 9905      04FE0000 
 9905      04
 9906 2b1a 1FC00000 		.ascii	"\037\300\000\000\003\340\000\000\003\200\000\000\034"
 9906      03E00000 
 9906      03800000 
 9906      1C
 9907 2b27 00000460 		.ascii	"\000\000\004`\000\000\007\200\000\000\006\000\000\000"
 9907      00000780 
 9907      00000600 
 9907      0000
 9908 2b35 04000000 		.ascii	"\004\000\000\000\000\000\000\000\000\000\000\000"
 9908      00000000 
 9908      00000000 
 9909 2b41 00000000 		.space	63
 9909      00000000 
 9909      00000000 
 9909      00000000 
 9909      00000000 
 9910 2b80 00040000 		.ascii	"\000\004\000\000\000\006\000\000\000\007\300\000\000"
 9910      00060000 
 9910      0007C000 
 9910      00
 9911 2b8d 07FC0000 		.ascii	"\007\374\000\000\004?\200\000\000\003\340\000\004\017"
 9911      043F8000 
 9911      0003E000 
 9911      040F
 9912 2b9b 800006F0 		.ascii	"\200\000\006\360\000\000\007\360\000\000\007\377\200"
 9912      000007F0 
 9912      000007FF 
 9912      80
 9913 2ba8 00040FE0 		.ascii	"\000\004\017\340\000\000\003\200\000\004<\000\000\007"
 9913      00000380 
 9913      00043C00 
 9913      0007
 9914 2bb6 C0000006 		.ascii	"\300\000\000\006\000\000\000\004\000\000\000"
 9914      00000004 
 9914      000000
 9915 2bc1 00000000 		.space	63
 9915      00000000 
 9915      00000000 
 9915      00000000 
 9915      00000000 
 9916 2c00 00000000 		.ascii	"\000\000\000\000\000\000\000 \000\004\000 \000\004\000"
 9916      00000020 
 9916      00040020 
 9916      000400
 9917 2c0f 60000700 		.ascii	"`\000\007\000\340\000\007\203 \000\007\346\000\000\004"
 9917      E0000783 
 9917      200007E6 
 9917      000004
 9918 2c1e F8000000 		.ascii	"\370\000\000\000<\000\000\004^ \000\005\207\240\000"
 9918      3C000004 
 9918      5E200005 
ARM GAS  C:\usertemp\ccUDQ5mr.s 			page 274


 9918      87A000
 9919 2c2d 0601E000 		.ascii	"\006\001\340\000\004\000`\000\004\000 \000\000\000 "
 9919      04006000 
 9919      04002000 
 9919      000020
 9920 2c3c 00000000 		.ascii	"\000\000\000\000\000"
 9920      00
 9921 2c41 00000000 		.space	63
 9921      00000000 
 9921      00000000 
 9921      00000000 
 9921      00000000 
 9922 2c80 00000000 		.ascii	"\000\000\000\000\000\004\000\000\000\004\000\003\000"
 9922      00040000 
 9922      00040003 
 9922      00
 9923 2c8d 07000300 		.ascii	"\007\000\003\000\007\340\001\000\004\370\001\000\004"
 9923      07E00100 
 9923      04F80100 
 9923      04
 9924 2c9a 1F020000 		.ascii	"\037\002\000\000\007\374\000\000\000\340\000\000\007"
 9924      07FC0000 
 9924      00E00000 
 9924      07
 9925 2ca7 00000438 		.ascii	"\000\000\0048\000\000\007\300\000\000\006\000\000\000"
 9925      000007C0 
 9925      00000600 
 9925      0000
 9926 2cb5 04000000 		.ascii	"\004\000\000\000\004\000\000\000\000\000\000\000"
 9926      04000000 
 9926      00000000 
 9927 2cc1 00000000 		.space	63
 9927      00000000 
 9927      00000000 
 9927      00000000 
 9927      00000000 
 9928 2d00 00000000 		.ascii	"\000\000\000\000\000\000\000\000\000\007\200`\000\006"
 9928      00000000 
 9928      00078060 
 9928      0006
 9929 2d0e 00E00004 		.ascii	"\000\340\000\004\003\340\000\004\007\240\000\004\016"
 9929      03E00004 
 9929      07A00004 
 9929      0E
 9930 2d1b 2000043C 		.ascii	" \000\004< \000\004p \000\005\340 \000\007\200 \000"
 9930      20000470 
 9930      200005E0 
 9930      20000780 
 9930      2000
 9931 2d2d 07006000 		.ascii	"\007\000`\000\004\000\340\000\000\003\200\000\000\000"
 9931      0400E000 
 9931      00038000 
 9931      0000
 9932 2d3b 00000000 		.ascii	"\000\000\000\000\000\000"
 9932      0000
 9933 2d41 00000000 		.space	63
 9933      00000000 
ARM GAS  C:\usertemp\ccUDQ5mr.s 			page 275


 9933      00000000 
 9933      00000000 
 9933      00000000 
 9934 2d80 00000000 		.ascii	"\000\000\000\000\000\000\000\000\000\000\000\000\000"
 9934      00000000 
 9934      00000000 
 9934      00
 9935 2d8d 00000000 		.ascii	"\000\000\000\000\000\000\000\000\000\000\000\000\000"
 9935      00000000 
 9935      00000000 
 9935      00
 9936 2d9a 00000000 		.ascii	"\000\000\000\000\200\000\000\000\200\000\000\001@\000"
 9936      80000000 
 9936      80000001 
 9936      4000
 9937 2da8 07FE3FF8 		.ascii	"\007\376?\370\010\000\000\004\020\000\000\002\020\000"
 9937      08000004 
 9937      10000002 
 9937      1000
 9938 2db6 00020000 		.ascii	"\000\002\000\000\000\000\000\000\000\000\000"
 9938      00000000 
 9938      000000
 9939 2dc1 00000000 		.space	63
 9939      00000000 
 9939      00000000 
 9939      00000000 
 9939      00000000 
 9940 2e00 00000000 		.ascii	"\000\000\000\000\000\000\000\000\000\000\000\000\000"
 9940      00000000 
 9940      00000000 
 9940      00
 9941 2e0d 00000000 		.ascii	"\000\000\000\000\000\000\000\000\000\000\000\000\000"
 9941      00000000 
 9941      00000000 
 9941      00
 9942 2e1a 00000000 		.ascii	"\000\000\000\000\000\000\377\377\377\377\000\000\000"
 9942      0000FFFF 
 9942      FFFF0000 
 9942      00
 9943 2e27 00000000 		.ascii	"\000\000\000\000\000\000\000\000\000\000\000\000\000"
 9943      00000000 
 9943      00000000 
 9943      00
 9944 2e34 00000000 		.ascii	"\000\000\000\000\000\000\000\000\000\000\000\000\000"
 9944      00000000 
 9944      00000000 
 9944      00
 9945 2e41 00000000 		.space	63
 9945      00000000 
 9945      00000000 
 9945      00000000 
 9945      00000000 
 9946 2e80 00000000 		.ascii	"\000\000\000\000\000\000\000\000\020\000\000\002\020"
 9946      00000000 
 9946      10000002 
 9946      10
 9947 2e8d 00000208 		.ascii	"\000\000\002\010\000\000\004\007\376?\370\000\001@\000"
ARM GAS  C:\usertemp\ccUDQ5mr.s 			page 276


 9947      00000407 
 9947      FE3FF800 
 9947      014000
 9948 2e9c 00008000 		.ascii	"\000\000\200\000\000\000\200\000\000\000\000\000\000"
 9948      00008000 
 9948      00000000 
 9948      00
 9949 2ea9 00000000 		.ascii	"\000\000\000\000\000\000\000\000\000\000\000\000\000"
 9949      00000000 
 9949      00000000 
 9949      00
 9950 2eb6 00000000 		.ascii	"\000\000\000\000\000\000\000\000\000\000\000"
 9950      00000000 
 9950      000000
 9951 2ec1 00000000 		.space	63
 9951      00000000 
 9951      00000000 
 9951      00000000 
 9951      00000000 
 9952 2f00 00000000 		.ascii	"\000\000\000\000\030\000\000\0000\000\000\000@\000\000"
 9952      18000000 
 9952      30000000 
 9952      400000
 9953 2f0f 00400000 		.ascii	"\000@\000\000\000@\000\000\000 \000\000\0000\000\000"
 9953      00400000 
 9953      00200000 
 9953      00300000 
 9954 2f1f 00080000 		.ascii	"\000\010\000\000\000\004\000\000\000\002\000\000\000"
 9954      00040000 
 9954      00020000 
 9954      00
 9955 2f2c 02000000 		.ascii	"\002\000\000\000\002\000\000\000\014\000\000\000\030"
 9955      02000000 
 9955      0C000000 
 9955      18
 9956 2f39 00000000 		.ascii	"\000\000\000\000\000\000\000\000"
 9956      00000000 
 9957 2f41 00000000 		.space	63
 9957      00000000 
 9957      00000000 
 9957      00000000 
 9957      00000000 
 9958              		.global	asc2_2412
 9959              		.section	.rodata.asc2_2412,"a"
 9960              		.align	2
 9963              	asc2_2412:
 9964 0000 00000000 		.ascii	"\000\000\000\000\000\000\000\000\000\000\000\000\000"
 9964      00000000 
 9964      00000000 
 9964      00
 9965 000d 00000000 		.ascii	"\000\000\000\000\000\000\000\000\000\000\000\000\000"
 9965      00000000 
 9965      00000000 
 9965      00
 9966 001a 00000000 		.ascii	"\000\000\000\000\000\000\000\000\000\000"
 9966      00000000 
 9966      0000
ARM GAS  C:\usertemp\ccUDQ5mr.s 			page 277


 9967 0024 00000000 		.ascii	"\000\000\000\000\000\000\000\000\000\000\000\000\000"
 9967      00000000 
 9967      00000000 
 9967      00
 9968 0031 00000F80 		.ascii	"\000\000\017\2008\017\3768\017\2008\000\000\000\000"
 9968      380FFE38 
 9968      0F803800 
 9968      000000
 9969 0040 00000000 		.ascii	"\000\000\000\000\000\000\000\000"
 9969      00000000 
 9970 0048 00000000 		.ascii	"\000\000\000\000\000\000\001\000\000\006\000\000\014"
 9970      00000100 
 9970      00060000 
 9970      0C
 9971 0055 00003800 		.ascii	"\000\0008\000\0001\000\000\006\000\000\014\000\0008"
 9971      00310000 
 9971      0600000C 
 9971      000038
 9972 0064 00003000 		.ascii	"\000\0000\000\000\000\000\000"
 9972      00000000 
 9973 006c 00000000 		.ascii	"\000\000\000\000a\200\000g\370\007\371\200\000a\200"
 9973      61800067 
 9973      F807F980 
 9973      006180
 9974 007b 00618000 		.ascii	"\000a\200\000a\200\000a\200\000g\370\007\371\200\000"
 9974      61800061 
 9974      800067F8 
 9974      07F98000 
 9975 008b 61800000 		.ascii	"a\200\000\000\000"
 9975      00
 9976 0090 00000000 		.ascii	"\000\000\000\000\000\000\001\300\340\003\340\360\006"
 9976      000001C0 
 9976      E003E0F0 
 9976      06
 9977 009d 30080418 		.ascii	"0\010\004\030\010\037\377\376\004\016\010\007\207\360"
 9977      081FFFFE 
 9977      040E0807 
 9977      87F0
 9978 00ab 0381E000 		.ascii	"\003\201\340\000\000\000\000\000\000"
 9978      00000000 
 9978      00
 9979 00b4 01F00006 		.ascii	"\001\360\000\006\014\000\004\004\010\006\014p\001\371"
 9979      0C000404 
 9979      08060C70 
 9979      01F9
 9980 00c2 C0000E00 		.ascii	"\300\000\016\000\000;\340\000\354\030\007\010\010\004"
 9980      003BE000 
 9980      EC180708 
 9980      0804
 9981 00d0 0C180003 		.ascii	"\014\030\000\003\340\000\000\000"
 9981      E0000000 
 9982 00d8 0001E000 		.ascii	"\000\001\340\000\007\360\003\370\030\004\034\010\004"
 9982      07F003F8 
 9982      18041C08 
 9982      04
 9983 00e5 170807E1 		.ascii	"\027\010\007\341\320\003\300\340\000#\260\000<\010\000"
 9983      D003C0E0 
ARM GAS  C:\usertemp\ccUDQ5mr.s 			page 278


 9983      0023B000 
 9983      3C0800
 9984 00f4 20080000 		.ascii	" \010\000\000\020\000\000\000"
 9984      10000000 
 9985 00fc 00000001 		.ascii	"\000\000\000\001\000\0001\000\0002\000\000\034\000\000"
 9985      00003100 
 9985      00320000 
 9985      1C0000
 9986 010b 00000000 		.ascii	"\000\000\000\000\000\000\000\000\000\000\000\000\000"
 9986      00000000 
 9986      00000000 
 9986      00
 9987 0118 00000000 		.ascii	"\000\000\000\000\000\000\000\000"
 9987      00000000 
 9988 0120 00000000 		.ascii	"\000\000\000\000\000\000\000\000\000\000\000\000\000"
 9988      00000000 
 9988      00000000 
 9988      00
 9989 012d 0000007F 		.ascii	"\000\000\000\177\000\001\377\300\007\200\360\014\000"
 9989      0001FFC0 
 9989      0780F00C 
 9989      00
 9990 013a 18100004 		.ascii	"\030\020\000\004 \000\002\000\000\000"
 9990      20000200 
 9990      0000
 9991 0144 00000020 		.ascii	"\000\000\000 \000\002\020\000\004\014\000\030\007\200"
 9991      00021000 
 9991      040C0018 
 9991      0780
 9992 0152 F001FFC0 		.ascii	"\360\001\377\300\000\177\000\000\000\000\000\000\000"
 9992      007F0000 
 9992      00000000 
 9992      00
 9993 015f 00000000 		.ascii	"\000\000\000\000\000\000\000\000\000"
 9993      00000000 
 9993      00
 9994 0168 00000000 		.ascii	"\000\000\000\000B\000\000f\000\000f\000\000<\000\000"
 9994      42000066 
 9994      00006600 
 9994      003C0000 
 9995 0178 180003FF 		.ascii	"\030\000\003\377\300\000\030\000\000<\000\000f\000\000"
 9995      C0001800 
 9995      003C0000 
 9995      660000
 9996 0187 66000042 		.ascii	"f\000\000B\000"
 9996      00
 9997 018c 00000000 		.ascii	"\000\000\000\000\010\000\000\010\000\000\010\000\000"
 9997      08000008 
 9997      00000800 
 9997      00
 9998 0199 08000008 		.ascii	"\010\000\000\010\000\001\377\300\000\010\000\000\010"
 9998      0001FFC0 
 9998      00080000 
 9998      08
 9999 01a6 00000800 		.ascii	"\000\000\010\000\000\010\000\000\010\000"
 9999      00080000 
 9999      0800
ARM GAS  C:\usertemp\ccUDQ5mr.s 			page 279


 10000 01b0 00000000 		.ascii	"\000\000\000\000\000\001\000\0001\000\0002\000\000\034"
 10000      00010000 
 10000      31000032 
 10000      00001C
 10001 01bf 00000000 		.ascii	"\000\000\000\000\000\000\000\000\000\000\000\000\000"
 10001      00000000 
 10001      00000000 
 10001      00
 10002 01cc 00000000 		.ascii	"\000\000\000\000\000\000\000\000"
 10002      00000000 
 10003 01d4 00000000 		.ascii	"\000\000\000\000\010\000\000\010\000\000\010\000\000"
 10003      08000008 
 10003      00000800 
 10003      00
 10004 01e1 08000008 		.ascii	"\010\000\000\010\000\000\010\000\000\010\000\000\010"
 10004      00000800 
 10004      00080000 
 10004      08
 10005 01ee 00000800 		.ascii	"\000\000\010\000\000\010\000\000\000\000"
 10005      00080000 
 10005      0000
 10006 01f8 00000000 		.ascii	"\000\000\000\000\000\000\000\0008\000\0008\000\0008"
 10006      00000000 
 10006      38000038 
 10006      000038
 10007 0207 00000000 		.ascii	"\000\000\000\000\000\000\000\000\000\000\000\000\000"
 10007      00000000 
 10007      00000000 
 10007      00
 10008 0214 00000000 		.ascii	"\000\000\000\000\000\000\000\000"
 10008      00000000 
 10009 021c 00000000 		.ascii	"\000\000\000\000\000\006\000\000\034\000\000p\000\001"
 10009      00060000 
 10009      1C000070 
 10009      0001
 10010 022a 80000E00 		.ascii	"\200\000\016\000\0008\000\000\300\000\007\000\000\034"
 10010      00380000 
 10010      C0000700 
 10010      001C
 10011 0238 00003000 		.ascii	"\000\0000\000\000\000\000\000"
 10011      00000000 
 10012 0240 00000000 		.ascii	"\000\000\000\000\177\200\001\377\340\003\200p\006\000"
 10012      7F8001FF 
 10012      E0038070 
 10012      0600
 10013 024e 18040008 		.ascii	"\030\004\000\010\004\000\010\006\000\030\003\200p\001"
 10013      04000806 
 10013      00180380 
 10013      7001
 10014 025c FFE0007F 		.ascii	"\377\340\000\177\200\000\000\000"
 10014      80000000 
 10015 0264 00000000 		.ascii	"\000\000\000\000\000\000\001\000\010\001\000\010\001"
 10015      00000100 
 10015      08010008 
 10015      01
 10016 0271 000803FF 		.ascii	"\000\010\003\377\370\007\377\370\000\000\010\000\000"
 10016      F807FFF8 
ARM GAS  C:\usertemp\ccUDQ5mr.s 			page 280


 10016      00000800 
 10016      00
 10017 027e 08000008 		.ascii	"\010\000\000\010\000\000\000\000\000\000"
 10017      00000000 
 10017      0000
 10018 0288 00000001 		.ascii	"\000\000\000\001\3008\002\300X\004\000\230\004\001\030"
 10018      C03802C0 
 10018      58040098 
 10018      040118
 10019 0297 04021804 		.ascii	"\004\002\030\004\004\030\006\034\030\003\370\030\001"
 10019      0418061C 
 10019      1803F818 
 10019      01
 10020 02a4 E0F80000 		.ascii	"\340\370\000\000\000\000\000\000"
 10020      00000000 
 10021 02ac 00000001 		.ascii	"\000\000\000\001\300\340\003\300\360\004\000\010\004"
 10021      C0E003C0 
 10021      F0040008 
 10021      04
 10022 02b9 08080408 		.ascii	"\010\010\004\010\010\006\030\010\003\364\030\001\347"
 10022      08061808 
 10022      03F41801 
 10022      E7
 10023 02c6 F00001E0 		.ascii	"\360\000\001\340\000\000\000\000\000\000"
 10023      00000000 
 10023      0000
 10024 02d0 00000000 		.ascii	"\000\000\000\000\003\000\000\015\000\000\021\000\000"
 10024      0300000D 
 10024      00001100 
 10024      00
 10025 02dd 61000081 		.ascii	"a\000\000\201\010\003\001\010\007\377\370\017\377\370"
 10025      08030108 
 10025      07FFF80F 
 10025      FFF8
 10026 02eb 00010800 		.ascii	"\000\001\010\000\001\010\000\000\000"
 10026      01080000 
 10026      00
 10027 02f4 00000000 		.ascii	"\000\000\000\000\000\340\007\374\320\006\010\010\006"
 10027      00E007FC 
 10027      D0060808 
 10027      06
 10028 0301 10080610 		.ascii	"\020\010\006\020\010\006\020\010\006\0308\006\017\360"
 10028      08061008 
 10028      06183806 
 10028      0FF0
 10029 030f 0607C000 		.ascii	"\006\007\300\000\000\000\000\000\000"
 10029      00000000 
 10029      00
 10030 0318 00000000 		.ascii	"\000\000\000\000?\200\001\377\340\003\2040\002\010\030"
 10030      3F8001FF 
 10030      E0038430 
 10030      020818
 10031 0327 04100804 		.ascii	"\004\020\010\004\020\010\004\020\010\007\030\020\003"
 10031      10080410 
 10031      08071810 
 10031      03
 10032 0334 0FF00007 		.ascii	"\017\360\000\007\300\000\000\000"
ARM GAS  C:\usertemp\ccUDQ5mr.s 			page 281


 10032      C0000000 
 10033 033c 00000000 		.ascii	"\000\000\000\000\000\000\003\300\000\007\000\000\006"
 10033      000003C0 
 10033      00070000 
 10033      06
 10034 0349 00000600 		.ascii	"\000\000\006\000\370\006\007\370\006\030\000\006\340"
 10034      F80607F8 
 10034      06180006 
 10034      E0
 10035 0356 00070000 		.ascii	"\000\007\000\000\006\000\000\000\000\000"
 10035      06000000 
 10035      0000
 10036 0360 00000001 		.ascii	"\000\000\000\001\341\340\003\367\360\0064\020\004\030"
 10036      E1E003F7 
 10036      F0063410 
 10036      0418
 10037 036e 08041808 		.ascii	"\010\004\030\010\004\014\010\004\014\010\006\026\030"
 10037      040C0804 
 10037      0C080616 
 10037      18
 10038 037b 03F3F001 		.ascii	"\003\363\360\001\301\340\000\000\000"
 10038      C1E00000 
 10038      00
 10039 0384 00000000 		.ascii	"\000\000\000\000\370\000\003\3740\003\0068\004\002\010"
 10039      F80003FC 
 10039      30030638 
 10039      040208
 10040 0393 04020804 		.ascii	"\004\002\010\004\002\010\004\004\020\003\010\360\001"
 10040      02080404 
 10040      100308F0 
 10040      01
 10041 03a0 FFC0007F 		.ascii	"\377\300\000\177\000\000\000\000"
 10041      00000000 
 10042 03a8 00000000 		.ascii	"\000\000\000\000\000\000\000\000\000\000\000\000\000"
 10042      00000000 
 10042      00000000 
 10042      00
 10043 03b5 00000070 		.ascii	"\000\000\000p8\000p8\000p8\000\000\000\000\000\000\000"
 10043      38007038 
 10043      00703800 
 10043      00000000 
 10043      0000
 10044 03c7 00000000 		.ascii	"\000\000\000\000\000"
 10044      00
 10045 03cc 00000000 		.ascii	"\000\000\000\000\000\000\000\000\000\000\000\000\000"
 10045      00000000 
 10045      00000000 
 10045      00
 10046 03d9 00000030 		.ascii	"\000\000\0000\032\0000\034\000\000\000\000\000\000\000"
 10046      1A00301C 
 10046      00000000 
 10046      000000
 10047 03e8 00000000 		.ascii	"\000\000\000\000\000\000\000\000"
 10047      00000000 
 10048 03f0 00000000 		.ascii	"\000\000\000\000\000\000\000\010\000\000\024\000\000"
 10048      00000008 
 10048      00001400 
ARM GAS  C:\usertemp\ccUDQ5mr.s 			page 282


 10048      00
 10049 03fd 22000041 		.ascii	"\"\000\000A\000\000\200\200\001\000@\002\000 \004\000"
 10049      00008080 
 10049      01004002 
 10049      00200400 
 10050 040d 10080008 		.ascii	"\020\010\000\010\000\000\000"
 10050      000000
 10051 0414 00000000 		.ascii	"\000\000\000\000!\000\000!\000\000!\000\000!\000\000"
 10051      21000021 
 10051      00002100 
 10051      00210000 
 10052 0424 21000021 		.ascii	"!\000\000!\000\000!\000\000!\000\000!\000\000!\000\000"
 10052      00002100 
 10052      00210000 
 10052      21000021 
 10052      0000
 10053 0436 0000     		.ascii	"\000\000"
 10054 0438 00000000 		.ascii	"\000\000\000\000\000\000\010\000\010\004\000\020\002"
 10054      00000800 
 10054      08040010 
 10054      02
 10055 0445 00200100 		.ascii	"\000 \001\000@\000\200\200\000A\000\000\"\000\000\024"
 10055      40008080 
 10055      00410000 
 10055      22000014 
 10056 0455 00000800 		.ascii	"\000\000\010\000\000\000\000"
 10056      000000
 10057 045c 00000003 		.ascii	"\000\000\000\003\300\000\004\300\000\004\000\000\010"
 10057      C00004C0 
 10057      00040000 
 10057      08
 10058 0469 0038080F 		.ascii	"\0008\010\0178\010\0108\010\020\000\0140\000\007\340"
 10058      38080838 
 10058      0810000C 
 10058      300007E0 
 10059 0479 0003C000 		.ascii	"\000\003\300\000\000\000\000"
 10059      000000
 10060 0480 00000000 		.ascii	"\000\000\000\000?\200\000\377\340\003\200p\002\017\020"
 10060      3F8000FF 
 10060      E0038070 
 10060      020F10
 10061 048f 06708804 		.ascii	"\006p\210\004\300\210\004\203\010\004\177\210\002\300"
 10061      C0880483 
 10061      08047F88 
 10061      02C0
 10062 049d 90030120 		.ascii	"\220\003\001 \000\376@"
 10062      00FE40
 10063 04a4 00000800 		.ascii	"\000\000\010\000\000\030\000\001\370\000>\010\001\302"
 10063      00180001 
 10063      F8003E08 
 10063      01C2
 10064 04b2 00070200 		.ascii	"\000\007\002\000\007\342\000\000\376\000\000\037\310"
 10064      07E20000 
 10064      FE00001F 
 10064      C8
 10065 04bf 0001F800 		.ascii	"\000\001\370\000\0008\000\000\010"
 10065      00380000 
ARM GAS  C:\usertemp\ccUDQ5mr.s 			page 283


 10065      08
 10066 04c8 04000807 		.ascii	"\004\000\010\007\377\370\007\377\370\004\010\010\004"
 10066      FFF807FF 
 10066      F8040808 
 10066      04
 10067 04d5 08080408 		.ascii	"\010\010\004\010\010\004\010\010\006\030\010\003\364"
 10067      08040808 
 10067      06180803 
 10067      F4
 10068 04e2 1801E7F0 		.ascii	"\030\001\347\360\000\001\340\000\000\000"
 10068      0001E000 
 10068      0000
 10069 04ec 00000000 		.ascii	"\000\000\000\000?\200\001\377\340\003\200p\002\000\030"
 10069      3F8001FF 
 10069      E0038070 
 10069      020018
 10070 04fb 04000804 		.ascii	"\004\000\010\004\000\010\004\000\010\004\000\020\006"
 10070      00080400 
 10070      08040010 
 10070      06
 10071 0508 00200780 		.ascii	"\000 \007\200\300\000\000\000"
 10071      C0000000 
 10072 0510 04000807 		.ascii	"\004\000\010\007\377\370\007\377\370\004\000\010\004"
 10072      FFF807FF 
 10072      F8040008 
 10072      04
 10073 051d 00080400 		.ascii	"\000\010\004\000\010\004\000\030\002\000\020\003\200"
 10073      08040018 
 10073      02001003 
 10073      80
 10074 052a 7001FFE0 		.ascii	"p\001\377\340\000\177\200\000\000\000"
 10074      007F8000 
 10074      0000
 10075 0534 04000807 		.ascii	"\004\000\010\007\377\370\007\377\370\004\010\010\004"
 10075      FFF807FF 
 10075      F8040808 
 10075      04
 10076 0541 08080408 		.ascii	"\010\010\004\010\010\004\010\010\004>\010\004\000\010"
 10076      08040808 
 10076      043E0804 
 10076      0008
 10077 054f 06001801 		.ascii	"\006\000\030\001\000`\000\000\000"
 10077      00600000 
 10077      00
 10078 0558 04000807 		.ascii	"\004\000\010\007\377\370\007\377\370\004\010\010\004"
 10078      FFF807FF 
 10078      F8040808 
 10078      04
 10079 0565 08000408 		.ascii	"\010\000\004\010\000\004\010\000\004>\000\006\000\000"
 10079      00040800 
 10079      043E0006 
 10079      0000
 10080 0573 06000001 		.ascii	"\006\000\000\001\200\000\000\000\000"
 10080      80000000 
 10080      00
 10081 057c 00000000 		.ascii	"\000\000\000\000?\200\001\377\340\003\200p\006\000\030"
 10081      3F8001FF 
ARM GAS  C:\usertemp\ccUDQ5mr.s 			page 284


 10081      E0038070 
 10081      060018
 10082 058b 04000804 		.ascii	"\004\000\010\004\002\010\004\002\010\002\003\360\007"
 10082      02080402 
 10082      080203F0 
 10082      07
 10083 0598 83F00002 		.ascii	"\203\360\000\002\000\000\002\000"
 10083      00000200 
 10084 05a0 04000807 		.ascii	"\004\000\010\007\377\370\007\377\370\004\010\010\000"
 10084      FFF807FF 
 10084      F8040808 
 10084      00
 10085 05ad 08000008 		.ascii	"\010\000\000\010\000\000\010\000\000\010\000\004\010"
 10085      00000800 
 10085      00080004 
 10085      08
 10086 05ba 0807FFF8 		.ascii	"\010\007\377\370\007\377\370\004\000\010"
 10086      07FFF804 
 10086      0008
 10087 05c4 00000000 		.ascii	"\000\000\000\000\000\000\004\000\010\004\000\010\004"
 10087      00000400 
 10087      08040008 
 10087      04
 10088 05d1 000807FF 		.ascii	"\000\010\007\377\370\007\377\370\004\000\010\004\000"
 10088      F807FFF8 
 10088      04000804 
 10088      00
 10089 05de 08040008 		.ascii	"\010\004\000\010\000\000\000\000\000\000"
 10089      00000000 
 10089      0000
 10090 05e8 00000000 		.ascii	"\000\000\000\000\000\006\000\000\007\000\000\001\004"
 10090      00060000 
 10090      07000001 
 10090      04
 10091 05f5 00010400 		.ascii	"\000\001\004\000\001\004\000\003\007\377\376\007\377"
 10091      01040003 
 10091      07FFFE07 
 10091      FF
 10092 0602 FC040000 		.ascii	"\374\004\000\000\004\000\000\004\000\000"
 10092      04000004 
 10092      0000
 10093 060c 04000807 		.ascii	"\004\000\010\007\377\370\007\377\370\004\014\010\000"
 10093      FFF807FF 
 10093      F8040C08 
 10093      00
 10094 0619 1800003E 		.ascii	"\030\000\000>\000\004\307\200\005\003\310\006\000\370"
 10094      0004C780 
 10094      0503C806 
 10094      00F8
 10095 0627 04003804 		.ascii	"\004\0008\004\000\030\000\000\010"
 10095      00180000 
 10095      08
 10096 0630 04000807 		.ascii	"\004\000\010\007\377\370\007\377\370\004\000\010\000"
 10096      FFF807FF 
 10096      F8040008 
 10096      00
 10097 063d 00080000 		.ascii	"\000\010\000\000\010\000\000\010\000\000\010\000\000"
ARM GAS  C:\usertemp\ccUDQ5mr.s 			page 285


 10097      08000008 
 10097      00000800 
 10097      00
 10098 064a 08000018 		.ascii	"\010\000\000\030\000\000`\000\000\000"
 10098      00006000 
 10098      0000
 10099 0654 04000807 		.ascii	"\004\000\010\007\377\370\007\200\010\007\374\000\000"
 10099      FFF80780 
 10099      0807FC00 
 10099      00
 10100 0661 7FC00003 		.ascii	"\177\300\000\003\370\000\007\300\000x\000\007\200\010"
 10100      F80007C0 
 10100      00780007 
 10100      8008
 10101 066f 07FFF807 		.ascii	"\007\377\370\007\377\370\004\000\010"
 10101      FFF80400 
 10101      08
 10102 0678 04000807 		.ascii	"\004\000\010\007\377\370\007\000\010\003\300\000\000"
 10102      FFF80700 
 10102      0803C000 
 10102      00
 10103 0685 E0000038 		.ascii	"\340\000\0008\000\000\036\000\000\007\000\000\001\300"
 10103      00001E00 
 10103      00070000 
 10103      01C0
 10104 0693 0400F007 		.ascii	"\004\000\360\007\377\370\004\000\000"
 10104      FFF80400 
 10104      00
 10105 069c 00000000 		.ascii	"\000\000\000\000\177\200\001\377\340\003\200p\006\000"
 10105      7F8001FF 
 10105      E0038070 
 10105      0600
 10106 06aa 18040008 		.ascii	"\030\004\000\010\004\000\010\006\000\030\003\0000\001"
 10106      04000806 
 10106      00180300 
 10106      3001
 10107 06b8 FFE0007F 		.ascii	"\377\340\000\177\200\000\000\000"
 10107      80000000 
 10108 06c0 04000807 		.ascii	"\004\000\010\007\377\370\007\377\370\004\004\010\004"
 10108      FFF807FF 
 10108      F8040408 
 10108      04
 10109 06cd 04000404 		.ascii	"\004\000\004\004\000\004\004\000\004\004\000\006\014"
 10109      00040400 
 10109      04040006 
 10109      0C
 10110 06da 0003F800 		.ascii	"\000\003\370\000\001\360\000\000\000\000"
 10110      01F00000 
 10110      0000
 10111 06e4 00000000 		.ascii	"\000\000\000\000\177\200\001\377\340\003\200p\006\000"
 10111      7F8001FF 
 10111      E0038070 
 10111      0600
 10112 06f2 88040088 		.ascii	"\210\004\000\210\004\000\310\006\000<\003\000>\001\377"
 10112      0400C806 
 10112      003C0300 
 10112      3E01FF
ARM GAS  C:\usertemp\ccUDQ5mr.s 			page 286


 10113 0701 E6007F84 		.ascii	"\346\000\177\204\000\000\000"
 10113      000000
 10114 0708 04000807 		.ascii	"\004\000\010\007\377\370\007\377\370\004\010\010\004"
 10114      FFF807FF 
 10114      F8040808 
 10114      04
 10115 0715 0800040C 		.ascii	"\010\000\004\014\000\004\017\000\004\013\300\006\020"
 10115      00040F00 
 10115      040BC006 
 10115      10
 10116 0722 F003F038 		.ascii	"\360\003\3608\001\340\010\000\000\010"
 10116      01E00800 
 10116      0008
 10117 072c 00000001 		.ascii	"\000\000\000\001\340\370\003\3600\0060\020\004\030\010"
 10117      E0F803F0 
 10117      30063010 
 10117      041808
 10118 073b 04180804 		.ascii	"\004\030\010\004\014\010\004\014\010\002\006\030\002"
 10118      0C08040C 
 10118      08020618 
 10118      02
 10119 0748 07F00781 		.ascii	"\007\360\007\201\340\000\000\000"
 10119      E0000000 
 10120 0750 01800006 		.ascii	"\001\200\000\006\000\000\004\000\000\004\000\000\004"
 10120      00000400 
 10120      00040000 
 10120      04
 10121 075d 000807FF 		.ascii	"\000\010\007\377\370\007\377\370\004\000\010\004\000"
 10121      F807FFF8 
 10121      04000804 
 10121      00
 10122 076a 00040000 		.ascii	"\000\004\000\000\006\000\000\001\200\000"
 10122      06000001 
 10122      8000
 10123 0774 04000007 		.ascii	"\004\000\000\007\377\340\007\377\360\004\000\030\000"
 10123      FFE007FF 
 10123      F0040018 
 10123      00
 10124 0781 00080000 		.ascii	"\000\010\000\000\010\000\000\010\000\000\010\000\000"
 10124      08000008 
 10124      00000800 
 10124      00
 10125 078e 08040010 		.ascii	"\010\004\000\020\007\377\340\004\000\000"
 10125      07FFE004 
 10125      0000
 10126 0798 04000006 		.ascii	"\004\000\000\006\000\000\007\340\000\007\376\000\004"
 10126      000007E0 
 10126      0007FE00 
 10126      04
 10127 07a5 1FE00001 		.ascii	"\037\340\000\001\370\000\0008\000\001\340\004>\000\007"
 10127      F8000038 
 10127      0001E004 
 10127      3E0007
 10128 07b4 C0000600 		.ascii	"\300\000\006\000\000\004\000\000"
 10128      00040000 
 10129 07bc 04000007 		.ascii	"\004\000\000\007\340\000\007\377\300\004\037\370\000"
 10129      E00007FF 
ARM GAS  C:\usertemp\ccUDQ5mr.s 			page 287


 10129      C0041FF8 
 10129      00
 10130 07c9 07C007F8 		.ascii	"\007\300\007\370\000\007\377\200\004?\370\000\007\300"
 10130      0007FF80 
 10130      043FF800 
 10130      07C0
 10131 07d7 04F80007 		.ascii	"\004\370\000\007\000\000\004\000\000"
 10131      00000400 
 10131      00
 10132 07e0 00000004 		.ascii	"\000\000\000\004\000\010\006\000\030\007\300x\005\361"
 10132      00080600 
 10132      1807C078 
 10132      05F1
 10133 07ee C8003E00 		.ascii	"\310\000>\000\000\037\200\004c\350\007\200\370\006\000"
 10133      001F8004 
 10133      63E80780 
 10133      F80600
 10134 07fd 18040008 		.ascii	"\030\004\000\010\000\000\000"
 10134      000000
 10135 0804 04000006 		.ascii	"\004\000\000\006\000\000\007\200\000\007\340\010\004"
 10135      00000780 
 10135      0007E008 
 10135      04
 10136 0811 7C08001F 		.ascii	"|\010\000\037\370\000\007\370\000\030\010\004\340\010"
 10136      F80007F8 
 10136      00180804 
 10136      E008
 10137 081f 07000006 		.ascii	"\007\000\000\006\000\000\004\000\000"
 10137      00000400 
 10137      00
 10138 0828 00000001 		.ascii	"\000\000\000\001\000\010\006\0008\004\000\370\004\003"
 10138      00080600 
 10138      380400F8 
 10138      0403
 10139 0836 E8040F08 		.ascii	"\350\004\017\010\004|\010\005\360\010\007\300\010\007"
 10139      047C0805 
 10139      F00807C0 
 10139      0807
 10140 0844 00180400 		.ascii	"\000\030\004\000`\000\000\000"
 10140      60000000 
 10141 084c 00000000 		.ascii	"\000\000\000\000\000\000\000\000\000\000\000\000\000"
 10141      00000000 
 10141      00000000 
 10141      00
 10142 0859 00003FFF 		.ascii	"\000\000?\377\376 \000\002 \000\002 \000\002 \000\002"
 10142      FE200002 
 10142      20000220 
 10142      00022000 
 10142      02
 10143 086a 20000200 		.ascii	" \000\002\000\000\000"
 10143      0000
 10144 0870 00000000 		.ascii	"\000\000\000\000\000\000\010\000\000\007\000\000\000"
 10144      00000800 
 10144      00070000 
 10144      00
 10145 087d C0000038 		.ascii	"\300\000\0008\000\000\006\000\000\001\300\000\0000\000"
 10145      00000600 
ARM GAS  C:\usertemp\ccUDQ5mr.s 			page 288


 10145      0001C000 
 10145      003000
 10146 088c 000E0000 		.ascii	"\000\016\000\000\001\000\000\000"
 10146      01000000 
 10147 0894 00000000 		.ascii	"\000\000\000\000\000\000 \000\002 \000\002 \000\002"
 10147      00002000 
 10147      02200002 
 10147      200002
 10148 08a3 20000220 		.ascii	" \000\002 \000\002?\377\376\000\000\000\000\000\000"
 10148      00023FFF 
 10148      FE000000 
 10148      000000
 10149 08b2 00000000 		.ascii	"\000\000\000\000\000\000"
 10149      0000
 10150 08b8 00000000 		.ascii	"\000\000\000\000\000\000\000\000\000\010\000\000\020"
 10150      00000000 
 10150      00080000 
 10150      10
 10151 08c5 00003000 		.ascii	"\000\0000\000\000 \000\0000\000\000\020\000\000\010"
 10151      00200000 
 10151      30000010 
 10151      000008
 10152 08d4 00000000 		.ascii	"\000\000\000\000\000\000\000\000"
 10152      00000000 
 10153 08dc 00000100 		.ascii	"\000\000\001\000\000\001\000\000\001\000\000\001\000"
 10153      00010000 
 10153      01000001 
 10153      00
 10154 08e9 00010000 		.ascii	"\000\001\000\000\001\000\000\001\000\000\001\000\000"
 10154      01000001 
 10154      00000100 
 10154      00
 10155 08f6 01000001 		.ascii	"\001\000\000\001\000\000\001\000\000\001"
 10155      00000100 
 10155      0001
 10156 0900 00000000 		.ascii	"\000\000\000\000\000\000\000\000\000 \000\000 \000\000"
 10156      00000000 
 10156      00200000 
 10156      200000
 10157 090f 10000010 		.ascii	"\020\000\000\020\000\000\000\000\000\000\000\000\000"
 10157      00000000 
 10157      00000000 
 10157      00
 10158 091c 00000000 		.ascii	"\000\000\000\000\000\000\000\000"
 10158      00000000 
 10159 0924 00000000 		.ascii	"\000\000\000\000\000\360\000\031\370\000\033\030\000"
 10159      00F00019 
 10159      F8001B18 
 10159      00
 10160 0931 22080026 		.ascii	"\"\010\000&\010\000$\010\000$\020\000?\370\000\037\370"
 10160      08002408 
 10160      00241000 
 10160      3FF8001F 
 10160      F8
 10161 0942 00000800 		.ascii	"\000\000\010\000\000\030"
 10161      0018
 10162 0948 00000004 		.ascii	"\000\000\000\004\000\000\007\377\370\017\377\360\000"
ARM GAS  C:\usertemp\ccUDQ5mr.s 			page 289


 10162      000007FF 
 10162      F80FFFF0 
 10162      00
 10163 0955 18180010 		.ascii	"\030\030\000\020\010\000 \010\000 \010\0000\030\000"
 10163      08002008 
 10163      00200800 
 10163      301800
 10164 0964 1FF0000F 		.ascii	"\037\360\000\017\300\000\000\000"
 10164      C0000000 
 10165 096c 00000000 		.ascii	"\000\000\000\000\007\300\000\037\360\000\0300\000 \010"
 10165      07C0001F 
 10165      F0001830 
 10165      002008
 10166 097b 00200800 		.ascii	"\000 \010\000 \010\000<\010\000\034\020\000\000`\000"
 10166      2008003C 
 10166      08001C10 
 10166      00006000 
 10167 098b 00000000 		.ascii	"\000\000\000\000\000"
 10167      00
 10168 0990 00000000 		.ascii	"\000\000\000\000\007\300\000\037\360\0008\030\000 \010"
 10168      07C0001F 
 10168      F0003818 
 10168      002008
 10169 099f 00200800 		.ascii	"\000 \010\000 \010\004\020\020\007\377\370\017\377\360"
 10169      20080410 
 10169      1007FFF8 
 10169      0FFFF0
 10170 09ae 00001000 		.ascii	"\000\000\020\000\000\000"
 10170      0000
 10171 09b4 00000000 		.ascii	"\000\000\000\000\000\000\000\007\300\000\037\360\000"
 10171      00000007 
 10171      C0001FF0 
 10171      00
 10172 09c1 12300022 		.ascii	"\0220\000\"\030\000\"\010\000\"\010\0002\010\000\036"
 10172      18002208 
 10172      00220800 
 10172      3208001E 
 10173 09d1 10000E20 		.ascii	"\020\000\016 \000\000\000"
 10173      000000
 10174 09d8 00000000 		.ascii	"\000\000\000\000 \000\000 \010\000 \010\001\377\370"
 10174      20000020 
 10174      08002008 
 10174      01FFF8
 10175 09e7 03FFF806 		.ascii	"\003\377\370\006 \010\004 \010\004 \010\007 \000\003"
 10175      20080420 
 10175      08042008 
 10175      07200003 
 10176 09f7 00000000 		.ascii	"\000\000\000\000\000"
 10176      00
 10177 09fc 00000000 		.ascii	"\000\000\000\000\000\016\000\016n\000\037\363\0001\261"
 10177      000E000E 
 10177      6E001FF3 
 10177      0031B1
 10178 0a0b 0020B100 		.ascii	"\000 \261\000 \261\0001\221\000\037\023\000.\036\000"
 10178      20B10031 
 10178      91001F13 
 10178      002E1E00 
ARM GAS  C:\usertemp\ccUDQ5mr.s 			page 290


 10179 0a1b 200E0030 		.ascii	" \016\0000\000"
 10179      00
 10180 0a20 00000004 		.ascii	"\000\000\000\004\000\010\007\377\370\017\377\370\000"
 10180      000807FF 
 10180      F80FFFF8 
 10180      00
 10181 0a2d 10080020 		.ascii	"\020\010\000 \000\000 \000\000 \010\000?\370\000\037"
 10181      00002000 
 10181      00200800 
 10181      3FF8001F 
 10182 0a3d F8000008 		.ascii	"\370\000\000\010\000\000\000"
 10182      000000
 10183 0a44 00000000 		.ascii	"\000\000\000\000\000\000\000 \010\000 \010\000 \010"
 10183      00000020 
 10183      08002008 
 10183      002008
 10184 0a53 063FF806 		.ascii	"\006?\370\006?\370\000\000\010\000\000\010\000\000\010"
 10184      3FF80000 
 10184      08000008 
 10184      000008
 10185 0a62 00000000 		.ascii	"\000\000\000\000\000\000"
 10185      0000
 10186 0a68 00000000 		.ascii	"\000\000\000\000\000\000\000\000\003\000\000\003\000"
 10186      00000000 
 10186      03000003 
 10186      00
 10187 0a75 20010020 		.ascii	" \001\000 \001\000 \003\006?\376\006?\374\000\000\000"
 10187      01002003 
 10187      063FFE06 
 10187      3FFC0000 
 10187      00
 10188 0a86 00000000 		.ascii	"\000\000\000\000\000\000"
 10188      0000
 10189 0a8c 00000004 		.ascii	"\000\000\000\004\000\010\007\377\370\017\377\370\000"
 10189      000807FF 
 10189      F80FFFF8 
 10189      00
 10190 0a99 01880003 		.ascii	"\001\210\000\003\000\000/\300\0008\370\000 8\000 \010"
 10190      00002FC0 
 10190      0038F800 
 10190      20380020 
 10190      08
 10191 0aaa 00000800 		.ascii	"\000\000\010\000\000\000"
 10191      0000
 10192 0ab0 00000000 		.ascii	"\000\000\000\000\000\000\004\000\010\004\000\010\004"
 10192      00000400 
 10192      08040008 
 10192      04
 10193 0abd 000807FF 		.ascii	"\000\010\007\377\370\017\377\370\000\000\010\000\000"
 10193      F80FFFF8 
 10193      00000800 
 10193      00
 10194 0aca 08000008 		.ascii	"\010\000\000\010\000\000\000\000\000\000"
 10194      00000000 
 10194      0000
 10195 0ad4 00200800 		.ascii	"\000 \010\000?\370\000?\370\000\020\010\000 \000\000"
 10195      3FF8003F 
ARM GAS  C:\usertemp\ccUDQ5mr.s 			page 291


 10195      F8001008 
 10195      00200000 
 10196 0ae4 3FF8003F 		.ascii	"?\370\000?\370\000\020\010\000 \000\000?\370\000?\370"
 10196      F8001008 
 10196      00200000 
 10196      3FF8003F 
 10196      F8
 10197 0af5 000008   		.ascii	"\000\000\010"
 10198 0af8 00000000 		.ascii	"\000\000\000\000 \010\000?\370\000?\370\000\020\010"
 10198      2008003F 
 10198      F8003FF8 
 10198      001008
 10199 0b07 00100000 		.ascii	"\000\020\000\000 \000\000 \010\000?\370\000\037\370"
 10199      20000020 
 10199      08003FF8 
 10199      001FF8
 10200 0b16 00000800 		.ascii	"\000\000\010\000\000\000"
 10200      0000
 10201 0b1c 00000000 		.ascii	"\000\000\000\000\007\300\000\017\360\000\0300\0000\010"
 10201      07C0000F 
 10201      F0001830 
 10201      003008
 10202 0b2b 00200800 		.ascii	"\000 \010\000 \010\0000\010\000\0300\000\017\360\000"
 10202      20080030 
 10202      08001830 
 10202      000FF000 
 10203 0b3b 07C00000 		.ascii	"\007\300\000\000\000"
 10203      00
 10204 0b40 00000000 		.ascii	"\000\000\000\000 \001\000?\377\000?\377\000\020\021"
 10204      2001003F 
 10204      FF003FFF 
 10204      001011
 10205 0b4f 00200900 		.ascii	"\000 \011\000 \010\000 \010\00008\000\037\360\000\017"
 10205      20080020 
 10205      08003038 
 10205      001FF000 
 10205      0F
 10206 0b60 C0000000 		.ascii	"\300\000\000\000"
 10207 0b64 00000000 		.ascii	"\000\000\000\000\007\300\000\037\360\0008\030\000 \010"
 10207      07C0001F 
 10207      F0003818 
 10207      002008
 10208 0b73 00200800 		.ascii	"\000 \010\000 \011\000\020\021\000\037\377\000?\377"
 10208      20090010 
 10208      11001FFF 
 10208      003FFF
 10209 0b82 00000100 		.ascii	"\000\000\001\000\000\000"
 10209      0000
 10210 0b88 00200800 		.ascii	"\000 \010\000 \010\000 \010\000?\370\000?\370\000\010"
 10210      20080020 
 10210      08003FF8 
 10210      003FF800 
 10210      08
 10211 0b99 08001008 		.ascii	"\010\000\020\010\000 \010\000 \000\0000\000\0000\000"
 10211      00200800 
 10211      20000030 
 10211      00003000 
ARM GAS  C:\usertemp\ccUDQ5mr.s 			page 292


 10212 0ba9 000000   		.ascii	"\000\000\000"
 10213 0bac 00000000 		.ascii	"\000\000\000\000\000\000\000\014x\000\036\030\0003\010"
 10213      0000000C 
 10213      78001E18 
 10213      003308
 10214 0bbb 00230800 		.ascii	"\000#\010\000!\010\000!\210\000!\230\0000\360\0008`"
 10214      21080021 
 10214      88002198 
 10214      0030F000 
 10214      3860
 10215 0bcd 000000   		.ascii	"\000\000\000"
 10216 0bd0 00000000 		.ascii	"\000\000\000\000 \000\000 \000\000 \000\000\377\360"
 10216      20000020 
 10216      00002000 
 10216      00FFF0
 10217 0bdf 03FFF800 		.ascii	"\003\377\370\000 \010\000 \010\000 \010\000\0000\000"
 10217      20080020 
 10217      08002008 
 10217      00003000 
 10218 0bef 00000000 		.ascii	"\000\000\000\000\000"
 10218      00
 10219 0bf4 00000000 		.ascii	"\000\000\000\000 \000\000?\360\000\177\370\000\000\030"
 10219      2000003F 
 10219      F0007FF8 
 10219      000018
 10220 0c03 00000800 		.ascii	"\000\000\010\000\000\010\000 \020\000?\370\000\177\360"
 10220      00080020 
 10220      10003FF8 
 10220      007FF0
 10221 0c12 00001000 		.ascii	"\000\000\020\000\000\000"
 10221      0000
 10222 0c18 00000000 		.ascii	"\000\000\000\000 \000\0000\000\000<\000\000?\200\000"
 10222      20000030 
 10222      00003C00 
 10222      003F8000 
 10223 0c28 23F00000 		.ascii	"#\360\000\000x\000\000p\000#\200\000<\000\0000\000\000"
 10223      78000070 
 10223      00238000 
 10223      3C000030 
 10223      0000
 10224 0c3a 2000     		.ascii	" \000"
 10225 0c3c 00200000 		.ascii	"\000 \000\000<\000\000?\340\000#\370\000\000\340\000"
 10225      3C00003F 
 10225      E00023F8 
 10225      0000E000 
 10226 0c4c 2700003E 		.ascii	"'\000\000>\000\000?\340\000!\370\000\001\340\000>\000"
 10226      00003FE0 
 10226      0021F800 
 10226      01E0003E 
 10226      00
 10227 0c5d 002000   		.ascii	"\000 \000"
 10228 0c60 00000000 		.ascii	"\000\000\000\000 \010\000 \010\00088\000>h\000'\200"
 10228      20080020 
 10228      08003838 
 10228      003E6800 
 10228      2780
 10229 0c72 0003C800 		.ascii	"\000\003\310\000,\370\00088\000 \030\000 \010\000\000"
ARM GAS  C:\usertemp\ccUDQ5mr.s 			page 293


 10229      2CF80038 
 10229      38002018 
 10229      00200800 
 10229      00
 10230 0c83 00       		.ascii	"\000"
 10231 0c84 00000000 		.ascii	"\000\000\000\000 \000\0000\003\000<\001\000?\203\000"
 10231      20000030 
 10231      03003C01 
 10231      003F8300 
 10232 0c94 23EC0000 		.ascii	"#\354\000\000p\000#\200\000<\000\000 \000\000 \000\000"
 10232      70002380 
 10232      003C0000 
 10232      20000020 
 10232      0000
 10233 0ca6 0000     		.ascii	"\000\000"
 10234 0ca8 00000000 		.ascii	"\000\000\000\000\000\000\0008\010\000 8\000 \370\000"
 10234      00000038 
 10234      08002038 
 10234      0020F800 
 10235 0cb8 23E8002F 		.ascii	"#\350\000/\210\000>\010\0008\010\000 \030\000\000p\000"
 10235      88003E08 
 10235      00380800 
 10235      20180000 
 10235      7000
 10236 0cca 0000     		.ascii	"\000\000"
 10237 0ccc 00000000 		.ascii	"\000\000\000\000\000\000\000\000\000\000\000\000\000"
 10237      00000000 
 10237      00000000 
 10237      00
 10238 0cd9 00000008 		.ascii	"\000\000\000\010\000\000\024\000\037\367\3740\000\006"
 10238      00001400 
 10238      1FF7FC30 
 10238      0006
 10239 0ce7 20000200 		.ascii	" \000\002\000\000\000\000\000\000"
 10239      00000000 
 10239      00
 10240 0cf0 00000000 		.ascii	"\000\000\000\000\000\000\000\000\000\000\000\000\000"
 10240      00000000 
 10240      00000000 
 10240      00
 10241 0cfd 00000000 		.ascii	"\000\000\000\000\000\377\377\377\000\000\000\000\000"
 10241      00FFFFFF 
 10241      00000000 
 10241      00
 10242 0d0a 00000000 		.ascii	"\000\000\000\000\000\000\000\000\000\000"
 10242      00000000 
 10242      0000
 10243 0d14 00000000 		.ascii	"\000\000\000\000\000\000 \000\0020\000\006\037\367\374"
 10243      00002000 
 10243      02300006 
 10243      1FF7FC
 10244 0d23 00140000 		.ascii	"\000\024\000\000\010\000\000\000\000\000\000\000\000"
 10244      08000000 
 10244      00000000 
 10244      00
 10245 0d30 00000000 		.ascii	"\000\000\000\000\000\000\000\000"
 10245      00000000 
ARM GAS  C:\usertemp\ccUDQ5mr.s 			page 294


 10246 0d38 00000018 		.ascii	"\000\000\000\030\000\000`\000\000@\000\000@\000\000"
 10246      00006000 
 10246      00400000 
 10246      400000
 10247 0d47 20000010 		.ascii	" \000\000\020\000\000\010\000\000\004\000\000\004\000"
 10247      00000800 
 10247      00040000 
 10247      0400
 10248 0d55 000C0000 		.ascii	"\000\014\000\000\020\000\000"
 10248      100000
 10249              		.global	asc2_1608
 10250              		.section	.rodata.asc2_1608,"a"
 10251              		.align	2
 10254              	asc2_1608:
 10255 0000 00000000 		.ascii	"\000\000\000\000\000\000\000\000\000\000\000\000\000"
 10255      00000000 
 10255      00000000 
 10255      00
 10256 000d 000000   		.ascii	"\000\000\000"
 10257 0010 00000000 		.ascii	"\000\000\000\000\000\000\037\314\000\014\000\000\000"
 10257      00001FCC 
 10257      000C0000 
 10257      00
 10258 001d 000000   		.ascii	"\000\000\000"
 10259 0020 00000800 		.ascii	"\000\000\010\0000\000`\000\010\0000\000`\000\000\000"
 10259      30006000 
 10259      08003000 
 10259      60000000 
 10260 0030 022003FC 		.ascii	"\002 \003\374\036 \002 \003\374\036 \002 \000\000"
 10260      1E200220 
 10260      03FC1E20 
 10260      02200000 
 10261 0040 00000E18 		.ascii	"\000\000\016\030\021\004?\377\020\204\014x\000\000\000"
 10261      11043FFF 
 10261      10840C78 
 10261      000000
 10262 004f 00       		.ascii	"\000"
 10263 0050 0F001084 		.ascii	"\017\000\020\204\0178\000\300\007x\030\204\000x\000"
 10263      0F3800C0 
 10263      07781884 
 10263      007800
 10264 005f 00       		.ascii	"\000"
 10265 0060 00780F84 		.ascii	"\000x\017\204\020\304\021$\016\230\000\344\000\204\000"
 10265      10C41124 
 10265      0E9800E4 
 10265      008400
 10266 006f 08       		.ascii	"\010"
 10267 0070 08006800 		.ascii	"\010\000h\000p\000\000\000\000\000\000\000\000\000\000"
 10267      70000000 
 10267      00000000 
 10267      000000
 10268 007f 00       		.ascii	"\000"
 10269 0080 00000000 		.ascii	"\000\000\000\000\000\000\007\340\030\030 \004@\002\000"
 10269      000007E0 
 10269      18182004 
 10269      400200
 10270 008f 00       		.ascii	"\000"
ARM GAS  C:\usertemp\ccUDQ5mr.s 			page 295


 10271 0090 00004002 		.ascii	"\000\000@\002 \004\030\030\007\340\000\000\000\000\000"
 10271      20041818 
 10271      07E00000 
 10271      000000
 10272 009f 00       		.ascii	"\000"
 10273 00a0 02400240 		.ascii	"\002@\002@\001\200\017\360\001\200\002@\002@\000\000"
 10273      01800FF0 
 10273      01800240 
 10273      02400000 
 10274 00b0 00800080 		.ascii	"\000\200\000\200\000\200\017\370\000\200\000\200\000"
 10274      00800FF8 
 10274      00800080 
 10274      00
 10275 00bd 800000   		.ascii	"\200\000\000"
 10276 00c0 0001000D 		.ascii	"\000\001\000\015\000\016\000\000\000\000\000\000\000"
 10276      000E0000 
 10276      00000000 
 10276      00
 10277 00cd 000000   		.ascii	"\000\000\000"
 10278 00d0 00000080 		.ascii	"\000\000\000\200\000\200\000\200\000\200\000\200\000"
 10278      00800080 
 10278      00800080 
 10278      00
 10279 00dd 800080   		.ascii	"\200\000\200"
 10280 00e0 0000000C 		.ascii	"\000\000\000\014\000\014\000\000\000\000\000\000\000"
 10280      000C0000 
 10280      00000000 
 10280      00
 10281 00ed 000000   		.ascii	"\000\000\000"
 10282 00f0 00000006 		.ascii	"\000\000\000\006\000\030\000`\001\200\006\000\030\000"
 10282      00180060 
 10282      01800600 
 10282      1800
 10283 00fe 2000     		.ascii	" \000"
 10284 0100 000007F0 		.ascii	"\000\000\007\360\010\010\020\004\020\004\010\010\007"
 10284      08081004 
 10284      10040808 
 10284      07
 10285 010d F00000   		.ascii	"\360\000\000"
 10286 0110 00000804 		.ascii	"\000\000\010\004\010\004\037\374\000\004\000\004\000"
 10286      08041FFC 
 10286      00040004 
 10286      00
 10287 011d 000000   		.ascii	"\000\000\000"
 10288 0120 00000E0C 		.ascii	"\000\000\016\014\020\024\020$\020D\021\204\016\014\000"
 10288      10141024 
 10288      10441184 
 10288      0E0C00
 10289 012f 00       		.ascii	"\000"
 10290 0130 00000C18 		.ascii	"\000\000\014\030\020\004\021\004\021\004\022\210\014"
 10290      10041104 
 10290      11041288 
 10290      0C
 10291 013d 700000   		.ascii	"p\000\000"
 10292 0140 000000E0 		.ascii	"\000\000\000\340\003 \004$\010$\037\374\000$\000\000"
 10292      03200424 
 10292      08241FFC 
ARM GAS  C:\usertemp\ccUDQ5mr.s 			page 296


 10292      00240000 
 10293 0150 00001F98 		.ascii	"\000\000\037\230\020\204\021\004\021\004\020\210\020"
 10293      10841104 
 10293      11041088 
 10293      10
 10294 015d 700000   		.ascii	"p\000\000"
 10295 0160 000007F0 		.ascii	"\000\000\007\360\010\210\021\004\021\004\030\210\000"
 10295      08881104 
 10295      11041888 
 10295      00
 10296 016d 700000   		.ascii	"p\000\000"
 10297 0170 00001C00 		.ascii	"\000\000\034\000\020\000\020\374\023\000\034\000\020"
 10297      100010FC 
 10297      13001C00 
 10297      10
 10298 017d 000000   		.ascii	"\000\000\000"
 10299 0180 00000E38 		.ascii	"\000\000\0168\021D\020\204\020\204\021D\0168\000\000"
 10299      11441084 
 10299      10841144 
 10299      0E380000 
 10300 0190 00000700 		.ascii	"\000\000\007\000\010\214\020D\020D\010\210\007\360\000"
 10300      088C1044 
 10300      10440888 
 10300      07F000
 10301 019f 00       		.ascii	"\000"
 10302 01a0 00000000 		.ascii	"\000\000\000\000\000\000\003\014\003\014\000\000\000"
 10302      0000030C 
 10302      030C0000 
 10302      00
 10303 01ad 000000   		.ascii	"\000\000\000"
 10304 01b0 00000000 		.ascii	"\000\000\000\000\000\001\001\006\000\000\000\000\000"
 10304      00010106 
 10304      00000000 
 10304      00
 10305 01bd 000000   		.ascii	"\000\000\000"
 10306 01c0 00000080 		.ascii	"\000\000\000\200\001@\002 \004\020\010\010\020\004\000"
 10306      01400220 
 10306      04100808 
 10306      100400
 10307 01cf 00       		.ascii	"\000"
 10308 01d0 02200220 		.ascii	"\002 \002 \002 \002 \002 \002 \002 \000\000"
 10308      02200220 
 10308      02200220 
 10308      02200000 
 10309 01e0 00001004 		.ascii	"\000\000\020\004\010\010\004\020\002 \001@\000\200\000"
 10309      08080410 
 10309      02200140 
 10309      008000
 10310 01ef 00       		.ascii	"\000"
 10311 01f0 00000E00 		.ascii	"\000\000\016\000\022\000\020\014\020l\020\200\017\000"
 10311      1200100C 
 10311      106C1080 
 10311      0F00
 10312 01fe 0000     		.ascii	"\000\000"
 10313 0200 03E00C18 		.ascii	"\003\340\014\030\023\344\024$\027\304\010(\007\320\000"
 10313      13E41424 
 10313      17C40828 
ARM GAS  C:\usertemp\ccUDQ5mr.s 			page 297


 10313      07D000
 10314 020f 00       		.ascii	"\000"
 10315 0210 0004003C 		.ascii	"\000\004\000<\003\304\034@\007@\000\344\000\034\000"
 10315      03C41C40 
 10315      074000E4 
 10315      001C00
 10316 021f 04       		.ascii	"\004"
 10317 0220 10041FFC 		.ascii	"\020\004\037\374\021\004\021\004\021\004\016\210\000"
 10317      11041104 
 10317      11040E88 
 10317      00
 10318 022d 700000   		.ascii	"p\000\000"
 10319 0230 03E00C18 		.ascii	"\003\340\014\030\020\004\020\004\020\004\020\010\034"
 10319      10041004 
 10319      10041008 
 10319      1C
 10320 023d 100000   		.ascii	"\020\000\000"
 10321 0240 10041FFC 		.ascii	"\020\004\037\374\020\004\020\004\020\004\010\010\007"
 10321      10041004 
 10321      10040808 
 10321      07
 10322 024d F00000   		.ascii	"\360\000\000"
 10323 0250 10041FFC 		.ascii	"\020\004\037\374\021\004\021\004\027\304\020\004\010"
 10323      11041104 
 10323      17C41004 
 10323      08
 10324 025d 180000   		.ascii	"\030\000\000"
 10325 0260 10041FFC 		.ascii	"\020\004\037\374\021\004\021\000\027\300\020\000\010"
 10325      11041100 
 10325      17C01000 
 10325      08
 10326 026d 000000   		.ascii	"\000\000\000"
 10327 0270 03E00C18 		.ascii	"\003\340\014\030\020\004\020\004\020D\034x\000@\000"
 10327      10041004 
 10327      10441C78 
 10327      004000
 10328 027f 00       		.ascii	"\000"
 10329 0280 10041FFC 		.ascii	"\020\004\037\374\020\204\000\200\000\200\020\204\037"
 10329      10840080 
 10329      00801084 
 10329      1F
 10330 028d FC1004   		.ascii	"\374\020\004"
 10331 0290 00001004 		.ascii	"\000\000\020\004\020\004\037\374\020\004\020\004\000"
 10331      10041FFC 
 10331      10041004 
 10331      00
 10332 029d 000000   		.ascii	"\000\000\000"
 10333 02a0 00030001 		.ascii	"\000\003\000\001\020\001\020\001\037\376\020\000\020"
 10333      10011001 
 10333      1FFE1000 
 10333      10
 10334 02ad 000000   		.ascii	"\000\000\000"
 10335 02b0 10041FFC 		.ascii	"\020\004\037\374\021\004\003\200\024d\030\034\020\004"
 10335      11040380 
 10335      1464181C 
 10335      1004
 10336 02be 0000     		.ascii	"\000\000"
ARM GAS  C:\usertemp\ccUDQ5mr.s 			page 298


 10337 02c0 10041FFC 		.ascii	"\020\004\037\374\020\004\000\004\000\004\000\004\000"
 10337      10040004 
 10337      00040004 
 10337      00
 10338 02cd 0C0000   		.ascii	"\014\000\000"
 10339 02d0 10041FFC 		.ascii	"\020\004\037\374\037\000\000\374\037\000\037\374\020"
 10339      1F0000FC 
 10339      1F001FFC 
 10339      10
 10340 02dd 040000   		.ascii	"\004\000\000"
 10341 02e0 10041FFC 		.ascii	"\020\004\037\374\014\004\003\000\000\340\020\030\037"
 10341      0C040300 
 10341      00E01018 
 10341      1F
 10342 02ed FC1000   		.ascii	"\374\020\000"
 10343 02f0 07F00808 		.ascii	"\007\360\010\010\020\004\020\004\020\004\010\010\007"
 10343      10041004 
 10343      10040808 
 10343      07
 10344 02fd F00000   		.ascii	"\360\000\000"
 10345 0300 10041FFC 		.ascii	"\020\004\037\374\020\204\020\200\020\200\020\200\017"
 10345      10841080 
 10345      10801080 
 10345      0F
 10346 030d 000000   		.ascii	"\000\000\000"
 10347 0310 07F00818 		.ascii	"\007\360\010\030\020$\020$\020\034\010\012\007\362\000"
 10347      10241024 
 10347      101C080A 
 10347      07F200
 10348 031f 00       		.ascii	"\000"
 10349 0320 10041FFC 		.ascii	"\020\004\037\374\021\004\021\000\021\300\0210\016\014"
 10349      11041100 
 10349      11C01130 
 10349      0E0C
 10350 032e 0004     		.ascii	"\000\004"
 10351 0330 00000E1C 		.ascii	"\000\000\016\034\021\004\020\204\020\204\020D\0348\000"
 10351      11041084 
 10351      10841044 
 10351      1C3800
 10352 033f 00       		.ascii	"\000"
 10353 0340 18001000 		.ascii	"\030\000\020\000\020\004\037\374\020\004\020\000\030"
 10353      10041FFC 
 10353      10041000 
 10353      18
 10354 034d 000000   		.ascii	"\000\000\000"
 10355 0350 10001FF8 		.ascii	"\020\000\037\370\020\004\000\004\000\004\020\004\037"
 10355      10040004 
 10355      00041004 
 10355      1F
 10356 035d F81000   		.ascii	"\370\020\000"
 10357 0360 10001E00 		.ascii	"\020\000\036\000\021\340\000\034\000p\023\200\034\000"
 10357      11E0001C 
 10357      00701380 
 10357      1C00
 10358 036e 1000     		.ascii	"\020\000"
 10359 0370 1FC0103C 		.ascii	"\037\300\020<\000\340\037\000\000\340\020<\037\300\000"
 10359      00E01F00 
ARM GAS  C:\usertemp\ccUDQ5mr.s 			page 299


 10359      00E0103C 
 10359      1FC000
 10360 037f 00       		.ascii	"\000"
 10361 0380 1004180C 		.ascii	"\020\004\030\014\0264\001\300\001\300\0264\030\014\020"
 10361      163401C0 
 10361      01C01634 
 10361      180C10
 10362 038f 04       		.ascii	"\004"
 10363 0390 10001C00 		.ascii	"\020\000\034\000\023\004\000\374\023\004\034\000\020"
 10363      130400FC 
 10363      13041C00 
 10363      10
 10364 039d 000000   		.ascii	"\000\000\000"
 10365 03a0 0804101C 		.ascii	"\010\004\020\034\020d\020\204\023\004\034\004\020\030"
 10365      10641084 
 10365      13041C04 
 10365      1018
 10366 03ae 0000     		.ascii	"\000\000"
 10367 03b0 00000000 		.ascii	"\000\000\000\000\000\000\177\376@\002@\002@\002\000"
 10367      00007FFE 
 10367      40024002 
 10367      400200
 10368 03bf 00       		.ascii	"\000"
 10369 03c0 00003000 		.ascii	"\000\0000\000\014\000\003\200\000`\000\034\000\003\000"
 10369      0C000380 
 10369      0060001C 
 10369      000300
 10370 03cf 00       		.ascii	"\000"
 10371 03d0 00004002 		.ascii	"\000\000@\002@\002@\002\177\376\000\000\000\000\000"
 10371      40024002 
 10371      7FFE0000 
 10371      000000
 10372 03df 00       		.ascii	"\000"
 10373 03e0 00000000 		.ascii	"\000\000\000\000 \000@\000@\000@\000 \000\000\000"
 10373      20004000 
 10373      40004000 
 10373      20000000 
 10374 03f0 00010001 		.ascii	"\000\001\000\001\000\001\000\001\000\001\000\001\000"
 10374      00010001 
 10374      00010001 
 10374      00
 10375 03fd 010001   		.ascii	"\001\000\001"
 10376 0400 00004000 		.ascii	"\000\000@\000@\000 \000\000\000\000\000\000\000\000"
 10376      40002000 
 10376      00000000 
 10376      000000
 10377 040f 00       		.ascii	"\000"
 10378 0410 00000098 		.ascii	"\000\000\000\230\001$\001D\001D\001D\000\374\000\004"
 10378      01240144 
 10378      01440144 
 10378      00FC0004 
 10379 0420 10001FFC 		.ascii	"\020\000\037\374\000\210\001\004\001\004\000\210\000"
 10379      00880104 
 10379      01040088 
 10379      00
 10380 042d 700000   		.ascii	"p\000\000"
 10381 0430 00000070 		.ascii	"\000\000\000p\000\210\001\004\001\004\001\004\000\210"
ARM GAS  C:\usertemp\ccUDQ5mr.s 			page 300


 10381      00880104 
 10381      01040104 
 10381      0088
 10382 043e 0000     		.ascii	"\000\000"
 10383 0440 00000070 		.ascii	"\000\000\000p\000\210\001\004\001\004\021\010\037\374"
 10383      00880104 
 10383      01041108 
 10383      1FFC
 10384 044e 0004     		.ascii	"\000\004"
 10385 0450 000000F8 		.ascii	"\000\000\000\370\001D\001D\001D\001D\000\310\000\000"
 10385      01440144 
 10385      01440144 
 10385      00C80000 
 10386 0460 00000104 		.ascii	"\000\000\001\004\001\004\017\374\021\004\021\004\021"
 10386      01040FFC 
 10386      11041104 
 10386      11
 10387 046d 001800   		.ascii	"\000\030\000"
 10388 0470 000000D6 		.ascii	"\000\000\000\326\001)\001)\001)\001\311\001\006\000"
 10388      01290129 
 10388      012901C9 
 10388      010600
 10389 047f 00       		.ascii	"\000"
 10390 0480 10041FFC 		.ascii	"\020\004\037\374\000\204\001\000\001\000\001\004\000"
 10390      00840100 
 10390      01000104 
 10390      00
 10391 048d FC0004   		.ascii	"\374\000\004"
 10392 0490 00000104 		.ascii	"\000\000\001\004\031\004\031\374\000\004\000\004\000"
 10392      190419FC 
 10392      00040004 
 10392      00
 10393 049d 000000   		.ascii	"\000\000\000"
 10394 04a0 00000003 		.ascii	"\000\000\000\003\000\001\001\001\031\001\031\376\000"
 10394      00010101 
 10394      190119FE 
 10394      00
 10395 04ad 000000   		.ascii	"\000\000\000"
 10396 04b0 10041FFC 		.ascii	"\020\004\037\374\000$\000@\001\264\001\014\001\004\000"
 10396      00240040 
 10396      01B4010C 
 10396      010400
 10397 04bf 00       		.ascii	"\000"
 10398 04c0 00001004 		.ascii	"\000\000\020\004\020\004\037\374\000\004\000\004\000"
 10398      10041FFC 
 10398      00040004 
 10398      00
 10399 04cd 000000   		.ascii	"\000\000\000"
 10400 04d0 010401FC 		.ascii	"\001\004\001\374\001\004\001\000\001\374\001\004\001"
 10400      01040100 
 10400      01FC0104 
 10400      01
 10401 04dd 0000FC   		.ascii	"\000\000\374"
 10402 04e0 010401FC 		.ascii	"\001\004\001\374\000\204\001\000\001\000\001\004\000"
 10402      00840100 
 10402      01000104 
 10402      00
ARM GAS  C:\usertemp\ccUDQ5mr.s 			page 301


 10403 04ed FC0004   		.ascii	"\374\000\004"
 10404 04f0 000000F8 		.ascii	"\000\000\000\370\001\004\001\004\001\004\001\004\000"
 10404      01040104 
 10404      01040104 
 10404      00
 10405 04fd F80000   		.ascii	"\370\000\000"
 10406 0500 010101FF 		.ascii	"\001\001\001\377\000\205\001\004\001\004\000\210\000"
 10406      00850104 
 10406      01040088 
 10406      00
 10407 050d 700000   		.ascii	"p\000\000"
 10408 0510 00000070 		.ascii	"\000\000\000p\000\210\001\004\001\004\001\005\001\377"
 10408      00880104 
 10408      01040105 
 10408      01FF
 10409 051e 0001     		.ascii	"\000\001"
 10410 0520 01040104 		.ascii	"\001\004\001\004\001\374\000\204\001\004\001\000\001"
 10410      01FC0084 
 10410      01040100 
 10410      01
 10411 052d 800000   		.ascii	"\200\000\000"
 10412 0530 000000CC 		.ascii	"\000\000\000\314\001$\001$\001$\001$\001\230\000\000"
 10412      01240124 
 10412      01240124 
 10412      01980000 
 10413 0540 00000100 		.ascii	"\000\000\001\000\001\000\007\370\001\004\001\004\000"
 10413      010007F8 
 10413      01040104 
 10413      00
 10414 054d 000000   		.ascii	"\000\000\000"
 10415 0550 010001F8 		.ascii	"\001\000\001\370\000\004\000\004\000\004\001\010\001"
 10415      00040004 
 10415      00040108 
 10415      01
 10416 055d FC0004   		.ascii	"\374\000\004"
 10417 0560 01000180 		.ascii	"\001\000\001\200\001p\000\014\000\020\001`\001\200\001"
 10417      0170000C 
 10417      00100160 
 10417      018001
 10418 056f 00       		.ascii	"\000"
 10419 0570 01F0010C 		.ascii	"\001\360\001\014\0000\001\300\0000\001\014\001\360\001"
 10419      003001C0 
 10419      0030010C 
 10419      01F001
 10420 057f 00       		.ascii	"\000"
 10421 0580 00000104 		.ascii	"\000\000\001\004\001\214\000t\001p\001\214\001\004\000"
 10421      018C0074 
 10421      0170018C 
 10421      010400
 10422 058f 00       		.ascii	"\000"
 10423 0590 01010181 		.ascii	"\001\001\001\201\001q\000\016\000\030\001`\001\200\001"
 10423      0171000E 
 10423      00180160 
 10423      018001
 10424 059f 00       		.ascii	"\000"
 10425 05a0 00000184 		.ascii	"\000\000\001\204\001\014\0014\001D\001\204\001\014\000"
 10425      010C0134 
ARM GAS  C:\usertemp\ccUDQ5mr.s 			page 302


 10425      01440184 
 10425      010C00
 10426 05af 00       		.ascii	"\000"
 10427 05b0 00000000 		.ascii	"\000\000\000\000\000\000\000\000\001\000>\374@\002@"
 10427      00000000 
 10427      01003EFC 
 10427      400240
 10428 05bf 02       		.ascii	"\002"
 10429 05c0 00000000 		.ascii	"\000\000\000\000\000\000\000\000\377\377\000\000\000"
 10429      00000000 
 10429      FFFF0000 
 10429      00
 10430 05cd 000000   		.ascii	"\000\000\000"
 10431 05d0 00004002 		.ascii	"\000\000@\002@\002>\374\001\000\000\000\000\000\000"
 10431      40023EFC 
 10431      01000000 
 10431      000000
 10432 05df 00       		.ascii	"\000"
 10433 05e0 00006000 		.ascii	"\000\000`\000\200\000\200\000@\000@\000 \000 \000"
 10433      80008000 
 10433      40004000 
 10433      20002000 
 10434              		.global	asc2_1206
 10435              		.section	.rodata.asc2_1206,"a"
 10436              		.align	2
 10439              	asc2_1206:
 10440 0000 00000000 		.ascii	"\000\000\000\000\000\000\000\000\000\000\000\000"
 10440      00000000 
 10440      00000000 
 10441 000c 00000000 		.ascii	"\000\000\000\000?@\000\000\000\000\000\000"
 10441      3F400000 
 10441      00000000 
 10442 0018 00003000 		.ascii	"\000\0000\000@\0000\000@\000\000\000"
 10442      40003000 
 10442      40000000 
 10443 0024 09000BC0 		.ascii	"\011\000\013\300=\000\013\300=\000\011\000"
 10443      3D000BC0 
 10443      3D000900 
 10444 0030 18C02440 		.ascii	"\030\300$@\177\340\"@1\200\000\000"
 10444      7FE02240 
 10444      31800000 
 10445 003c 180024C0 		.ascii	"\030\000$\300\033\000\015\2002@\001\200"
 10445      1B000D80 
 10445      32400180 
 10446 0048 03801C40 		.ascii	"\003\200\034@'@\034\200\007@\000@"
 10446      27401C80 
 10446      07400040 
 10447 0054 10006000 		.ascii	"\020\000`\000\000\000\000\000\000\000\000\000"
 10447      00000000 
 10447      00000000 
 10448 0060 00000000 		.ascii	"\000\000\000\000\000\000\037\200 @@ "
 10448      00001F80 
 10448      20404020 
 10449 006c 00004020 		.ascii	"\000\000@  @\037\200\000\000\000\000"
 10449      20401F80 
 10449      00000000 
 10450 0078 09000600 		.ascii	"\011\000\006\000\037\200\006\000\011\000\000\000"
ARM GAS  C:\usertemp\ccUDQ5mr.s 			page 303


 10450      1F800600 
 10450      09000000 
 10451 0084 04000400 		.ascii	"\004\000\004\000?\200\004\000\004\000\000\000"
 10451      3F800400 
 10451      04000000 
 10452 0090 00100060 		.ascii	"\000\020\000`\000\000\000\000\000\000\000\000"
 10452      00000000 
 10452      00000000 
 10453 009c 04000400 		.ascii	"\004\000\004\000\004\000\004\000\004\000\000\000"
 10453      04000400 
 10453      04000000 
 10454 00a8 00000040 		.ascii	"\000\000\000@\000\000\000\000\000\000\000\000"
 10454      00000000 
 10454      00000000 
 10455 00b4 002001C0 		.ascii	"\000 \001\300\006\0008\000@\000\000\000"
 10455      06003800 
 10455      40000000 
 10456 00c0 1F802040 		.ascii	"\037\200 @ @ @\037\200\000\000"
 10456      20402040 
 10456      1F800000 
 10457 00cc 00001040 		.ascii	"\000\000\020@?\300\000@\000\000\000\000"
 10457      3FC00040 
 10457      00000000 
 10458 00d8 18C02140 		.ascii	"\030\300!@\"@$@\030@\000\000"
 10458      22402440 
 10458      18400000 
 10459 00e4 10802040 		.ascii	"\020\200 @$@$@\033\200\000\000"
 10459      24402440 
 10459      1B800000 
 10460 00f0 02000D00 		.ascii	"\002\000\015\000\021\000?\300\001@\000\000"
 10460      11003FC0 
 10460      01400000 
 10461 00fc 3C802440 		.ascii	"<\200$@$@$@#\200\000\000"
 10461      24402440 
 10461      23800000 
 10462 0108 1F802440 		.ascii	"\037\200$@$@4@\003\200\000\000"
 10462      24403440 
 10462      03800000 
 10463 0114 30002000 		.ascii	"0\000 \000'\3008\000 \000\000\000"
 10463      27C03800 
 10463      20000000 
 10464 0120 1B802440 		.ascii	"\033\200$@$@$@\033\200\000\000"
 10464      24402440 
 10464      1B800000 
 10465 012c 1C0022C0 		.ascii	"\034\000\"\300\"@\"@\037\200\000\000"
 10465      22402240 
 10465      1F800000 
 10466 0138 00000000 		.ascii	"\000\000\000\000\010@\000\000\000\000\000\000"
 10466      08400000 
 10466      00000000 
 10467 0144 00000000 		.ascii	"\000\000\000\000\004`\000\000\000\000\000\000"
 10467      04600000 
 10467      00000000 
 10468 0150 00000400 		.ascii	"\000\000\004\000\012\000\021\000 \200@@"
 10468      0A001100 
 10468      20804040 
 10469 015c 09000900 		.ascii	"\011\000\011\000\011\000\011\000\011\000\000\000"
ARM GAS  C:\usertemp\ccUDQ5mr.s 			page 304


 10469      09000900 
 10469      09000000 
 10470 0168 00004040 		.ascii	"\000\000@@ \200\021\000\012\000\004\000"
 10470      20801100 
 10470      0A000400 
 10471 0174 18002000 		.ascii	"\030\000 \000#@$\000\030\000\000\000"
 10471      23402400 
 10471      18000000 
 10472 0180 1F802040 		.ascii	"\037\200 @'@)@\037@\000\000"
 10472      27402940 
 10472      1F400000 
 10473 018c 004007C0 		.ascii	"\000@\007\3009\000\017\000\001\300\000@"
 10473      39000F00 
 10473      01C00040 
 10474 0198 20403FC0 		.ascii	" @?\300$@$@\033\200\000\000"
 10474      24402440 
 10474      1B800000 
 10475 01a4 1F802040 		.ascii	"\037\200 @ @ @0\200\000\000"
 10475      20402040 
 10475      30800000 
 10476 01b0 20403FC0 		.ascii	" @?\300 @ @\037\200\000\000"
 10476      20402040 
 10476      1F800000 
 10477 01bc 20403FC0 		.ascii	" @?\300$@.@0\300\000\000"
 10477      24402E40 
 10477      30C00000 
 10478 01c8 20403FC0 		.ascii	" @?\300$@.\0000\000\000\000"
 10478      24402E00 
 10478      30000000 
 10479 01d4 0F001080 		.ascii	"\017\000\020\200 @\"@3\200\002\000"
 10479      20402240 
 10479      33800200 
 10480 01e0 20403FC0 		.ascii	" @?\300\004\000\004\000?\300 @"
 10480      04000400 
 10480      3FC02040 
 10481 01ec 20402040 		.ascii	" @ @?\300 @ @\000\000"
 10481      3FC02040 
 10481      20400000 
 10482 01f8 00602020 		.ascii	"\000`    ?\300 \000 \000"
 10482      20203FC0 
 10482      20002000 
 10483 0204 20403FC0 		.ascii	" @?\300$@\013\0000\300 @"
 10483      24400B00 
 10483      30C02040 
 10484 0210 20403FC0 		.ascii	" @?\300 @\000@\000@\000\300"
 10484      20400040 
 10484      004000C0 
 10485 021c 3FC03C00 		.ascii	"?\300<\000\003\300<\000?\300\000\000"
 10485      03C03C00 
 10485      3FC00000 
 10486 0228 20403FC0 		.ascii	" @?\300\014@#\000?\300 \000"
 10486      0C402300 
 10486      3FC02000 
 10487 0234 1F802040 		.ascii	"\037\200 @ @ @\037\200\000\000"
 10487      20402040 
 10487      1F800000 
 10488 0240 20403FC0 		.ascii	" @?\300$@$\000\030\000\000\000"
ARM GAS  C:\usertemp\ccUDQ5mr.s 			page 305


 10488      24402400 
 10488      18000000 
 10489 024c 1F802140 		.ascii	"\037\200!@!@ \340\037\240\000\000"
 10489      214020E0 
 10489      1FA00000 
 10490 0258 20403FC0 		.ascii	" @?\300$@&\000\031\300\000@"
 10490      24402600 
 10490      19C00040 
 10491 0264 18C02440 		.ascii	"\030\300$@$@\"@1\200\000\000"
 10491      24402240 
 10491      31800000 
 10492 0270 30002040 		.ascii	"0\000 @?\300 @0\000\000\000"
 10492      3FC02040 
 10492      30000000 
 10493 027c 20003F80 		.ascii	" \000?\200\000@\000@?\200 \000"
 10493      00400040 
 10493      3F802000 
 10494 0288 20003E00 		.ascii	" \000>\000\001\300\007\0008\000 \000"
 10494      01C00700 
 10494      38002000 
 10495 0294 380007C0 		.ascii	"8\000\007\300<\000\007\3008\000\000\000"
 10495      3C0007C0 
 10495      38000000 
 10496 02a0 204039C0 		.ascii	" @9\300\006\0009\300 @\000\000"
 10496      060039C0 
 10496      20400000 
 10497 02ac 20003840 		.ascii	" \0008@\007\3008@ \000\000\000"
 10497      07C03840 
 10497      20000000 
 10498 02b8 304021C0 		.ascii	"0@!\300&@8@ \300\000\000"
 10498      26403840 
 10498      20C00000 
 10499 02c4 00000000 		.ascii	"\000\000\000\000\177\340@ @ \000\000"
 10499      7FE04020 
 10499      40200000 
 10500 02d0 00007000 		.ascii	"\000\000p\000\014\000\003\200\000@\000\000"
 10500      0C000380 
 10500      00400000 
 10501 02dc 00004020 		.ascii	"\000\000@ @ \177\340\000\000\000\000"
 10501      40207FE0 
 10501      00000000 
 10502 02e8 00002000 		.ascii	"\000\000 \000@\000 \000\000\000\000\000"
 10502      40002000 
 10502      00000000 
 10503 02f4 00100010 		.ascii	"\000\020\000\020\000\020\000\020\000\020\000\020"
 10503      00100010 
 10503      00100010 
 10504 0300 00000000 		.ascii	"\000\000\000\000@\000\000\000\000\000\000\000"
 10504      40000000 
 10504      00000000 
 10505 030c 00000280 		.ascii	"\000\000\002\200\005@\005@\003\300\000@"
 10505      05400540 
 10505      03C00040 
 10506 0318 20003FC0 		.ascii	" \000?\300\004@\004@\003\200\000\000"
 10506      04400440 
 10506      03800000 
 10507 0324 00000380 		.ascii	"\000\000\003\200\004@\004@\006@\000\000"
ARM GAS  C:\usertemp\ccUDQ5mr.s 			page 306


 10507      04400440 
 10507      06400000 
 10508 0330 00000380 		.ascii	"\000\000\003\200\004@$@?\300\000@"
 10508      04402440 
 10508      3FC00040 
 10509 033c 00000380 		.ascii	"\000\000\003\200\005@\005@\003@\000\000"
 10509      05400540 
 10509      03400000 
 10510 0348 00000440 		.ascii	"\000\000\004@\037\300$@$@ \000"
 10510      1FC02440 
 10510      24402000 
 10511 0354 000002E0 		.ascii	"\000\000\002\340\005P\005P\006P\004 "
 10511      05500550 
 10511      06500420 
 10512 0360 20403FC0 		.ascii	" @?\300\004@\004\000\003\300\000@"
 10512      04400400 
 10512      03C00040 
 10513 036c 00000440 		.ascii	"\000\000\004@'\300\000@\000\000\000\000"
 10513      27C00040 
 10513      00000000 
 10514 0378 00100010 		.ascii	"\000\020\000\020\004\020'\340\000\000\000\000"
 10514      041027E0 
 10514      00000000 
 10515 0384 20403FC0 		.ascii	" @?\300\001@\007\000\004\300\004@"
 10515      01400700 
 10515      04C00440 
 10516 0390 20402040 		.ascii	" @ @?\300\000@\000@\000\000"
 10516      3FC00040 
 10516      00400000 
 10517 039c 07C00400 		.ascii	"\007\300\004\000\007\300\004\000\003\300\000\000"
 10517      07C00400 
 10517      03C00000 
 10518 03a8 044007C0 		.ascii	"\004@\007\300\004@\004\000\003\300\000@"
 10518      04400400 
 10518      03C00040 
 10519 03b4 00000380 		.ascii	"\000\000\003\200\004@\004@\003\200\000\000"
 10519      04400440 
 10519      03800000 
 10520 03c0 041007F0 		.ascii	"\004\020\007\360\004P\004@\003\200\000\000"
 10520      04500440 
 10520      03800000 
 10521 03cc 00000380 		.ascii	"\000\000\003\200\004@\004P\007\360\000\020"
 10521      04400450 
 10521      07F00010 
 10522 03d8 044007C0 		.ascii	"\004@\007\300\002@\004\000\004\000\000\000"
 10522      02400400 
 10522      04000000 
 10523 03e4 00000640 		.ascii	"\000\000\006@\005@\005@\004\300\000\000"
 10523      05400540 
 10523      04C00000 
 10524 03f0 00000400 		.ascii	"\000\000\004\000\037\200\004@\000@\000\000"
 10524      1F800440 
 10524      00400000 
 10525 03fc 04000780 		.ascii	"\004\000\007\200\000@\004@\007\300\000@"
 10525      00400440 
 10525      07C00040 
 10526 0408 04000700 		.ascii	"\004\000\007\000\004\300\001\200\006\000\004\000"
ARM GAS  C:\usertemp\ccUDQ5mr.s 			page 307


 10526      04C00180 
 10526      06000400 
 10527 0414 060001C0 		.ascii	"\006\000\001\300\007\000\001\300\006\000\000\000"
 10527      070001C0 
 10527      06000000 
 10528 0420 044006C0 		.ascii	"\004@\006\300\001\000\006\300\004@\000\000"
 10528      010006C0 
 10528      04400000 
 10529 042c 04100710 		.ascii	"\004\020\007\020\004\340\001\200\006\000\004\000"
 10529      04E00180 
 10529      06000400 
 10530 0438 00000440 		.ascii	"\000\000\004@\005\300\006@\004@\000\000"
 10530      05C00640 
 10530      04400000 
 10531 0444 00000000 		.ascii	"\000\000\000\000\004\000{\340@ \000\000"
 10531      04007BE0 
 10531      40200000 
 10532 0450 00000000 		.ascii	"\000\000\000\000\000\000\377\360\000\000\000\000"
 10532      0000FFF0 
 10532      00000000 
 10533 045c 00004020 		.ascii	"\000\000@ {\340\004\000\000\000\000\000"
 10533      7BE00400 
 10533      00000000 
 10534 0468 40008000 		.ascii	"@\000\200\000@\000 \000 \000@\000"
 10534      40002000 
 10534      20004000 
 10535              		.text
 10536              	.Letext0:
 10537              		.file 2 "D:/armtoolchain/arm-gnu-toolchain-13.3.rel1-mingw-w64-i686-arm-none-eabi/arm-none-eabi/in
 10538              		.file 3 "D:/armtoolchain/arm-gnu-toolchain-13.3.rel1-mingw-w64-i686-arm-none-eabi/arm-none-eabi/in
 10539              		.file 4 "Drivers/CMSIS/Device/ST/STM32H7xx/Include/stm32h743xx.h"
 10540              		.file 5 "Drivers/LCD_FMC/inc/tftLCD.h"
 10541              		.file 6 "Drivers/LCD_FMC/inc/font.h"
 10542              		.file 7 "Drivers/STM32H7xx_HAL_Driver/Inc/stm32h7xx_hal.h"
ARM GAS  C:\usertemp\ccUDQ5mr.s 			page 308


DEFINED SYMBOLS
                            *ABS*:00000000 tftLCD.c
C:\usertemp\ccUDQ5mr.s:20     .text.delay_us:00000000 $t
C:\usertemp\ccUDQ5mr.s:26     .text.delay_us:00000000 delay_us
C:\usertemp\ccUDQ5mr.s:65     .text.LCD_WR_REG:00000000 $t
C:\usertemp\ccUDQ5mr.s:71     .text.LCD_WR_REG:00000000 LCD_WR_REG
C:\usertemp\ccUDQ5mr.s:105    .text.LCD_WR_DATA:00000000 $t
C:\usertemp\ccUDQ5mr.s:111    .text.LCD_WR_DATA:00000000 LCD_WR_DATA
C:\usertemp\ccUDQ5mr.s:145    .text.LCD_RD_DATA:00000000 $t
C:\usertemp\ccUDQ5mr.s:151    .text.LCD_RD_DATA:00000000 LCD_RD_DATA
C:\usertemp\ccUDQ5mr.s:183    .text.LCD_WriteReg:00000000 $t
C:\usertemp\ccUDQ5mr.s:189    .text.LCD_WriteReg:00000000 LCD_WriteReg
C:\usertemp\ccUDQ5mr.s:210    .text.LCD_ReadReg:00000000 $t
C:\usertemp\ccUDQ5mr.s:216    .text.LCD_ReadReg:00000000 LCD_ReadReg
C:\usertemp\ccUDQ5mr.s:246    .text.LCD_WriteRAM_Prepare:00000000 $t
C:\usertemp\ccUDQ5mr.s:252    .text.LCD_WriteRAM_Prepare:00000000 LCD_WriteRAM_Prepare
C:\usertemp\ccUDQ5mr.s:271    .text.LCD_WriteRAM_Prepare:00000010 $d
C:\usertemp\ccUDQ5mr.s:9368   .bss.lcddev:00000000 lcddev
C:\usertemp\ccUDQ5mr.s:276    .text.LCD_WriteRAM:00000000 $t
C:\usertemp\ccUDQ5mr.s:282    .text.LCD_WriteRAM:00000000 LCD_WriteRAM
C:\usertemp\ccUDQ5mr.s:300    .text.LCD_BGR2RGB:00000000 $t
C:\usertemp\ccUDQ5mr.s:306    .text.LCD_BGR2RGB:00000000 LCD_BGR2RGB
C:\usertemp\ccUDQ5mr.s:342    .text.opt_delay:00000000 $t
C:\usertemp\ccUDQ5mr.s:348    .text.opt_delay:00000000 opt_delay
C:\usertemp\ccUDQ5mr.s:372    .text.LCD_DisplayOn:00000000 $t
C:\usertemp\ccUDQ5mr.s:378    .text.LCD_DisplayOn:00000000 LCD_DisplayOn
C:\usertemp\ccUDQ5mr.s:413    .text.LCD_DisplayOn:00000020 $d
C:\usertemp\ccUDQ5mr.s:418    .text.LCD_DisplayOff:00000000 $t
C:\usertemp\ccUDQ5mr.s:424    .text.LCD_DisplayOff:00000000 LCD_DisplayOff
C:\usertemp\ccUDQ5mr.s:459    .text.LCD_DisplayOff:00000020 $d
C:\usertemp\ccUDQ5mr.s:464    .text.LCD_SetCursor:00000000 $t
C:\usertemp\ccUDQ5mr.s:470    .text.LCD_SetCursor:00000000 LCD_SetCursor
C:\usertemp\ccUDQ5mr.s:687    .text.LCD_SetCursor:00000108 $d
C:\usertemp\ccUDQ5mr.s:692    .text.LCD_ReadPoint:00000000 $t
C:\usertemp\ccUDQ5mr.s:698    .text.LCD_ReadPoint:00000000 LCD_ReadPoint
C:\usertemp\ccUDQ5mr.s:815    .text.LCD_ReadPoint:0000006c $d
C:\usertemp\ccUDQ5mr.s:820    .text.LCD_Scan_Dir:00000000 $t
C:\usertemp\ccUDQ5mr.s:826    .text.LCD_Scan_Dir:00000000 LCD_Scan_Dir
C:\usertemp\ccUDQ5mr.s:869    .text.LCD_Scan_Dir:00000024 $d
C:\usertemp\ccUDQ5mr.s:892    .text.LCD_Scan_Dir:00000040 $d
C:\usertemp\ccUDQ5mr.s:900    .text.LCD_Scan_Dir:00000048 $t
C:\usertemp\ccUDQ5mr.s:1245   .text.LCD_Scan_Dir:000001d4 $d
C:\usertemp\ccUDQ5mr.s:1250   .text.LCD_DrawPoint:00000000 $t
C:\usertemp\ccUDQ5mr.s:1256   .text.LCD_DrawPoint:00000000 LCD_DrawPoint
C:\usertemp\ccUDQ5mr.s:1286   .text.LCD_DrawPoint:00000018 $d
C:\usertemp\ccUDQ5mr.s:9382   .data.POINT_COLOR:00000000 POINT_COLOR
C:\usertemp\ccUDQ5mr.s:1291   .text.LCD_Fast_DrawPoint:00000000 $t
C:\usertemp\ccUDQ5mr.s:1297   .text.LCD_Fast_DrawPoint:00000000 LCD_Fast_DrawPoint
C:\usertemp\ccUDQ5mr.s:1492   .text.LCD_Fast_DrawPoint:000000f4 $d
C:\usertemp\ccUDQ5mr.s:1497   .text.LCD_SSD_BackLightSet:00000000 $t
C:\usertemp\ccUDQ5mr.s:1503   .text.LCD_SSD_BackLightSet:00000000 LCD_SSD_BackLightSet
C:\usertemp\ccUDQ5mr.s:1571   .text.LCD_SSD_BackLightSet:00000050 $d
C:\usertemp\ccUDQ5mr.s:1577   .text.LCD_Display_Dir:00000000 $t
C:\usertemp\ccUDQ5mr.s:1583   .text.LCD_Display_Dir:00000000 LCD_Display_Dir
C:\usertemp\ccUDQ5mr.s:1810   .text.LCD_Display_Dir:00000114 $d
C:\usertemp\ccUDQ5mr.s:1815   .text.LCD_Set_Window:00000000 $t
C:\usertemp\ccUDQ5mr.s:1821   .text.LCD_Set_Window:00000000 LCD_Set_Window
ARM GAS  C:\usertemp\ccUDQ5mr.s 			page 309


C:\usertemp\ccUDQ5mr.s:2096   .text.LCD_Set_Window:0000016c $d
C:\usertemp\ccUDQ5mr.s:2101   .text.LCD_Clear:00000000 $t
C:\usertemp\ccUDQ5mr.s:2107   .text.LCD_Clear:00000000 LCD_Clear
C:\usertemp\ccUDQ5mr.s:2172   .text.LCD_Clear:00000030 $d
C:\usertemp\ccUDQ5mr.s:2177   .text.LCD_Init:00000000 $t
C:\usertemp\ccUDQ5mr.s:2183   .text.LCD_Init:00000000 LCD_Init
C:\usertemp\ccUDQ5mr.s:2609   .text.LCD_Init:00000238 $d
C:\usertemp\ccUDQ5mr.s:2613   .text.LCD_Init:00000240 $t
C:\usertemp\ccUDQ5mr.s:7978   .text.LCD_Fill:00000000 $t
C:\usertemp\ccUDQ5mr.s:7984   .text.LCD_Fill:00000000 LCD_Fill
C:\usertemp\ccUDQ5mr.s:8068   .text.LCD_Color_Fill:00000000 $t
C:\usertemp\ccUDQ5mr.s:8074   .text.LCD_Color_Fill:00000000 LCD_Color_Fill
C:\usertemp\ccUDQ5mr.s:8172   .text.LCD_DrawLine:00000000 $t
C:\usertemp\ccUDQ5mr.s:8178   .text.LCD_DrawLine:00000000 LCD_DrawLine
C:\usertemp\ccUDQ5mr.s:8380   .text.LCD_DrawRectangle:00000000 $t
C:\usertemp\ccUDQ5mr.s:8386   .text.LCD_DrawRectangle:00000000 LCD_DrawRectangle
C:\usertemp\ccUDQ5mr.s:8441   .text.LCD_Draw_Circle:00000000 $t
C:\usertemp\ccUDQ5mr.s:8447   .text.LCD_Draw_Circle:00000000 LCD_Draw_Circle
C:\usertemp\ccUDQ5mr.s:8608   .text.LCD_ShowChar:00000000 $t
C:\usertemp\ccUDQ5mr.s:8614   .text.LCD_ShowChar:00000000 LCD_ShowChar
C:\usertemp\ccUDQ5mr.s:8831   .text.LCD_ShowChar:000000f8 $d
C:\usertemp\ccUDQ5mr.s:8853   .text.LCD_ShowChar:0000014c $t
C:\usertemp\ccUDQ5mr.s:8866   .text.LCD_ShowChar:00000154 $d
C:\usertemp\ccUDQ5mr.s:10439  .rodata.asc2_1206:00000000 asc2_1206
C:\usertemp\ccUDQ5mr.s:10254  .rodata.asc2_1608:00000000 asc2_1608
C:\usertemp\ccUDQ5mr.s:9963   .rodata.asc2_2412:00000000 asc2_2412
C:\usertemp\ccUDQ5mr.s:9389   .rodata.asc2_3216:00000000 asc2_3216
C:\usertemp\ccUDQ5mr.s:9375   .data.BACK_COLOR:00000000 BACK_COLOR
C:\usertemp\ccUDQ5mr.s:8877   .text._LCD_Pow:00000000 $t
C:\usertemp\ccUDQ5mr.s:8883   .text._LCD_Pow:00000000 _LCD_Pow
C:\usertemp\ccUDQ5mr.s:8926   .text.LCD_ShowNum:00000000 $t
C:\usertemp\ccUDQ5mr.s:8932   .text.LCD_ShowNum:00000000 LCD_ShowNum
C:\usertemp\ccUDQ5mr.s:9071   .text.LCD_ShowNum:00000090 $d
C:\usertemp\ccUDQ5mr.s:9076   .text.LCD_ShowxNum:00000000 $t
C:\usertemp\ccUDQ5mr.s:9082   .text.LCD_ShowxNum:00000000 LCD_ShowxNum
C:\usertemp\ccUDQ5mr.s:9245   .text.LCD_ShowxNum:000000b4 $d
C:\usertemp\ccUDQ5mr.s:9250   .text.LCD_ShowString:00000000 $t
C:\usertemp\ccUDQ5mr.s:9256   .text.LCD_ShowString:00000000 LCD_ShowString
C:\usertemp\ccUDQ5mr.s:9365   .bss.lcddev:00000000 $d
C:\usertemp\ccUDQ5mr.s:9372   .data.BACK_COLOR:00000000 $d
C:\usertemp\ccUDQ5mr.s:9379   .data.POINT_COLOR:00000000 $d
C:\usertemp\ccUDQ5mr.s:9386   .rodata.asc2_3216:00000000 $d
C:\usertemp\ccUDQ5mr.s:9960   .rodata.asc2_2412:00000000 $d
C:\usertemp\ccUDQ5mr.s:10251  .rodata.asc2_1608:00000000 $d
C:\usertemp\ccUDQ5mr.s:10436  .rodata.asc2_1206:00000000 $d
C:\usertemp\ccUDQ5mr.s:877    .text.LCD_Scan_Dir:0000002b $d
C:\usertemp\ccUDQ5mr.s:877    .text.LCD_Scan_Dir:0000002c $t

UNDEFINED SYMBOLS
HAL_Delay
