ARM GAS  C:\usertemp\ccBuol7n.s 			page 1


   1              		.cpu cortex-m7
   2              		.arch armv7e-m
   3              		.fpu fpv5-d16
   4              		.eabi_attribute 28, 1
   5              		.eabi_attribute 20, 1
   6              		.eabi_attribute 21, 1
   7              		.eabi_attribute 23, 3
   8              		.eabi_attribute 24, 1
   9              		.eabi_attribute 25, 1
  10              		.eabi_attribute 26, 1
  11              		.eabi_attribute 30, 1
  12              		.eabi_attribute 34, 1
  13              		.eabi_attribute 18, 4
  14              		.file	"usart.c"
  15              		.text
  16              	.Ltext0:
  17              		.cfi_sections	.debug_frame
  18              		.file 1 "Core/Src/usart.c"
  19              		.section	.text.__io_putchar,"ax",%progbits
  20              		.align	1
  21              		.global	__io_putchar
  22              		.syntax unified
  23              		.thumb
  24              		.thumb_func
  26              	__io_putchar:
  27              	.LVL0:
  28              	.LFB336:
   1:Core/Src/usart.c **** /**
   2:Core/Src/usart.c ****   ******************************************************************************
   3:Core/Src/usart.c ****   * @file    usart.c
   4:Core/Src/usart.c ****   * @brief   This file provides code for the configuration
   5:Core/Src/usart.c ****   *          of the USART instances.
   6:Core/Src/usart.c ****   ******************************************************************************
   7:Core/Src/usart.c ****   * @attention
   8:Core/Src/usart.c ****   *
   9:Core/Src/usart.c ****   * <h2><center>&copy; Copyright (c) 2025 STMicroelectronics.
  10:Core/Src/usart.c ****   * All rights reserved.</center></h2>
  11:Core/Src/usart.c ****   *
  12:Core/Src/usart.c ****   * This software component is licensed by ST under Ultimate Liberty license
  13:Core/Src/usart.c ****   * SLA0044, the "License"; You may not use this file except in compliance with
  14:Core/Src/usart.c ****   * the License. You may obtain a copy of the License at:
  15:Core/Src/usart.c ****   *                             www.st.com/SLA0044
  16:Core/Src/usart.c ****   *
  17:Core/Src/usart.c ****   ******************************************************************************
  18:Core/Src/usart.c ****   */
  19:Core/Src/usart.c **** 
  20:Core/Src/usart.c **** /* Includes ------------------------------------------------------------------*/
  21:Core/Src/usart.c **** #include "usart.h"
  22:Core/Src/usart.c **** 
  23:Core/Src/usart.c **** /* USER CODE BEGIN 0 */
  24:Core/Src/usart.c **** #ifdef __GNUC__
  25:Core/Src/usart.c **** #define PUTCHAR_PROTOTYPE int __io_putchar(int ch)
  26:Core/Src/usart.c ****   PUTCHAR_PROTOTYPE
  27:Core/Src/usart.c ****   {
  29              		.loc 1 27 3 view -0
  30              		.cfi_startproc
  31              		@ args = 0, pretend = 0, frame = 8
ARM GAS  C:\usertemp\ccBuol7n.s 			page 2


  32              		@ frame_needed = 0, uses_anonymous_args = 0
  33              		.loc 1 27 3 is_stmt 0 view .LVU1
  34 0000 00B5     		push	{lr}
  35              	.LCFI0:
  36              		.cfi_def_cfa_offset 4
  37              		.cfi_offset 14, -4
  38 0002 83B0     		sub	sp, sp, #12
  39              	.LCFI1:
  40              		.cfi_def_cfa_offset 16
  41 0004 0190     		str	r0, [sp, #4]
  28:Core/Src/usart.c ****       HAL_UART_Transmit(&huart1 , (uint8_t *)&ch, 1, 0xFFFF);
  42              		.loc 1 28 7 is_stmt 1 view .LVU2
  43 0006 4FF6FF73 		movw	r3, #65535
  44 000a 0122     		movs	r2, #1
  45 000c 01A9     		add	r1, sp, #4
  46 000e 0348     		ldr	r0, .L3
  47              	.LVL1:
  48              		.loc 1 28 7 is_stmt 0 view .LVU3
  49 0010 FFF7FEFF 		bl	HAL_UART_Transmit
  50              	.LVL2:
  29:Core/Src/usart.c ****       return ch;
  51              		.loc 1 29 7 is_stmt 1 view .LVU4
  30:Core/Src/usart.c ****   }
  52              		.loc 1 30 3 is_stmt 0 view .LVU5
  53 0014 0198     		ldr	r0, [sp, #4]
  54 0016 03B0     		add	sp, sp, #12
  55              	.LCFI2:
  56              		.cfi_def_cfa_offset 4
  57              		@ sp needed
  58 0018 5DF804FB 		ldr	pc, [sp], #4
  59              	.L4:
  60              		.align	2
  61              	.L3:
  62 001c 00000000 		.word	huart1
  63              		.cfi_endproc
  64              	.LFE336:
  66              		.section	.text._write,"ax",%progbits
  67              		.align	1
  68              		.global	_write
  69              		.syntax unified
  70              		.thumb
  71              		.thumb_func
  73              	_write:
  74              	.LVL3:
  75              	.LFB337:
  31:Core/Src/usart.c ****   int _write(int file, char *ptr, int len)
  32:Core/Src/usart.c ****   {
  76              		.loc 1 32 3 is_stmt 1 view -0
  77              		.cfi_startproc
  78              		@ args = 0, pretend = 0, frame = 0
  79              		@ frame_needed = 0, uses_anonymous_args = 0
  80              		.loc 1 32 3 is_stmt 0 view .LVU7
  81 0000 70B5     		push	{r4, r5, r6, lr}
  82              	.LCFI3:
  83              		.cfi_def_cfa_offset 16
  84              		.cfi_offset 4, -16
  85              		.cfi_offset 5, -12
ARM GAS  C:\usertemp\ccBuol7n.s 			page 3


  86              		.cfi_offset 6, -8
  87              		.cfi_offset 14, -4
  88 0002 0C46     		mov	r4, r1
  89 0004 1646     		mov	r6, r2
  33:Core/Src/usart.c ****         int DataIdx;
  90              		.loc 1 33 9 is_stmt 1 view .LVU8
  34:Core/Src/usart.c ****         for (DataIdx = 0; DataIdx < len;DataIdx++)
  91              		.loc 1 34 9 view .LVU9
  92              	.LVL4:
  93              		.loc 1 34 22 is_stmt 0 view .LVU10
  94 0006 0025     		movs	r5, #0
  95              		.loc 1 34 9 view .LVU11
  96 0008 04E0     		b	.L6
  97              	.LVL5:
  98              	.L7:
  35:Core/Src/usart.c ****       {
  36:Core/Src/usart.c ****             __io_putchar(*ptr++);
  99              		.loc 1 36 13 is_stmt 1 view .LVU12
 100              		.loc 1 36 13 is_stmt 0 view .LVU13
 101 000a 14F8010B 		ldrb	r0, [r4], #1	@ zero_extendqisi2
 102              	.LVL6:
 103              		.loc 1 36 13 view .LVU14
 104 000e FFF7FEFF 		bl	__io_putchar
 105              	.LVL7:
  34:Core/Src/usart.c ****         for (DataIdx = 0; DataIdx < len;DataIdx++)
 106              		.loc 1 34 48 is_stmt 1 discriminator 3 view .LVU15
 107 0012 0135     		adds	r5, r5, #1
 108              	.LVL8:
 109              	.L6:
  34:Core/Src/usart.c ****         for (DataIdx = 0; DataIdx < len;DataIdx++)
 110              		.loc 1 34 35 discriminator 1 view .LVU16
 111 0014 B542     		cmp	r5, r6
 112 0016 F8DB     		blt	.L7
  37:Core/Src/usart.c ****       }
  38:Core/Src/usart.c ****         return len;
 113              		.loc 1 38 9 view .LVU17
  39:Core/Src/usart.c ****   }
 114              		.loc 1 39 3 is_stmt 0 view .LVU18
 115 0018 3046     		mov	r0, r6
 116 001a 70BD     		pop	{r4, r5, r6, pc}
 117              		.loc 1 39 3 view .LVU19
 118              		.cfi_endproc
 119              	.LFE337:
 121              		.section	.text.MX_UART4_Init,"ax",%progbits
 122              		.align	1
 123              		.global	MX_UART4_Init
 124              		.syntax unified
 125              		.thumb
 126              		.thumb_func
 128              	MX_UART4_Init:
 129              	.LFB338:
  40:Core/Src/usart.c **** #else
  41:Core/Src/usart.c **** #define PUTCHAR_PROTOTYPE int fputc(int ch, FILE *f)
  42:Core/Src/usart.c ****   int fputc(int ch, FILE *f)
  43:Core/Src/usart.c ****   {
  44:Core/Src/usart.c ****     HAL_UART_Transmit(&huart1, (uint8_t *)&ch, 1, 0xffff);
  45:Core/Src/usart.c ****     return ch;
ARM GAS  C:\usertemp\ccBuol7n.s 			page 4


  46:Core/Src/usart.c ****   }
  47:Core/Src/usart.c **** #endif
  48:Core/Src/usart.c **** 
  49:Core/Src/usart.c **** /* USER CODE END 0 */
  50:Core/Src/usart.c **** 
  51:Core/Src/usart.c **** UART_HandleTypeDef huart4;
  52:Core/Src/usart.c **** UART_HandleTypeDef huart1;
  53:Core/Src/usart.c **** UART_HandleTypeDef huart3;
  54:Core/Src/usart.c **** 
  55:Core/Src/usart.c **** /* UART4 init function */
  56:Core/Src/usart.c **** void MX_UART4_Init(void)
  57:Core/Src/usart.c **** {
 130              		.loc 1 57 1 is_stmt 1 view -0
 131              		.cfi_startproc
 132              		@ args = 0, pretend = 0, frame = 0
 133              		@ frame_needed = 0, uses_anonymous_args = 0
 134 0000 08B5     		push	{r3, lr}
 135              	.LCFI4:
 136              		.cfi_def_cfa_offset 8
 137              		.cfi_offset 3, -8
 138              		.cfi_offset 14, -4
  58:Core/Src/usart.c **** 
  59:Core/Src/usart.c ****   /* USER CODE BEGIN UART4_Init 0 */
  60:Core/Src/usart.c **** 
  61:Core/Src/usart.c ****   /* USER CODE END UART4_Init 0 */
  62:Core/Src/usart.c **** 
  63:Core/Src/usart.c ****   /* USER CODE BEGIN UART4_Init 1 */
  64:Core/Src/usart.c **** 
  65:Core/Src/usart.c ****   /* USER CODE END UART4_Init 1 */
  66:Core/Src/usart.c ****   huart4.Instance = UART4;
 139              		.loc 1 66 3 view .LVU21
 140              		.loc 1 66 19 is_stmt 0 view .LVU22
 141 0002 1748     		ldr	r0, .L19
 142 0004 174B     		ldr	r3, .L19+4
 143 0006 0360     		str	r3, [r0]
  67:Core/Src/usart.c ****   huart4.Init.BaudRate = 115200;
 144              		.loc 1 67 3 is_stmt 1 view .LVU23
 145              		.loc 1 67 24 is_stmt 0 view .LVU24
 146 0008 4FF4E133 		mov	r3, #115200
 147 000c 4360     		str	r3, [r0, #4]
  68:Core/Src/usart.c ****   huart4.Init.WordLength = UART_WORDLENGTH_8B;
 148              		.loc 1 68 3 is_stmt 1 view .LVU25
 149              		.loc 1 68 26 is_stmt 0 view .LVU26
 150 000e 0023     		movs	r3, #0
 151 0010 8360     		str	r3, [r0, #8]
  69:Core/Src/usart.c ****   huart4.Init.StopBits = UART_STOPBITS_1;
 152              		.loc 1 69 3 is_stmt 1 view .LVU27
 153              		.loc 1 69 24 is_stmt 0 view .LVU28
 154 0012 C360     		str	r3, [r0, #12]
  70:Core/Src/usart.c ****   huart4.Init.Parity = UART_PARITY_NONE;
 155              		.loc 1 70 3 is_stmt 1 view .LVU29
 156              		.loc 1 70 22 is_stmt 0 view .LVU30
 157 0014 0361     		str	r3, [r0, #16]
  71:Core/Src/usart.c ****   huart4.Init.Mode = UART_MODE_TX_RX;
 158              		.loc 1 71 3 is_stmt 1 view .LVU31
 159              		.loc 1 71 20 is_stmt 0 view .LVU32
 160 0016 0C22     		movs	r2, #12
ARM GAS  C:\usertemp\ccBuol7n.s 			page 5


 161 0018 4261     		str	r2, [r0, #20]
  72:Core/Src/usart.c ****   huart4.Init.HwFlowCtl = UART_HWCONTROL_NONE;
 162              		.loc 1 72 3 is_stmt 1 view .LVU33
 163              		.loc 1 72 25 is_stmt 0 view .LVU34
 164 001a 8361     		str	r3, [r0, #24]
  73:Core/Src/usart.c ****   huart4.Init.OverSampling = UART_OVERSAMPLING_16;
 165              		.loc 1 73 3 is_stmt 1 view .LVU35
 166              		.loc 1 73 28 is_stmt 0 view .LVU36
 167 001c C361     		str	r3, [r0, #28]
  74:Core/Src/usart.c ****   huart4.Init.OneBitSampling = UART_ONE_BIT_SAMPLE_DISABLE;
 168              		.loc 1 74 3 is_stmt 1 view .LVU37
 169              		.loc 1 74 30 is_stmt 0 view .LVU38
 170 001e 0362     		str	r3, [r0, #32]
  75:Core/Src/usart.c ****   huart4.Init.ClockPrescaler = UART_PRESCALER_DIV1;
 171              		.loc 1 75 3 is_stmt 1 view .LVU39
 172              		.loc 1 75 30 is_stmt 0 view .LVU40
 173 0020 4362     		str	r3, [r0, #36]
  76:Core/Src/usart.c ****   huart4.AdvancedInit.AdvFeatureInit = UART_ADVFEATURE_NO_INIT;
 174              		.loc 1 76 3 is_stmt 1 view .LVU41
 175              		.loc 1 76 38 is_stmt 0 view .LVU42
 176 0022 8362     		str	r3, [r0, #40]
  77:Core/Src/usart.c ****   if (HAL_UART_Init(&huart4) != HAL_OK)
 177              		.loc 1 77 3 is_stmt 1 view .LVU43
 178              		.loc 1 77 7 is_stmt 0 view .LVU44
 179 0024 FFF7FEFF 		bl	HAL_UART_Init
 180              	.LVL9:
 181              		.loc 1 77 6 discriminator 1 view .LVU45
 182 0028 70B9     		cbnz	r0, .L15
 183              	.L10:
  78:Core/Src/usart.c ****   {
  79:Core/Src/usart.c ****     Error_Handler();
  80:Core/Src/usart.c ****   }
  81:Core/Src/usart.c ****   if (HAL_UARTEx_SetTxFifoThreshold(&huart4, UART_TXFIFO_THRESHOLD_1_8) != HAL_OK)
 184              		.loc 1 81 3 is_stmt 1 view .LVU46
 185              		.loc 1 81 7 is_stmt 0 view .LVU47
 186 002a 0021     		movs	r1, #0
 187 002c 0C48     		ldr	r0, .L19
 188 002e FFF7FEFF 		bl	HAL_UARTEx_SetTxFifoThreshold
 189              	.LVL10:
 190              		.loc 1 81 6 discriminator 1 view .LVU48
 191 0032 60B9     		cbnz	r0, .L16
 192              	.L11:
  82:Core/Src/usart.c ****   {
  83:Core/Src/usart.c ****     Error_Handler();
  84:Core/Src/usart.c ****   }
  85:Core/Src/usart.c ****   if (HAL_UARTEx_SetRxFifoThreshold(&huart4, UART_RXFIFO_THRESHOLD_1_8) != HAL_OK)
 193              		.loc 1 85 3 is_stmt 1 view .LVU49
 194              		.loc 1 85 7 is_stmt 0 view .LVU50
 195 0034 0021     		movs	r1, #0
 196 0036 0A48     		ldr	r0, .L19
 197 0038 FFF7FEFF 		bl	HAL_UARTEx_SetRxFifoThreshold
 198              	.LVL11:
 199              		.loc 1 85 6 discriminator 1 view .LVU51
 200 003c 50B9     		cbnz	r0, .L17
 201              	.L12:
  86:Core/Src/usart.c ****   {
  87:Core/Src/usart.c ****     Error_Handler();
ARM GAS  C:\usertemp\ccBuol7n.s 			page 6


  88:Core/Src/usart.c ****   }
  89:Core/Src/usart.c ****   if (HAL_UARTEx_DisableFifoMode(&huart4) != HAL_OK)
 202              		.loc 1 89 3 is_stmt 1 view .LVU52
 203              		.loc 1 89 7 is_stmt 0 view .LVU53
 204 003e 0848     		ldr	r0, .L19
 205 0040 FFF7FEFF 		bl	HAL_UARTEx_DisableFifoMode
 206              	.LVL12:
 207              		.loc 1 89 6 discriminator 1 view .LVU54
 208 0044 48B9     		cbnz	r0, .L18
 209              	.L9:
  90:Core/Src/usart.c ****   {
  91:Core/Src/usart.c ****     Error_Handler();
  92:Core/Src/usart.c ****   }
  93:Core/Src/usart.c ****   /* USER CODE BEGIN UART4_Init 2 */
  94:Core/Src/usart.c **** 
  95:Core/Src/usart.c ****   /* USER CODE END UART4_Init 2 */
  96:Core/Src/usart.c **** 
  97:Core/Src/usart.c **** }
 210              		.loc 1 97 1 view .LVU55
 211 0046 08BD     		pop	{r3, pc}
 212              	.L15:
  79:Core/Src/usart.c ****   }
 213              		.loc 1 79 5 is_stmt 1 view .LVU56
 214 0048 FFF7FEFF 		bl	Error_Handler
 215              	.LVL13:
 216 004c EDE7     		b	.L10
 217              	.L16:
  83:Core/Src/usart.c ****   }
 218              		.loc 1 83 5 view .LVU57
 219 004e FFF7FEFF 		bl	Error_Handler
 220              	.LVL14:
 221 0052 EFE7     		b	.L11
 222              	.L17:
  87:Core/Src/usart.c ****   }
 223              		.loc 1 87 5 view .LVU58
 224 0054 FFF7FEFF 		bl	Error_Handler
 225              	.LVL15:
 226 0058 F1E7     		b	.L12
 227              	.L18:
  91:Core/Src/usart.c ****   }
 228              		.loc 1 91 5 view .LVU59
 229 005a FFF7FEFF 		bl	Error_Handler
 230              	.LVL16:
 231              		.loc 1 97 1 is_stmt 0 view .LVU60
 232 005e F2E7     		b	.L9
 233              	.L20:
 234              		.align	2
 235              	.L19:
 236 0060 00000000 		.word	huart4
 237 0064 004C0040 		.word	1073761280
 238              		.cfi_endproc
 239              	.LFE338:
 241              		.section	.text.MX_USART1_UART_Init,"ax",%progbits
 242              		.align	1
 243              		.global	MX_USART1_UART_Init
 244              		.syntax unified
 245              		.thumb
ARM GAS  C:\usertemp\ccBuol7n.s 			page 7


 246              		.thumb_func
 248              	MX_USART1_UART_Init:
 249              	.LFB339:
  98:Core/Src/usart.c **** /* USART1 init function */
  99:Core/Src/usart.c **** 
 100:Core/Src/usart.c **** void MX_USART1_UART_Init(void)
 101:Core/Src/usart.c **** {
 250              		.loc 1 101 1 is_stmt 1 view -0
 251              		.cfi_startproc
 252              		@ args = 0, pretend = 0, frame = 0
 253              		@ frame_needed = 0, uses_anonymous_args = 0
 254 0000 08B5     		push	{r3, lr}
 255              	.LCFI5:
 256              		.cfi_def_cfa_offset 8
 257              		.cfi_offset 3, -8
 258              		.cfi_offset 14, -4
 102:Core/Src/usart.c **** 
 103:Core/Src/usart.c ****   /* USER CODE BEGIN USART1_Init 0 */
 104:Core/Src/usart.c **** 
 105:Core/Src/usart.c ****   /* USER CODE END USART1_Init 0 */
 106:Core/Src/usart.c **** 
 107:Core/Src/usart.c ****   /* USER CODE BEGIN USART1_Init 1 */
 108:Core/Src/usart.c **** 
 109:Core/Src/usart.c ****   /* USER CODE END USART1_Init 1 */
 110:Core/Src/usart.c ****   huart1.Instance = USART1;
 259              		.loc 1 110 3 view .LVU62
 260              		.loc 1 110 19 is_stmt 0 view .LVU63
 261 0002 1748     		ldr	r0, .L31
 262 0004 174B     		ldr	r3, .L31+4
 263 0006 0360     		str	r3, [r0]
 111:Core/Src/usart.c ****   huart1.Init.BaudRate = 115200;
 264              		.loc 1 111 3 is_stmt 1 view .LVU64
 265              		.loc 1 111 24 is_stmt 0 view .LVU65
 266 0008 4FF4E133 		mov	r3, #115200
 267 000c 4360     		str	r3, [r0, #4]
 112:Core/Src/usart.c ****   huart1.Init.WordLength = UART_WORDLENGTH_8B;
 268              		.loc 1 112 3 is_stmt 1 view .LVU66
 269              		.loc 1 112 26 is_stmt 0 view .LVU67
 270 000e 0023     		movs	r3, #0
 271 0010 8360     		str	r3, [r0, #8]
 113:Core/Src/usart.c ****   huart1.Init.StopBits = UART_STOPBITS_1;
 272              		.loc 1 113 3 is_stmt 1 view .LVU68
 273              		.loc 1 113 24 is_stmt 0 view .LVU69
 274 0012 C360     		str	r3, [r0, #12]
 114:Core/Src/usart.c ****   huart1.Init.Parity = UART_PARITY_NONE;
 275              		.loc 1 114 3 is_stmt 1 view .LVU70
 276              		.loc 1 114 22 is_stmt 0 view .LVU71
 277 0014 0361     		str	r3, [r0, #16]
 115:Core/Src/usart.c ****   huart1.Init.Mode = UART_MODE_TX_RX;
 278              		.loc 1 115 3 is_stmt 1 view .LVU72
 279              		.loc 1 115 20 is_stmt 0 view .LVU73
 280 0016 0C22     		movs	r2, #12
 281 0018 4261     		str	r2, [r0, #20]
 116:Core/Src/usart.c ****   huart1.Init.HwFlowCtl = UART_HWCONTROL_NONE;
 282              		.loc 1 116 3 is_stmt 1 view .LVU74
 283              		.loc 1 116 25 is_stmt 0 view .LVU75
 284 001a 8361     		str	r3, [r0, #24]
ARM GAS  C:\usertemp\ccBuol7n.s 			page 8


 117:Core/Src/usart.c ****   huart1.Init.OverSampling = UART_OVERSAMPLING_16;
 285              		.loc 1 117 3 is_stmt 1 view .LVU76
 286              		.loc 1 117 28 is_stmt 0 view .LVU77
 287 001c C361     		str	r3, [r0, #28]
 118:Core/Src/usart.c ****   huart1.Init.OneBitSampling = UART_ONE_BIT_SAMPLE_DISABLE;
 288              		.loc 1 118 3 is_stmt 1 view .LVU78
 289              		.loc 1 118 30 is_stmt 0 view .LVU79
 290 001e 0362     		str	r3, [r0, #32]
 119:Core/Src/usart.c ****   huart1.Init.ClockPrescaler = UART_PRESCALER_DIV1;
 291              		.loc 1 119 3 is_stmt 1 view .LVU80
 292              		.loc 1 119 30 is_stmt 0 view .LVU81
 293 0020 4362     		str	r3, [r0, #36]
 120:Core/Src/usart.c ****   huart1.AdvancedInit.AdvFeatureInit = UART_ADVFEATURE_NO_INIT;
 294              		.loc 1 120 3 is_stmt 1 view .LVU82
 295              		.loc 1 120 38 is_stmt 0 view .LVU83
 296 0022 8362     		str	r3, [r0, #40]
 121:Core/Src/usart.c ****   if (HAL_UART_Init(&huart1) != HAL_OK)
 297              		.loc 1 121 3 is_stmt 1 view .LVU84
 298              		.loc 1 121 7 is_stmt 0 view .LVU85
 299 0024 FFF7FEFF 		bl	HAL_UART_Init
 300              	.LVL17:
 301              		.loc 1 121 6 discriminator 1 view .LVU86
 302 0028 70B9     		cbnz	r0, .L27
 303              	.L22:
 122:Core/Src/usart.c ****   {
 123:Core/Src/usart.c ****     Error_Handler();
 124:Core/Src/usart.c ****   }
 125:Core/Src/usart.c ****   if (HAL_UARTEx_SetTxFifoThreshold(&huart1, UART_TXFIFO_THRESHOLD_1_8) != HAL_OK)
 304              		.loc 1 125 3 is_stmt 1 view .LVU87
 305              		.loc 1 125 7 is_stmt 0 view .LVU88
 306 002a 0021     		movs	r1, #0
 307 002c 0C48     		ldr	r0, .L31
 308 002e FFF7FEFF 		bl	HAL_UARTEx_SetTxFifoThreshold
 309              	.LVL18:
 310              		.loc 1 125 6 discriminator 1 view .LVU89
 311 0032 60B9     		cbnz	r0, .L28
 312              	.L23:
 126:Core/Src/usart.c ****   {
 127:Core/Src/usart.c ****     Error_Handler();
 128:Core/Src/usart.c ****   }
 129:Core/Src/usart.c ****   if (HAL_UARTEx_SetRxFifoThreshold(&huart1, UART_RXFIFO_THRESHOLD_1_8) != HAL_OK)
 313              		.loc 1 129 3 is_stmt 1 view .LVU90
 314              		.loc 1 129 7 is_stmt 0 view .LVU91
 315 0034 0021     		movs	r1, #0
 316 0036 0A48     		ldr	r0, .L31
 317 0038 FFF7FEFF 		bl	HAL_UARTEx_SetRxFifoThreshold
 318              	.LVL19:
 319              		.loc 1 129 6 discriminator 1 view .LVU92
 320 003c 50B9     		cbnz	r0, .L29
 321              	.L24:
 130:Core/Src/usart.c ****   {
 131:Core/Src/usart.c ****     Error_Handler();
 132:Core/Src/usart.c ****   }
 133:Core/Src/usart.c ****   if (HAL_UARTEx_DisableFifoMode(&huart1) != HAL_OK)
 322              		.loc 1 133 3 is_stmt 1 view .LVU93
 323              		.loc 1 133 7 is_stmt 0 view .LVU94
 324 003e 0848     		ldr	r0, .L31
ARM GAS  C:\usertemp\ccBuol7n.s 			page 9


 325 0040 FFF7FEFF 		bl	HAL_UARTEx_DisableFifoMode
 326              	.LVL20:
 327              		.loc 1 133 6 discriminator 1 view .LVU95
 328 0044 48B9     		cbnz	r0, .L30
 329              	.L21:
 134:Core/Src/usart.c ****   {
 135:Core/Src/usart.c ****     Error_Handler();
 136:Core/Src/usart.c ****   }
 137:Core/Src/usart.c ****   /* USER CODE BEGIN USART1_Init 2 */
 138:Core/Src/usart.c **** 
 139:Core/Src/usart.c ****   /* USER CODE END USART1_Init 2 */
 140:Core/Src/usart.c **** 
 141:Core/Src/usart.c **** }
 330              		.loc 1 141 1 view .LVU96
 331 0046 08BD     		pop	{r3, pc}
 332              	.L27:
 123:Core/Src/usart.c ****   }
 333              		.loc 1 123 5 is_stmt 1 view .LVU97
 334 0048 FFF7FEFF 		bl	Error_Handler
 335              	.LVL21:
 336 004c EDE7     		b	.L22
 337              	.L28:
 127:Core/Src/usart.c ****   }
 338              		.loc 1 127 5 view .LVU98
 339 004e FFF7FEFF 		bl	Error_Handler
 340              	.LVL22:
 341 0052 EFE7     		b	.L23
 342              	.L29:
 131:Core/Src/usart.c ****   }
 343              		.loc 1 131 5 view .LVU99
 344 0054 FFF7FEFF 		bl	Error_Handler
 345              	.LVL23:
 346 0058 F1E7     		b	.L24
 347              	.L30:
 135:Core/Src/usart.c ****   }
 348              		.loc 1 135 5 view .LVU100
 349 005a FFF7FEFF 		bl	Error_Handler
 350              	.LVL24:
 351              		.loc 1 141 1 is_stmt 0 view .LVU101
 352 005e F2E7     		b	.L21
 353              	.L32:
 354              		.align	2
 355              	.L31:
 356 0060 00000000 		.word	huart1
 357 0064 00100140 		.word	1073811456
 358              		.cfi_endproc
 359              	.LFE339:
 361              		.section	.text.MX_USART3_UART_Init,"ax",%progbits
 362              		.align	1
 363              		.global	MX_USART3_UART_Init
 364              		.syntax unified
 365              		.thumb
 366              		.thumb_func
 368              	MX_USART3_UART_Init:
 369              	.LFB340:
 142:Core/Src/usart.c **** /* USART3 init function */
 143:Core/Src/usart.c **** 
ARM GAS  C:\usertemp\ccBuol7n.s 			page 10


 144:Core/Src/usart.c **** void MX_USART3_UART_Init(void)
 145:Core/Src/usart.c **** {
 370              		.loc 1 145 1 is_stmt 1 view -0
 371              		.cfi_startproc
 372              		@ args = 0, pretend = 0, frame = 0
 373              		@ frame_needed = 0, uses_anonymous_args = 0
 374 0000 08B5     		push	{r3, lr}
 375              	.LCFI6:
 376              		.cfi_def_cfa_offset 8
 377              		.cfi_offset 3, -8
 378              		.cfi_offset 14, -4
 146:Core/Src/usart.c **** 
 147:Core/Src/usart.c ****   /* USER CODE BEGIN USART3_Init 0 */
 148:Core/Src/usart.c **** 
 149:Core/Src/usart.c ****   /* USER CODE END USART3_Init 0 */
 150:Core/Src/usart.c **** 
 151:Core/Src/usart.c ****   /* USER CODE BEGIN USART3_Init 1 */
 152:Core/Src/usart.c **** 
 153:Core/Src/usart.c ****   /* USER CODE END USART3_Init 1 */
 154:Core/Src/usart.c ****   huart3.Instance = USART3;
 379              		.loc 1 154 3 view .LVU103
 380              		.loc 1 154 19 is_stmt 0 view .LVU104
 381 0002 1748     		ldr	r0, .L43
 382 0004 174B     		ldr	r3, .L43+4
 383 0006 0360     		str	r3, [r0]
 155:Core/Src/usart.c ****   huart3.Init.BaudRate = 115200;
 384              		.loc 1 155 3 is_stmt 1 view .LVU105
 385              		.loc 1 155 24 is_stmt 0 view .LVU106
 386 0008 4FF4E133 		mov	r3, #115200
 387 000c 4360     		str	r3, [r0, #4]
 156:Core/Src/usart.c ****   huart3.Init.WordLength = UART_WORDLENGTH_8B;
 388              		.loc 1 156 3 is_stmt 1 view .LVU107
 389              		.loc 1 156 26 is_stmt 0 view .LVU108
 390 000e 0023     		movs	r3, #0
 391 0010 8360     		str	r3, [r0, #8]
 157:Core/Src/usart.c ****   huart3.Init.StopBits = UART_STOPBITS_1;
 392              		.loc 1 157 3 is_stmt 1 view .LVU109
 393              		.loc 1 157 24 is_stmt 0 view .LVU110
 394 0012 C360     		str	r3, [r0, #12]
 158:Core/Src/usart.c ****   huart3.Init.Parity = UART_PARITY_NONE;
 395              		.loc 1 158 3 is_stmt 1 view .LVU111
 396              		.loc 1 158 22 is_stmt 0 view .LVU112
 397 0014 0361     		str	r3, [r0, #16]
 159:Core/Src/usart.c ****   huart3.Init.Mode = UART_MODE_TX_RX;
 398              		.loc 1 159 3 is_stmt 1 view .LVU113
 399              		.loc 1 159 20 is_stmt 0 view .LVU114
 400 0016 0C22     		movs	r2, #12
 401 0018 4261     		str	r2, [r0, #20]
 160:Core/Src/usart.c ****   huart3.Init.HwFlowCtl = UART_HWCONTROL_NONE;
 402              		.loc 1 160 3 is_stmt 1 view .LVU115
 403              		.loc 1 160 25 is_stmt 0 view .LVU116
 404 001a 8361     		str	r3, [r0, #24]
 161:Core/Src/usart.c ****   huart3.Init.OverSampling = UART_OVERSAMPLING_16;
 405              		.loc 1 161 3 is_stmt 1 view .LVU117
 406              		.loc 1 161 28 is_stmt 0 view .LVU118
 407 001c C361     		str	r3, [r0, #28]
 162:Core/Src/usart.c ****   huart3.Init.OneBitSampling = UART_ONE_BIT_SAMPLE_DISABLE;
ARM GAS  C:\usertemp\ccBuol7n.s 			page 11


 408              		.loc 1 162 3 is_stmt 1 view .LVU119
 409              		.loc 1 162 30 is_stmt 0 view .LVU120
 410 001e 0362     		str	r3, [r0, #32]
 163:Core/Src/usart.c ****   huart3.Init.ClockPrescaler = UART_PRESCALER_DIV1;
 411              		.loc 1 163 3 is_stmt 1 view .LVU121
 412              		.loc 1 163 30 is_stmt 0 view .LVU122
 413 0020 4362     		str	r3, [r0, #36]
 164:Core/Src/usart.c ****   huart3.AdvancedInit.AdvFeatureInit = UART_ADVFEATURE_NO_INIT;
 414              		.loc 1 164 3 is_stmt 1 view .LVU123
 415              		.loc 1 164 38 is_stmt 0 view .LVU124
 416 0022 8362     		str	r3, [r0, #40]
 165:Core/Src/usart.c ****   if (HAL_UART_Init(&huart3) != HAL_OK)
 417              		.loc 1 165 3 is_stmt 1 view .LVU125
 418              		.loc 1 165 7 is_stmt 0 view .LVU126
 419 0024 FFF7FEFF 		bl	HAL_UART_Init
 420              	.LVL25:
 421              		.loc 1 165 6 discriminator 1 view .LVU127
 422 0028 70B9     		cbnz	r0, .L39
 423              	.L34:
 166:Core/Src/usart.c ****   {
 167:Core/Src/usart.c ****     Error_Handler();
 168:Core/Src/usart.c ****   }
 169:Core/Src/usart.c ****   if (HAL_UARTEx_SetTxFifoThreshold(&huart3, UART_TXFIFO_THRESHOLD_1_8) != HAL_OK)
 424              		.loc 1 169 3 is_stmt 1 view .LVU128
 425              		.loc 1 169 7 is_stmt 0 view .LVU129
 426 002a 0021     		movs	r1, #0
 427 002c 0C48     		ldr	r0, .L43
 428 002e FFF7FEFF 		bl	HAL_UARTEx_SetTxFifoThreshold
 429              	.LVL26:
 430              		.loc 1 169 6 discriminator 1 view .LVU130
 431 0032 60B9     		cbnz	r0, .L40
 432              	.L35:
 170:Core/Src/usart.c ****   {
 171:Core/Src/usart.c ****     Error_Handler();
 172:Core/Src/usart.c ****   }
 173:Core/Src/usart.c ****   if (HAL_UARTEx_SetRxFifoThreshold(&huart3, UART_RXFIFO_THRESHOLD_1_8) != HAL_OK)
 433              		.loc 1 173 3 is_stmt 1 view .LVU131
 434              		.loc 1 173 7 is_stmt 0 view .LVU132
 435 0034 0021     		movs	r1, #0
 436 0036 0A48     		ldr	r0, .L43
 437 0038 FFF7FEFF 		bl	HAL_UARTEx_SetRxFifoThreshold
 438              	.LVL27:
 439              		.loc 1 173 6 discriminator 1 view .LVU133
 440 003c 50B9     		cbnz	r0, .L41
 441              	.L36:
 174:Core/Src/usart.c ****   {
 175:Core/Src/usart.c ****     Error_Handler();
 176:Core/Src/usart.c ****   }
 177:Core/Src/usart.c ****   if (HAL_UARTEx_DisableFifoMode(&huart3) != HAL_OK)
 442              		.loc 1 177 3 is_stmt 1 view .LVU134
 443              		.loc 1 177 7 is_stmt 0 view .LVU135
 444 003e 0848     		ldr	r0, .L43
 445 0040 FFF7FEFF 		bl	HAL_UARTEx_DisableFifoMode
 446              	.LVL28:
 447              		.loc 1 177 6 discriminator 1 view .LVU136
 448 0044 48B9     		cbnz	r0, .L42
 449              	.L33:
ARM GAS  C:\usertemp\ccBuol7n.s 			page 12


 178:Core/Src/usart.c ****   {
 179:Core/Src/usart.c ****     Error_Handler();
 180:Core/Src/usart.c ****   }
 181:Core/Src/usart.c ****   /* USER CODE BEGIN USART3_Init 2 */
 182:Core/Src/usart.c **** 
 183:Core/Src/usart.c ****   /* USER CODE END USART3_Init 2 */
 184:Core/Src/usart.c **** 
 185:Core/Src/usart.c **** }
 450              		.loc 1 185 1 view .LVU137
 451 0046 08BD     		pop	{r3, pc}
 452              	.L39:
 167:Core/Src/usart.c ****   }
 453              		.loc 1 167 5 is_stmt 1 view .LVU138
 454 0048 FFF7FEFF 		bl	Error_Handler
 455              	.LVL29:
 456 004c EDE7     		b	.L34
 457              	.L40:
 171:Core/Src/usart.c ****   }
 458              		.loc 1 171 5 view .LVU139
 459 004e FFF7FEFF 		bl	Error_Handler
 460              	.LVL30:
 461 0052 EFE7     		b	.L35
 462              	.L41:
 175:Core/Src/usart.c ****   }
 463              		.loc 1 175 5 view .LVU140
 464 0054 FFF7FEFF 		bl	Error_Handler
 465              	.LVL31:
 466 0058 F1E7     		b	.L36
 467              	.L42:
 179:Core/Src/usart.c ****   }
 468              		.loc 1 179 5 view .LVU141
 469 005a FFF7FEFF 		bl	Error_Handler
 470              	.LVL32:
 471              		.loc 1 185 1 is_stmt 0 view .LVU142
 472 005e F2E7     		b	.L33
 473              	.L44:
 474              		.align	2
 475              	.L43:
 476 0060 00000000 		.word	huart3
 477 0064 00480040 		.word	1073760256
 478              		.cfi_endproc
 479              	.LFE340:
 481              		.section	.text.HAL_UART_MspInit,"ax",%progbits
 482              		.align	1
 483              		.global	HAL_UART_MspInit
 484              		.syntax unified
 485              		.thumb
 486              		.thumb_func
 488              	HAL_UART_MspInit:
 489              	.LVL33:
 490              	.LFB341:
 186:Core/Src/usart.c **** 
 187:Core/Src/usart.c **** void HAL_UART_MspInit(UART_HandleTypeDef* uartHandle)
 188:Core/Src/usart.c **** {
 491              		.loc 1 188 1 is_stmt 1 view -0
 492              		.cfi_startproc
 493              		@ args = 0, pretend = 0, frame = 232
ARM GAS  C:\usertemp\ccBuol7n.s 			page 13


 494              		@ frame_needed = 0, uses_anonymous_args = 0
 495              		.loc 1 188 1 is_stmt 0 view .LVU144
 496 0000 10B5     		push	{r4, lr}
 497              	.LCFI7:
 498              		.cfi_def_cfa_offset 8
 499              		.cfi_offset 4, -8
 500              		.cfi_offset 14, -4
 501 0002 BAB0     		sub	sp, sp, #232
 502              	.LCFI8:
 503              		.cfi_def_cfa_offset 240
 504 0004 0446     		mov	r4, r0
 189:Core/Src/usart.c **** 
 190:Core/Src/usart.c ****   GPIO_InitTypeDef GPIO_InitStruct = {0};
 505              		.loc 1 190 3 is_stmt 1 view .LVU145
 506              		.loc 1 190 20 is_stmt 0 view .LVU146
 507 0006 0021     		movs	r1, #0
 508 0008 3591     		str	r1, [sp, #212]
 509 000a 3691     		str	r1, [sp, #216]
 510 000c 3791     		str	r1, [sp, #220]
 511 000e 3891     		str	r1, [sp, #224]
 512 0010 3991     		str	r1, [sp, #228]
 191:Core/Src/usart.c ****   RCC_PeriphCLKInitTypeDef PeriphClkInitStruct = {0};
 513              		.loc 1 191 3 is_stmt 1 view .LVU147
 514              		.loc 1 191 28 is_stmt 0 view .LVU148
 515 0012 BC22     		movs	r2, #188
 516 0014 06A8     		add	r0, sp, #24
 517              	.LVL34:
 518              		.loc 1 191 28 view .LVU149
 519 0016 FFF7FEFF 		bl	memset
 520              	.LVL35:
 192:Core/Src/usart.c ****   if(uartHandle->Instance==UART4)
 521              		.loc 1 192 3 is_stmt 1 view .LVU150
 522              		.loc 1 192 16 is_stmt 0 view .LVU151
 523 001a 2368     		ldr	r3, [r4]
 524              		.loc 1 192 5 view .LVU152
 525 001c 4E4A     		ldr	r2, .L59
 526 001e 9342     		cmp	r3, r2
 527 0020 07D0     		beq	.L53
 193:Core/Src/usart.c ****   {
 194:Core/Src/usart.c ****   /* USER CODE BEGIN UART4_MspInit 0 */
 195:Core/Src/usart.c **** 
 196:Core/Src/usart.c ****   /* USER CODE END UART4_MspInit 0 */
 197:Core/Src/usart.c ****   /** Initializes the peripherals clock
 198:Core/Src/usart.c ****   */
 199:Core/Src/usart.c ****     PeriphClkInitStruct.PeriphClockSelection = RCC_PERIPHCLK_UART4;
 200:Core/Src/usart.c ****     PeriphClkInitStruct.Usart234578ClockSelection = RCC_USART234578CLKSOURCE_D2PCLK1;
 201:Core/Src/usart.c ****     if (HAL_RCCEx_PeriphCLKConfig(&PeriphClkInitStruct) != HAL_OK)
 202:Core/Src/usart.c ****     {
 203:Core/Src/usart.c ****       Error_Handler();
 204:Core/Src/usart.c ****     }
 205:Core/Src/usart.c **** 
 206:Core/Src/usart.c ****     /* UART4 clock enable */
 207:Core/Src/usart.c ****     __HAL_RCC_UART4_CLK_ENABLE();
 208:Core/Src/usart.c **** 
 209:Core/Src/usart.c ****     __HAL_RCC_GPIOB_CLK_ENABLE();
 210:Core/Src/usart.c ****     /**UART4 GPIO Configuration
 211:Core/Src/usart.c ****     PB8     ------> UART4_RX
ARM GAS  C:\usertemp\ccBuol7n.s 			page 14


 212:Core/Src/usart.c ****     PB9     ------> UART4_TX
 213:Core/Src/usart.c ****     */
 214:Core/Src/usart.c ****     GPIO_InitStruct.Pin = GPIO_PIN_8|GPIO_PIN_9;
 215:Core/Src/usart.c ****     GPIO_InitStruct.Mode = GPIO_MODE_AF_PP;
 216:Core/Src/usart.c ****     GPIO_InitStruct.Pull = GPIO_NOPULL;
 217:Core/Src/usart.c ****     GPIO_InitStruct.Speed = GPIO_SPEED_FREQ_LOW;
 218:Core/Src/usart.c ****     GPIO_InitStruct.Alternate = GPIO_AF8_UART4;
 219:Core/Src/usart.c ****     HAL_GPIO_Init(GPIOB, &GPIO_InitStruct);
 220:Core/Src/usart.c **** 
 221:Core/Src/usart.c ****   /* USER CODE BEGIN UART4_MspInit 1 */
 222:Core/Src/usart.c **** 
 223:Core/Src/usart.c ****   /* USER CODE END UART4_MspInit 1 */
 224:Core/Src/usart.c ****   }
 225:Core/Src/usart.c ****   else if(uartHandle->Instance==USART1)
 528              		.loc 1 225 8 is_stmt 1 view .LVU153
 529              		.loc 1 225 10 is_stmt 0 view .LVU154
 530 0022 4E4A     		ldr	r2, .L59+4
 531 0024 9342     		cmp	r3, r2
 532 0026 35D0     		beq	.L54
 226:Core/Src/usart.c ****   {
 227:Core/Src/usart.c ****   /* USER CODE BEGIN USART1_MspInit 0 */
 228:Core/Src/usart.c **** 
 229:Core/Src/usart.c ****   /* USER CODE END USART1_MspInit 0 */
 230:Core/Src/usart.c **** 
 231:Core/Src/usart.c ****   /** Initializes the peripherals clock
 232:Core/Src/usart.c ****   */
 233:Core/Src/usart.c ****     PeriphClkInitStruct.PeriphClockSelection = RCC_PERIPHCLK_USART1;
 234:Core/Src/usart.c ****     PeriphClkInitStruct.Usart16ClockSelection = RCC_USART16CLKSOURCE_D2PCLK2;
 235:Core/Src/usart.c ****     if (HAL_RCCEx_PeriphCLKConfig(&PeriphClkInitStruct) != HAL_OK)
 236:Core/Src/usart.c ****     {
 237:Core/Src/usart.c ****       Error_Handler();
 238:Core/Src/usart.c ****     }
 239:Core/Src/usart.c **** 
 240:Core/Src/usart.c ****     /* USART1 clock enable */
 241:Core/Src/usart.c ****     __HAL_RCC_USART1_CLK_ENABLE();
 242:Core/Src/usart.c **** 
 243:Core/Src/usart.c ****     __HAL_RCC_GPIOB_CLK_ENABLE();
 244:Core/Src/usart.c ****     /**USART1 GPIO Configuration
 245:Core/Src/usart.c ****     PB14     ------> USART1_TX
 246:Core/Src/usart.c ****     PB15     ------> USART1_RX
 247:Core/Src/usart.c ****     */
 248:Core/Src/usart.c ****     GPIO_InitStruct.Pin = GPIO_PIN_14|GPIO_PIN_15;
 249:Core/Src/usart.c ****     GPIO_InitStruct.Mode = GPIO_MODE_AF_PP;
 250:Core/Src/usart.c ****     GPIO_InitStruct.Pull = GPIO_NOPULL;
 251:Core/Src/usart.c ****     GPIO_InitStruct.Speed = GPIO_SPEED_FREQ_LOW;
 252:Core/Src/usart.c ****     GPIO_InitStruct.Alternate = GPIO_AF4_USART1;
 253:Core/Src/usart.c ****     HAL_GPIO_Init(GPIOB, &GPIO_InitStruct);
 254:Core/Src/usart.c **** 
 255:Core/Src/usart.c ****   /* USER CODE BEGIN USART1_MspInit 1 */
 256:Core/Src/usart.c **** 
 257:Core/Src/usart.c ****   /* USER CODE END USART1_MspInit 1 */
 258:Core/Src/usart.c ****   }
 259:Core/Src/usart.c ****   else if(uartHandle->Instance==USART3)
 533              		.loc 1 259 8 is_stmt 1 view .LVU155
 534              		.loc 1 259 10 is_stmt 0 view .LVU156
 535 0028 4D4A     		ldr	r2, .L59+8
 536 002a 9342     		cmp	r3, r2
ARM GAS  C:\usertemp\ccBuol7n.s 			page 15


 537 002c 63D0     		beq	.L55
 538              	.L45:
 260:Core/Src/usart.c ****   {
 261:Core/Src/usart.c ****   /* USER CODE BEGIN USART3_MspInit 0 */
 262:Core/Src/usart.c **** 
 263:Core/Src/usart.c ****   /* USER CODE END USART3_MspInit 0 */
 264:Core/Src/usart.c **** 
 265:Core/Src/usart.c ****   /** Initializes the peripherals clock
 266:Core/Src/usart.c ****   */
 267:Core/Src/usart.c ****     PeriphClkInitStruct.PeriphClockSelection = RCC_PERIPHCLK_USART3;
 268:Core/Src/usart.c ****     PeriphClkInitStruct.Usart234578ClockSelection = RCC_USART234578CLKSOURCE_D2PCLK1;
 269:Core/Src/usart.c ****     if (HAL_RCCEx_PeriphCLKConfig(&PeriphClkInitStruct) != HAL_OK)
 270:Core/Src/usart.c ****     {
 271:Core/Src/usart.c ****       Error_Handler();
 272:Core/Src/usart.c ****     }
 273:Core/Src/usart.c **** 
 274:Core/Src/usart.c ****     /* USART3 clock enable */
 275:Core/Src/usart.c ****     __HAL_RCC_USART3_CLK_ENABLE();
 276:Core/Src/usart.c **** 
 277:Core/Src/usart.c ****     __HAL_RCC_GPIOB_CLK_ENABLE();
 278:Core/Src/usart.c ****     /**USART3 GPIO Configuration
 279:Core/Src/usart.c ****     PB10     ------> USART3_TX
 280:Core/Src/usart.c ****     PB11     ------> USART3_RX
 281:Core/Src/usart.c ****     */
 282:Core/Src/usart.c ****     GPIO_InitStruct.Pin = GPIO_PIN_10|GPIO_PIN_11;
 283:Core/Src/usart.c ****     GPIO_InitStruct.Mode = GPIO_MODE_AF_PP;
 284:Core/Src/usart.c ****     GPIO_InitStruct.Pull = GPIO_NOPULL;
 285:Core/Src/usart.c ****     GPIO_InitStruct.Speed = GPIO_SPEED_FREQ_LOW;
 286:Core/Src/usart.c ****     GPIO_InitStruct.Alternate = GPIO_AF7_USART3;
 287:Core/Src/usart.c ****     HAL_GPIO_Init(GPIOB, &GPIO_InitStruct);
 288:Core/Src/usart.c **** 
 289:Core/Src/usart.c ****   /* USER CODE BEGIN USART3_MspInit 1 */
 290:Core/Src/usart.c **** 
 291:Core/Src/usart.c ****   /* USER CODE END USART3_MspInit 1 */
 292:Core/Src/usart.c ****   }
 293:Core/Src/usart.c **** }
 539              		.loc 1 293 1 view .LVU157
 540 002e 3AB0     		add	sp, sp, #232
 541              	.LCFI9:
 542              		.cfi_remember_state
 543              		.cfi_def_cfa_offset 8
 544              		@ sp needed
 545 0030 10BD     		pop	{r4, pc}
 546              	.LVL36:
 547              	.L53:
 548              	.LCFI10:
 549              		.cfi_restore_state
 199:Core/Src/usart.c ****     PeriphClkInitStruct.Usart234578ClockSelection = RCC_USART234578CLKSOURCE_D2PCLK1;
 550              		.loc 1 199 5 is_stmt 1 view .LVU158
 199:Core/Src/usart.c ****     PeriphClkInitStruct.Usart234578ClockSelection = RCC_USART234578CLKSOURCE_D2PCLK1;
 551              		.loc 1 199 46 is_stmt 0 view .LVU159
 552 0032 0223     		movs	r3, #2
 553 0034 0693     		str	r3, [sp, #24]
 200:Core/Src/usart.c ****     if (HAL_RCCEx_PeriphCLKConfig(&PeriphClkInitStruct) != HAL_OK)
 554              		.loc 1 200 5 is_stmt 1 view .LVU160
 201:Core/Src/usart.c ****     {
 555              		.loc 1 201 5 view .LVU161
ARM GAS  C:\usertemp\ccBuol7n.s 			page 16


 201:Core/Src/usart.c ****     {
 556              		.loc 1 201 9 is_stmt 0 view .LVU162
 557 0036 06A8     		add	r0, sp, #24
 558 0038 FFF7FEFF 		bl	HAL_RCCEx_PeriphCLKConfig
 559              	.LVL37:
 201:Core/Src/usart.c ****     {
 560              		.loc 1 201 8 discriminator 1 view .LVU163
 561 003c 38BB     		cbnz	r0, .L56
 562              	.L47:
 207:Core/Src/usart.c **** 
 563              		.loc 1 207 5 is_stmt 1 view .LVU164
 564              	.LBB2:
 207:Core/Src/usart.c **** 
 565              		.loc 1 207 5 view .LVU165
 207:Core/Src/usart.c **** 
 566              		.loc 1 207 5 view .LVU166
 567 003e 494B     		ldr	r3, .L59+12
 568 0040 D3F8E820 		ldr	r2, [r3, #232]
 569 0044 42F40022 		orr	r2, r2, #524288
 570 0048 C3F8E820 		str	r2, [r3, #232]
 207:Core/Src/usart.c **** 
 571              		.loc 1 207 5 view .LVU167
 572 004c D3F8E820 		ldr	r2, [r3, #232]
 573 0050 02F40022 		and	r2, r2, #524288
 574 0054 0092     		str	r2, [sp]
 207:Core/Src/usart.c **** 
 575              		.loc 1 207 5 view .LVU168
 576 0056 009A     		ldr	r2, [sp]
 577              	.LBE2:
 207:Core/Src/usart.c **** 
 578              		.loc 1 207 5 view .LVU169
 209:Core/Src/usart.c ****     /**UART4 GPIO Configuration
 579              		.loc 1 209 5 view .LVU170
 580              	.LBB3:
 209:Core/Src/usart.c ****     /**UART4 GPIO Configuration
 581              		.loc 1 209 5 view .LVU171
 209:Core/Src/usart.c ****     /**UART4 GPIO Configuration
 582              		.loc 1 209 5 view .LVU172
 583 0058 D3F8E020 		ldr	r2, [r3, #224]
 584 005c 42F00202 		orr	r2, r2, #2
 585 0060 C3F8E020 		str	r2, [r3, #224]
 209:Core/Src/usart.c ****     /**UART4 GPIO Configuration
 586              		.loc 1 209 5 view .LVU173
 587 0064 D3F8E030 		ldr	r3, [r3, #224]
 588 0068 03F00203 		and	r3, r3, #2
 589 006c 0193     		str	r3, [sp, #4]
 209:Core/Src/usart.c ****     /**UART4 GPIO Configuration
 590              		.loc 1 209 5 view .LVU174
 591 006e 019B     		ldr	r3, [sp, #4]
 592              	.LBE3:
 209:Core/Src/usart.c ****     /**UART4 GPIO Configuration
 593              		.loc 1 209 5 view .LVU175
 214:Core/Src/usart.c ****     GPIO_InitStruct.Mode = GPIO_MODE_AF_PP;
 594              		.loc 1 214 5 view .LVU176
 214:Core/Src/usart.c ****     GPIO_InitStruct.Mode = GPIO_MODE_AF_PP;
 595              		.loc 1 214 25 is_stmt 0 view .LVU177
 596 0070 4FF44073 		mov	r3, #768
ARM GAS  C:\usertemp\ccBuol7n.s 			page 17


 597 0074 3593     		str	r3, [sp, #212]
 215:Core/Src/usart.c ****     GPIO_InitStruct.Pull = GPIO_NOPULL;
 598              		.loc 1 215 5 is_stmt 1 view .LVU178
 215:Core/Src/usart.c ****     GPIO_InitStruct.Pull = GPIO_NOPULL;
 599              		.loc 1 215 26 is_stmt 0 view .LVU179
 600 0076 0223     		movs	r3, #2
 601 0078 3693     		str	r3, [sp, #216]
 216:Core/Src/usart.c ****     GPIO_InitStruct.Speed = GPIO_SPEED_FREQ_LOW;
 602              		.loc 1 216 5 is_stmt 1 view .LVU180
 216:Core/Src/usart.c ****     GPIO_InitStruct.Speed = GPIO_SPEED_FREQ_LOW;
 603              		.loc 1 216 26 is_stmt 0 view .LVU181
 604 007a 0023     		movs	r3, #0
 605 007c 3793     		str	r3, [sp, #220]
 217:Core/Src/usart.c ****     GPIO_InitStruct.Alternate = GPIO_AF8_UART4;
 606              		.loc 1 217 5 is_stmt 1 view .LVU182
 217:Core/Src/usart.c ****     GPIO_InitStruct.Alternate = GPIO_AF8_UART4;
 607              		.loc 1 217 27 is_stmt 0 view .LVU183
 608 007e 3893     		str	r3, [sp, #224]
 218:Core/Src/usart.c ****     HAL_GPIO_Init(GPIOB, &GPIO_InitStruct);
 609              		.loc 1 218 5 is_stmt 1 view .LVU184
 218:Core/Src/usart.c ****     HAL_GPIO_Init(GPIOB, &GPIO_InitStruct);
 610              		.loc 1 218 31 is_stmt 0 view .LVU185
 611 0080 0823     		movs	r3, #8
 612 0082 3993     		str	r3, [sp, #228]
 219:Core/Src/usart.c **** 
 613              		.loc 1 219 5 is_stmt 1 view .LVU186
 614 0084 35A9     		add	r1, sp, #212
 615 0086 3848     		ldr	r0, .L59+16
 616 0088 FFF7FEFF 		bl	HAL_GPIO_Init
 617              	.LVL38:
 618 008c CFE7     		b	.L45
 619              	.L56:
 203:Core/Src/usart.c ****     }
 620              		.loc 1 203 7 view .LVU187
 621 008e FFF7FEFF 		bl	Error_Handler
 622              	.LVL39:
 623 0092 D4E7     		b	.L47
 624              	.L54:
 233:Core/Src/usart.c ****     PeriphClkInitStruct.Usart16ClockSelection = RCC_USART16CLKSOURCE_D2PCLK2;
 625              		.loc 1 233 5 view .LVU188
 233:Core/Src/usart.c ****     PeriphClkInitStruct.Usart16ClockSelection = RCC_USART16CLKSOURCE_D2PCLK2;
 626              		.loc 1 233 46 is_stmt 0 view .LVU189
 627 0094 0123     		movs	r3, #1
 628 0096 0693     		str	r3, [sp, #24]
 234:Core/Src/usart.c ****     if (HAL_RCCEx_PeriphCLKConfig(&PeriphClkInitStruct) != HAL_OK)
 629              		.loc 1 234 5 is_stmt 1 view .LVU190
 235:Core/Src/usart.c ****     {
 630              		.loc 1 235 5 view .LVU191
 235:Core/Src/usart.c ****     {
 631              		.loc 1 235 9 is_stmt 0 view .LVU192
 632 0098 06A8     		add	r0, sp, #24
 633 009a FFF7FEFF 		bl	HAL_RCCEx_PeriphCLKConfig
 634              	.LVL40:
 235:Core/Src/usart.c ****     {
 635              		.loc 1 235 8 discriminator 1 view .LVU193
 636 009e 38BB     		cbnz	r0, .L57
 637              	.L50:
ARM GAS  C:\usertemp\ccBuol7n.s 			page 18


 241:Core/Src/usart.c **** 
 638              		.loc 1 241 5 is_stmt 1 view .LVU194
 639              	.LBB4:
 241:Core/Src/usart.c **** 
 640              		.loc 1 241 5 view .LVU195
 241:Core/Src/usart.c **** 
 641              		.loc 1 241 5 view .LVU196
 642 00a0 304B     		ldr	r3, .L59+12
 643 00a2 D3F8F020 		ldr	r2, [r3, #240]
 644 00a6 42F01002 		orr	r2, r2, #16
 645 00aa C3F8F020 		str	r2, [r3, #240]
 241:Core/Src/usart.c **** 
 646              		.loc 1 241 5 view .LVU197
 647 00ae D3F8F020 		ldr	r2, [r3, #240]
 648 00b2 02F01002 		and	r2, r2, #16
 649 00b6 0292     		str	r2, [sp, #8]
 241:Core/Src/usart.c **** 
 650              		.loc 1 241 5 view .LVU198
 651 00b8 029A     		ldr	r2, [sp, #8]
 652              	.LBE4:
 241:Core/Src/usart.c **** 
 653              		.loc 1 241 5 view .LVU199
 243:Core/Src/usart.c ****     /**USART1 GPIO Configuration
 654              		.loc 1 243 5 view .LVU200
 655              	.LBB5:
 243:Core/Src/usart.c ****     /**USART1 GPIO Configuration
 656              		.loc 1 243 5 view .LVU201
 243:Core/Src/usart.c ****     /**USART1 GPIO Configuration
 657              		.loc 1 243 5 view .LVU202
 658 00ba D3F8E020 		ldr	r2, [r3, #224]
 659 00be 42F00202 		orr	r2, r2, #2
 660 00c2 C3F8E020 		str	r2, [r3, #224]
 243:Core/Src/usart.c ****     /**USART1 GPIO Configuration
 661              		.loc 1 243 5 view .LVU203
 662 00c6 D3F8E030 		ldr	r3, [r3, #224]
 663 00ca 03F00203 		and	r3, r3, #2
 664 00ce 0393     		str	r3, [sp, #12]
 243:Core/Src/usart.c ****     /**USART1 GPIO Configuration
 665              		.loc 1 243 5 view .LVU204
 666 00d0 039B     		ldr	r3, [sp, #12]
 667              	.LBE5:
 243:Core/Src/usart.c ****     /**USART1 GPIO Configuration
 668              		.loc 1 243 5 view .LVU205
 248:Core/Src/usart.c ****     GPIO_InitStruct.Mode = GPIO_MODE_AF_PP;
 669              		.loc 1 248 5 view .LVU206
 248:Core/Src/usart.c ****     GPIO_InitStruct.Mode = GPIO_MODE_AF_PP;
 670              		.loc 1 248 25 is_stmt 0 view .LVU207
 671 00d2 4FF44043 		mov	r3, #49152
 672 00d6 3593     		str	r3, [sp, #212]
 249:Core/Src/usart.c ****     GPIO_InitStruct.Pull = GPIO_NOPULL;
 673              		.loc 1 249 5 is_stmt 1 view .LVU208
 249:Core/Src/usart.c ****     GPIO_InitStruct.Pull = GPIO_NOPULL;
 674              		.loc 1 249 26 is_stmt 0 view .LVU209
 675 00d8 0223     		movs	r3, #2
 676 00da 3693     		str	r3, [sp, #216]
 250:Core/Src/usart.c ****     GPIO_InitStruct.Speed = GPIO_SPEED_FREQ_LOW;
 677              		.loc 1 250 5 is_stmt 1 view .LVU210
ARM GAS  C:\usertemp\ccBuol7n.s 			page 19


 250:Core/Src/usart.c ****     GPIO_InitStruct.Speed = GPIO_SPEED_FREQ_LOW;
 678              		.loc 1 250 26 is_stmt 0 view .LVU211
 679 00dc 0023     		movs	r3, #0
 680 00de 3793     		str	r3, [sp, #220]
 251:Core/Src/usart.c ****     GPIO_InitStruct.Alternate = GPIO_AF4_USART1;
 681              		.loc 1 251 5 is_stmt 1 view .LVU212
 251:Core/Src/usart.c ****     GPIO_InitStruct.Alternate = GPIO_AF4_USART1;
 682              		.loc 1 251 27 is_stmt 0 view .LVU213
 683 00e0 3893     		str	r3, [sp, #224]
 252:Core/Src/usart.c ****     HAL_GPIO_Init(GPIOB, &GPIO_InitStruct);
 684              		.loc 1 252 5 is_stmt 1 view .LVU214
 252:Core/Src/usart.c ****     HAL_GPIO_Init(GPIOB, &GPIO_InitStruct);
 685              		.loc 1 252 31 is_stmt 0 view .LVU215
 686 00e2 0423     		movs	r3, #4
 687 00e4 3993     		str	r3, [sp, #228]
 253:Core/Src/usart.c **** 
 688              		.loc 1 253 5 is_stmt 1 view .LVU216
 689 00e6 35A9     		add	r1, sp, #212
 690 00e8 1F48     		ldr	r0, .L59+16
 691 00ea FFF7FEFF 		bl	HAL_GPIO_Init
 692              	.LVL41:
 693 00ee 9EE7     		b	.L45
 694              	.L57:
 237:Core/Src/usart.c ****     }
 695              		.loc 1 237 7 view .LVU217
 696 00f0 FFF7FEFF 		bl	Error_Handler
 697              	.LVL42:
 698 00f4 D4E7     		b	.L50
 699              	.L55:
 267:Core/Src/usart.c ****     PeriphClkInitStruct.Usart234578ClockSelection = RCC_USART234578CLKSOURCE_D2PCLK1;
 700              		.loc 1 267 5 view .LVU218
 267:Core/Src/usart.c ****     PeriphClkInitStruct.Usart234578ClockSelection = RCC_USART234578CLKSOURCE_D2PCLK1;
 701              		.loc 1 267 46 is_stmt 0 view .LVU219
 702 00f6 0223     		movs	r3, #2
 703 00f8 0693     		str	r3, [sp, #24]
 268:Core/Src/usart.c ****     if (HAL_RCCEx_PeriphCLKConfig(&PeriphClkInitStruct) != HAL_OK)
 704              		.loc 1 268 5 is_stmt 1 view .LVU220
 269:Core/Src/usart.c ****     {
 705              		.loc 1 269 5 view .LVU221
 269:Core/Src/usart.c ****     {
 706              		.loc 1 269 9 is_stmt 0 view .LVU222
 707 00fa 06A8     		add	r0, sp, #24
 708 00fc FFF7FEFF 		bl	HAL_RCCEx_PeriphCLKConfig
 709              	.LVL43:
 269:Core/Src/usart.c ****     {
 710              		.loc 1 269 8 discriminator 1 view .LVU223
 711 0100 38BB     		cbnz	r0, .L58
 712              	.L51:
 275:Core/Src/usart.c **** 
 713              		.loc 1 275 5 is_stmt 1 view .LVU224
 714              	.LBB6:
 275:Core/Src/usart.c **** 
 715              		.loc 1 275 5 view .LVU225
 275:Core/Src/usart.c **** 
 716              		.loc 1 275 5 view .LVU226
 717 0102 184B     		ldr	r3, .L59+12
 718 0104 D3F8E820 		ldr	r2, [r3, #232]
ARM GAS  C:\usertemp\ccBuol7n.s 			page 20


 719 0108 42F48022 		orr	r2, r2, #262144
 720 010c C3F8E820 		str	r2, [r3, #232]
 275:Core/Src/usart.c **** 
 721              		.loc 1 275 5 view .LVU227
 722 0110 D3F8E820 		ldr	r2, [r3, #232]
 723 0114 02F48022 		and	r2, r2, #262144
 724 0118 0492     		str	r2, [sp, #16]
 275:Core/Src/usart.c **** 
 725              		.loc 1 275 5 view .LVU228
 726 011a 049A     		ldr	r2, [sp, #16]
 727              	.LBE6:
 275:Core/Src/usart.c **** 
 728              		.loc 1 275 5 view .LVU229
 277:Core/Src/usart.c ****     /**USART3 GPIO Configuration
 729              		.loc 1 277 5 view .LVU230
 730              	.LBB7:
 277:Core/Src/usart.c ****     /**USART3 GPIO Configuration
 731              		.loc 1 277 5 view .LVU231
 277:Core/Src/usart.c ****     /**USART3 GPIO Configuration
 732              		.loc 1 277 5 view .LVU232
 733 011c D3F8E020 		ldr	r2, [r3, #224]
 734 0120 42F00202 		orr	r2, r2, #2
 735 0124 C3F8E020 		str	r2, [r3, #224]
 277:Core/Src/usart.c ****     /**USART3 GPIO Configuration
 736              		.loc 1 277 5 view .LVU233
 737 0128 D3F8E030 		ldr	r3, [r3, #224]
 738 012c 03F00203 		and	r3, r3, #2
 739 0130 0593     		str	r3, [sp, #20]
 277:Core/Src/usart.c ****     /**USART3 GPIO Configuration
 740              		.loc 1 277 5 view .LVU234
 741 0132 059B     		ldr	r3, [sp, #20]
 742              	.LBE7:
 277:Core/Src/usart.c ****     /**USART3 GPIO Configuration
 743              		.loc 1 277 5 view .LVU235
 282:Core/Src/usart.c ****     GPIO_InitStruct.Mode = GPIO_MODE_AF_PP;
 744              		.loc 1 282 5 view .LVU236
 282:Core/Src/usart.c ****     GPIO_InitStruct.Mode = GPIO_MODE_AF_PP;
 745              		.loc 1 282 25 is_stmt 0 view .LVU237
 746 0134 4FF44063 		mov	r3, #3072
 747 0138 3593     		str	r3, [sp, #212]
 283:Core/Src/usart.c ****     GPIO_InitStruct.Pull = GPIO_NOPULL;
 748              		.loc 1 283 5 is_stmt 1 view .LVU238
 283:Core/Src/usart.c ****     GPIO_InitStruct.Pull = GPIO_NOPULL;
 749              		.loc 1 283 26 is_stmt 0 view .LVU239
 750 013a 0223     		movs	r3, #2
 751 013c 3693     		str	r3, [sp, #216]
 284:Core/Src/usart.c ****     GPIO_InitStruct.Speed = GPIO_SPEED_FREQ_LOW;
 752              		.loc 1 284 5 is_stmt 1 view .LVU240
 284:Core/Src/usart.c ****     GPIO_InitStruct.Speed = GPIO_SPEED_FREQ_LOW;
 753              		.loc 1 284 26 is_stmt 0 view .LVU241
 754 013e 0023     		movs	r3, #0
 755 0140 3793     		str	r3, [sp, #220]
 285:Core/Src/usart.c ****     GPIO_InitStruct.Alternate = GPIO_AF7_USART3;
 756              		.loc 1 285 5 is_stmt 1 view .LVU242
 285:Core/Src/usart.c ****     GPIO_InitStruct.Alternate = GPIO_AF7_USART3;
 757              		.loc 1 285 27 is_stmt 0 view .LVU243
 758 0142 3893     		str	r3, [sp, #224]
ARM GAS  C:\usertemp\ccBuol7n.s 			page 21


 286:Core/Src/usart.c ****     HAL_GPIO_Init(GPIOB, &GPIO_InitStruct);
 759              		.loc 1 286 5 is_stmt 1 view .LVU244
 286:Core/Src/usart.c ****     HAL_GPIO_Init(GPIOB, &GPIO_InitStruct);
 760              		.loc 1 286 31 is_stmt 0 view .LVU245
 761 0144 0723     		movs	r3, #7
 762 0146 3993     		str	r3, [sp, #228]
 287:Core/Src/usart.c **** 
 763              		.loc 1 287 5 is_stmt 1 view .LVU246
 764 0148 35A9     		add	r1, sp, #212
 765 014a 0748     		ldr	r0, .L59+16
 766 014c FFF7FEFF 		bl	HAL_GPIO_Init
 767              	.LVL44:
 768              		.loc 1 293 1 is_stmt 0 view .LVU247
 769 0150 6DE7     		b	.L45
 770              	.L58:
 271:Core/Src/usart.c ****     }
 771              		.loc 1 271 7 is_stmt 1 view .LVU248
 772 0152 FFF7FEFF 		bl	Error_Handler
 773              	.LVL45:
 774 0156 D4E7     		b	.L51
 775              	.L60:
 776              		.align	2
 777              	.L59:
 778 0158 004C0040 		.word	1073761280
 779 015c 00100140 		.word	1073811456
 780 0160 00480040 		.word	1073760256
 781 0164 00440258 		.word	1476543488
 782 0168 00040258 		.word	1476527104
 783              		.cfi_endproc
 784              	.LFE341:
 786              		.section	.text.HAL_UART_MspDeInit,"ax",%progbits
 787              		.align	1
 788              		.global	HAL_UART_MspDeInit
 789              		.syntax unified
 790              		.thumb
 791              		.thumb_func
 793              	HAL_UART_MspDeInit:
 794              	.LVL46:
 795              	.LFB342:
 294:Core/Src/usart.c **** 
 295:Core/Src/usart.c **** void HAL_UART_MspDeInit(UART_HandleTypeDef* uartHandle)
 296:Core/Src/usart.c **** {
 796              		.loc 1 296 1 view -0
 797              		.cfi_startproc
 798              		@ args = 0, pretend = 0, frame = 0
 799              		@ frame_needed = 0, uses_anonymous_args = 0
 800              		.loc 1 296 1 is_stmt 0 view .LVU250
 801 0000 08B5     		push	{r3, lr}
 802              	.LCFI11:
 803              		.cfi_def_cfa_offset 8
 804              		.cfi_offset 3, -8
 805              		.cfi_offset 14, -4
 297:Core/Src/usart.c **** 
 298:Core/Src/usart.c ****   if(uartHandle->Instance==UART4)
 806              		.loc 1 298 3 is_stmt 1 view .LVU251
 807              		.loc 1 298 16 is_stmt 0 view .LVU252
 808 0002 0368     		ldr	r3, [r0]
ARM GAS  C:\usertemp\ccBuol7n.s 			page 22


 809              		.loc 1 298 5 view .LVU253
 810 0004 184A     		ldr	r2, .L69
 811 0006 9342     		cmp	r3, r2
 812 0008 06D0     		beq	.L66
 299:Core/Src/usart.c ****   {
 300:Core/Src/usart.c ****   /* USER CODE BEGIN UART4_MspDeInit 0 */
 301:Core/Src/usart.c **** 
 302:Core/Src/usart.c ****   /* USER CODE END UART4_MspDeInit 0 */
 303:Core/Src/usart.c ****     /* Peripheral clock disable */
 304:Core/Src/usart.c ****     __HAL_RCC_UART4_CLK_DISABLE();
 305:Core/Src/usart.c **** 
 306:Core/Src/usart.c ****     /**UART4 GPIO Configuration
 307:Core/Src/usart.c ****     PB8     ------> UART4_RX
 308:Core/Src/usart.c ****     PB9     ------> UART4_TX
 309:Core/Src/usart.c ****     */
 310:Core/Src/usart.c ****     HAL_GPIO_DeInit(GPIOB, GPIO_PIN_8|GPIO_PIN_9);
 311:Core/Src/usart.c **** 
 312:Core/Src/usart.c ****   /* USER CODE BEGIN UART4_MspDeInit 1 */
 313:Core/Src/usart.c **** 
 314:Core/Src/usart.c ****   /* USER CODE END UART4_MspDeInit 1 */
 315:Core/Src/usart.c ****   }
 316:Core/Src/usart.c ****   else if(uartHandle->Instance==USART1)
 813              		.loc 1 316 8 is_stmt 1 view .LVU254
 814              		.loc 1 316 10 is_stmt 0 view .LVU255
 815 000a 184A     		ldr	r2, .L69+4
 816 000c 9342     		cmp	r3, r2
 817 000e 10D0     		beq	.L67
 317:Core/Src/usart.c ****   {
 318:Core/Src/usart.c ****   /* USER CODE BEGIN USART1_MspDeInit 0 */
 319:Core/Src/usart.c **** 
 320:Core/Src/usart.c ****   /* USER CODE END USART1_MspDeInit 0 */
 321:Core/Src/usart.c ****     /* Peripheral clock disable */
 322:Core/Src/usart.c ****     __HAL_RCC_USART1_CLK_DISABLE();
 323:Core/Src/usart.c **** 
 324:Core/Src/usart.c ****     /**USART1 GPIO Configuration
 325:Core/Src/usart.c ****     PB14     ------> USART1_TX
 326:Core/Src/usart.c ****     PB15     ------> USART1_RX
 327:Core/Src/usart.c ****     */
 328:Core/Src/usart.c ****     HAL_GPIO_DeInit(GPIOB, GPIO_PIN_14|GPIO_PIN_15);
 329:Core/Src/usart.c **** 
 330:Core/Src/usart.c ****   /* USER CODE BEGIN USART1_MspDeInit 1 */
 331:Core/Src/usart.c **** 
 332:Core/Src/usart.c ****   /* USER CODE END USART1_MspDeInit 1 */
 333:Core/Src/usart.c ****   }
 334:Core/Src/usart.c ****   else if(uartHandle->Instance==USART3)
 818              		.loc 1 334 8 is_stmt 1 view .LVU256
 819              		.loc 1 334 10 is_stmt 0 view .LVU257
 820 0010 174A     		ldr	r2, .L69+8
 821 0012 9342     		cmp	r3, r2
 822 0014 1AD0     		beq	.L68
 823              	.LVL47:
 824              	.L61:
 335:Core/Src/usart.c ****   {
 336:Core/Src/usart.c ****   /* USER CODE BEGIN USART3_MspDeInit 0 */
 337:Core/Src/usart.c **** 
 338:Core/Src/usart.c ****   /* USER CODE END USART3_MspDeInit 0 */
 339:Core/Src/usart.c ****     /* Peripheral clock disable */
ARM GAS  C:\usertemp\ccBuol7n.s 			page 23


 340:Core/Src/usart.c ****     __HAL_RCC_USART3_CLK_DISABLE();
 341:Core/Src/usart.c **** 
 342:Core/Src/usart.c ****     /**USART3 GPIO Configuration
 343:Core/Src/usart.c ****     PB10     ------> USART3_TX
 344:Core/Src/usart.c ****     PB11     ------> USART3_RX
 345:Core/Src/usart.c ****     */
 346:Core/Src/usart.c ****     HAL_GPIO_DeInit(GPIOB, GPIO_PIN_10|GPIO_PIN_11);
 347:Core/Src/usart.c **** 
 348:Core/Src/usart.c ****   /* USER CODE BEGIN USART3_MspDeInit 1 */
 349:Core/Src/usart.c **** 
 350:Core/Src/usart.c ****   /* USER CODE END USART3_MspDeInit 1 */
 351:Core/Src/usart.c ****   }
 352:Core/Src/usart.c **** }
 825              		.loc 1 352 1 view .LVU258
 826 0016 08BD     		pop	{r3, pc}
 827              	.LVL48:
 828              	.L66:
 304:Core/Src/usart.c **** 
 829              		.loc 1 304 5 is_stmt 1 view .LVU259
 830 0018 164A     		ldr	r2, .L69+12
 831 001a D2F8E830 		ldr	r3, [r2, #232]
 832 001e 23F40023 		bic	r3, r3, #524288
 833 0022 C2F8E830 		str	r3, [r2, #232]
 310:Core/Src/usart.c **** 
 834              		.loc 1 310 5 view .LVU260
 835 0026 4FF44071 		mov	r1, #768
 836 002a 1348     		ldr	r0, .L69+16
 837              	.LVL49:
 310:Core/Src/usart.c **** 
 838              		.loc 1 310 5 is_stmt 0 view .LVU261
 839 002c FFF7FEFF 		bl	HAL_GPIO_DeInit
 840              	.LVL50:
 841 0030 F1E7     		b	.L61
 842              	.LVL51:
 843              	.L67:
 322:Core/Src/usart.c **** 
 844              		.loc 1 322 5 is_stmt 1 view .LVU262
 845 0032 104A     		ldr	r2, .L69+12
 846 0034 D2F8F030 		ldr	r3, [r2, #240]
 847 0038 23F01003 		bic	r3, r3, #16
 848 003c C2F8F030 		str	r3, [r2, #240]
 328:Core/Src/usart.c **** 
 849              		.loc 1 328 5 view .LVU263
 850 0040 4FF44041 		mov	r1, #49152
 851 0044 0C48     		ldr	r0, .L69+16
 852              	.LVL52:
 328:Core/Src/usart.c **** 
 853              		.loc 1 328 5 is_stmt 0 view .LVU264
 854 0046 FFF7FEFF 		bl	HAL_GPIO_DeInit
 855              	.LVL53:
 856 004a E4E7     		b	.L61
 857              	.LVL54:
 858              	.L68:
 340:Core/Src/usart.c **** 
 859              		.loc 1 340 5 is_stmt 1 view .LVU265
 860 004c 094A     		ldr	r2, .L69+12
 861 004e D2F8E830 		ldr	r3, [r2, #232]
ARM GAS  C:\usertemp\ccBuol7n.s 			page 24


 862 0052 23F48023 		bic	r3, r3, #262144
 863 0056 C2F8E830 		str	r3, [r2, #232]
 346:Core/Src/usart.c **** 
 864              		.loc 1 346 5 view .LVU266
 865 005a 4FF44061 		mov	r1, #3072
 866 005e 0648     		ldr	r0, .L69+16
 867              	.LVL55:
 346:Core/Src/usart.c **** 
 868              		.loc 1 346 5 is_stmt 0 view .LVU267
 869 0060 FFF7FEFF 		bl	HAL_GPIO_DeInit
 870              	.LVL56:
 871              		.loc 1 352 1 view .LVU268
 872 0064 D7E7     		b	.L61
 873              	.L70:
 874 0066 00BF     		.align	2
 875              	.L69:
 876 0068 004C0040 		.word	1073761280
 877 006c 00100140 		.word	1073811456
 878 0070 00480040 		.word	1073760256
 879 0074 00440258 		.word	1476543488
 880 0078 00040258 		.word	1476527104
 881              		.cfi_endproc
 882              	.LFE342:
 884              		.global	huart3
 885              		.section	.bss.huart3,"aw",%nobits
 886              		.align	2
 889              	huart3:
 890 0000 00000000 		.space	144
 890      00000000 
 890      00000000 
 890      00000000 
 890      00000000 
 891              		.global	huart1
 892              		.section	.bss.huart1,"aw",%nobits
 893              		.align	2
 896              	huart1:
 897 0000 00000000 		.space	144
 897      00000000 
 897      00000000 
 897      00000000 
 897      00000000 
 898              		.global	huart4
 899              		.section	.bss.huart4,"aw",%nobits
 900              		.align	2
 903              	huart4:
 904 0000 00000000 		.space	144
 904      00000000 
 904      00000000 
 904      00000000 
 904      00000000 
 905              		.text
 906              	.Letext0:
 907              		.file 2 "D:/armtoolchain/arm-gnu-toolchain-13.3.rel1-mingw-w64-i686-arm-none-eabi/arm-none-eabi/in
 908              		.file 3 "D:/armtoolchain/arm-gnu-toolchain-13.3.rel1-mingw-w64-i686-arm-none-eabi/arm-none-eabi/in
 909              		.file 4 "Drivers/CMSIS/Device/ST/STM32H7xx/Include/stm32h743xx.h"
 910              		.file 5 "Drivers/STM32H7xx_HAL_Driver/Inc/stm32h7xx_hal_def.h"
 911              		.file 6 "Drivers/STM32H7xx_HAL_Driver/Inc/stm32h7xx_hal_rcc_ex.h"
ARM GAS  C:\usertemp\ccBuol7n.s 			page 25


 912              		.file 7 "Drivers/STM32H7xx_HAL_Driver/Inc/stm32h7xx_hal_gpio.h"
 913              		.file 8 "Drivers/STM32H7xx_HAL_Driver/Inc/stm32h7xx_hal_dma.h"
 914              		.file 9 "Drivers/STM32H7xx_HAL_Driver/Inc/stm32h7xx_hal_uart.h"
 915              		.file 10 "Core/Inc/usart.h"
 916              		.file 11 "Drivers/STM32H7xx_HAL_Driver/Inc/stm32h7xx_hal_uart_ex.h"
 917              		.file 12 "Core/Inc/main.h"
 918              		.file 13 "<built-in>"
ARM GAS  C:\usertemp\ccBuol7n.s 			page 26

